Certificate:
    Data:
        Version: 3 (0x2)
        Serial Number:
            dc:aa:36:29:b6:2d:76:8e:27:dc:c7:3f:90:c4:2d:33
    Signature Algorithm: sha256WithRSAEncryption
        Issuer: C=FR, ST=Paris, L=Paris, O=Gandi, CN=Gandi Standard SSL CA 2
        Validity
            Not Before: Nov  7 00:00:00 2014 GMT
            Not After : Nov  7 23:59:59 2015 GMT
        Subject: OU=Domain Control Validated, OU=Gandi Standard SSL, CN=api.ftp-master.debian.org
        Subject Public Key Info:
            Public Key Algorithm: rsaEncryption
                Public-Key: (3072 bit)
                Modulus:
                    00:fd:e7:7a:1e:56:95:eb:9d:83:3c:fc:e5:a7:17:
                    6f:58:93:eb:46:d7:42:48:e5:89:36:a9:38:a1:19:
                    fe:01:b1:13:16:65:97:cd:e9:4a:3e:7d:f4:04:46:
                    bf:57:11:71:47:59:52:f4:f6:13:3d:e4:eb:de:2c:
                    22:bd:d4:3a:ee:79:20:f6:0b:e6:1e:7b:a4:a9:fc:
                    b8:e0:e7:09:05:05:c6:3f:dd:25:bd:f6:3f:58:68:
                    e0:84:c2:d8:bb:40:d4:cc:4f:5f:d0:3e:e5:ad:d9:
                    fb:6b:bf:28:62:b8:8a:ff:d7:00:50:09:af:3f:0d:
                    78:1b:b2:f3:b4:50:93:7e:83:e7:0e:6b:2f:bc:bd:
                    c6:f1:0d:86:71:12:1a:66:df:1e:0a:c1:aa:8b:33:
                    df:f2:37:5e:0f:6b:7a:c2:a8:8c:26:59:c8:ee:2f:
                    0c:81:25:67:00:f1:99:e8:56:ce:10:37:76:5d:30:
                    80:5d:45:52:ef:6a:75:7c:4a:24:e3:87:79:48:95:
                    2d:b3:b7:06:c6:59:77:3d:50:a7:b5:df:6b:ce:80:
                    1a:2e:fe:77:60:c8:0c:72:49:0f:93:91:df:b7:f0:
                    38:f7:6e:ff:a2:7f:ea:6d:ed:8c:df:55:25:d0:39:
                    fc:24:18:57:fb:e0:cf:00:0a:76:fc:4a:97:35:8c:
                    3f:19:cb:4b:86:0c:4b:70:1c:1c:d3:06:26:b5:f9:
                    a9:d9:29:64:db:a0:76:c6:e5:50:88:7f:ee:18:c1:
                    32:dd:9e:4d:23:a2:b8:a0:1a:d5:96:b4:41:62:ae:
                    bb:a0:b0:92:75:8b:e3:b0:5b:8d:ec:92:24:41:2b:
                    04:ed:3f:4b:09:40:e2:77:ba:02:4b:03:7a:60:67:
                    a3:a6:ae:ec:f4:7a:77:60:88:35:32:53:8e:5a:cc:
                    04:3e:73:19:01:09:33:50:5f:a4:d5:a5:cf:12:fb:
                    43:63:0b:1b:0b:14:b4:a9:d7:c5:e0:43:31:90:75:
                    78:30:08:dc:aa:a1:c2:b1:95:9f
                Exponent: 65537 (0x10001)
        X509v3 extensions:
            X509v3 Authority Key Identifier: 
                keyid:B3:90:A7:D8:C9:AF:4E:CD:61:3C:9F:7C:AD:5D:7F:41:FD:69:30:EA

            X509v3 Subject Key Identifier: 
                7A:0E:8D:72:FD:C8:05:B3:F3:0A:1C:64:C6:47:6C:A7:C0:DD:1F:2B
            X509v3 Key Usage: critical
                Digital Signature, Key Encipherment
            X509v3 Basic Constraints: critical
                CA:FALSE
            X509v3 Extended Key Usage: 
                TLS Web Server Authentication, TLS Web Client Authentication
            X509v3 Certificate Policies: 
                Policy: 1.3.6.1.4.1.6449.1.2.2.26
                  CPS: https://cps.usertrust.com
                Policy: 2.23.140.1.2.1

            X509v3 CRL Distribution Points: 

                Full Name:
                  URI:http://crl.usertrust.com/GandiStandardSSLCA2.crl

            Authority Information Access: 
                CA Issuers - URI:http://crt.usertrust.com/GandiStandardSSLCA2.crt
                OCSP - URI:http://ocsp.usertrust.com

            X509v3 Subject Alternative Name: 
                DNS:api.ftp-master.debian.org, DNS:www.api.ftp-master.debian.org
    Signature Algorithm: sha256WithRSAEncryption
         04:a5:7e:ce:4d:1c:fd:85:9f:b4:c5:75:7a:77:f4:5b:2d:96:
         81:ca:97:c3:9b:80:fc:13:c9:86:34:19:8c:13:50:6b:1f:98:
         68:d5:ef:fd:0a:39:6b:0a:b5:de:62:01:28:59:a0:3c:ed:95:
         f9:62:9c:ab:f5:f7:6d:76:ed:f4:d6:6f:2b:c7:2f:a9:bb:08:
         85:b2:cc:6c:2d:cb:8a:81:f3:f8:ae:ec:a1:da:18:85:41:7e:
         eb:be:f7:5e:5d:70:09:7c:1f:a1:1d:5d:6f:ce:5d:ab:a1:36:
         b3:3c:6f:e3:49:06:d0:c9:d4:69:1e:3e:4f:aa:6d:8d:c1:a7:
         1e:75:88:d8:6e:93:36:37:97:46:ae:2c:a5:05:25:ca:1d:22:
         06:d0:b0:be:16:9f:dc:68:9d:94:cd:bb:21:b2:7e:25:4e:46:
         8e:b6:ea:02:3e:fb:dc:7a:54:d5:3d:a6:7d:8f:bc:5d:06:c5:
         9a:23:2a:21:1d:ac:06:fb:8a:23:df:ba:4a:94:fd:d6:65:3f:
         69:9b:fe:86:a1:10:35:16:62:53:dc:fb:70:d8:56:87:f1:a6:
         33:c0:a2:23:e0:32:4d:e3:02:3e:23:a9:b2:54:2b:46:e0:6f:
         08:0b:27:9d:a5:e2:c7:9e:d2:6e:af:62:c4:7e:d3:56:c2:dc:
         07:94:78:75
-----BEGIN CERTIFICATE-----
MIIFmzCCBIOgAwIBAgIRANyqNim2LXaOJ9zHP5DELTMwDQYJKoZIhvcNAQELBQAw
XzELMAkGA1UEBhMCRlIxDjAMBgNVBAgTBVBhcmlzMQ4wDAYDVQQHEwVQYXJpczEO
MAwGA1UEChMFR2FuZGkxIDAeBgNVBAMTF0dhbmRpIFN0YW5kYXJkIFNTTCBDQSAy
MB4XDTE0MTEwNzAwMDAwMFoXDTE1MTEwNzIzNTk1OVowZDEhMB8GA1UECxMYRG9t
YWluIENvbnRyb2wgVmFsaWRhdGVkMRswGQYDVQQLExJHYW5kaSBTdGFuZGFyZCBT
U0wxIjAgBgNVBAMTGWFwaS5mdHAtbWFzdGVyLmRlYmlhbi5vcmcwggGiMA0GCSqG
SIb3DQEBAQUAA4IBjwAwggGKAoIBgQD953oeVpXrnYM8/OWnF29Yk+tG10JI5Yk2
qTihGf4BsRMWZZfN6Uo+ffQERr9XEXFHWVL09hM95OveLCK91DrueSD2C+Yee6Sp
/Ljg5wkFBcY/3SW99j9YaOCEwti7QNTMT1/QPuWt2ftrvyhiuIr/1wBQCa8/DXgb
svO0UJN+g+cOay+8vcbxDYZxEhpm3x4KwaqLM9/yN14Pa3rCqIwmWcjuLwyBJWcA
8ZnoVs4QN3ZdMIBdRVLvanV8SiTjh3lIlS2ztwbGWXc9UKe132vOgBou/ndgyAxy
SQ+Tkd+38Dj3bv+if+pt7YzfVSXQOfwkGFf74M8ACnb8Spc1jD8Zy0uGDEtwHBzT
Bia1+anZKWTboHbG5VCIf+4YwTLdnk0jorigGtWWtEFirrugsJJ1i+OwW43skiRB
KwTtP0sJQOJ3ugJLA3pgZ6Omruz0endgiDUyU45azAQ+cxkBCTNQX6TVpc8S+0Nj
CxsLFLSp18XgQzGQdXgwCNyqocKxlZ8CAwEAAaOCAcswggHHMB8GA1UdIwQYMBaA
FLOQp9jJr07NYTyffK1df0H9aTDqMB0GA1UdDgQWBBR6Do1y/cgFs/MKHGTGR2yn
wN0fKzAOBgNVHQ8BAf8EBAMCBaAwDAYDVR0TAQH/BAIwADAdBgNVHSUEFjAUBggr
BgEFBQcDAQYIKwYBBQUHAwIwSwYDVR0gBEQwQjA2BgsrBgEEAbIxAQICGjAnMCUG
CCsGAQUFBwIBFhlodHRwczovL2Nwcy51c2VydHJ1c3QuY29tMAgGBmeBDAECATBB
BgNVHR8EOjA4MDagNKAyhjBodHRwOi8vY3JsLnVzZXJ0cnVzdC5jb20vR2FuZGlT
dGFuZGFyZFNTTENBMi5jcmwwcwYIKwYBBQUHAQEEZzBlMDwGCCsGAQUFBzAChjBo
dHRwOi8vY3J0LnVzZXJ0cnVzdC5jb20vR2FuZGlTdGFuZGFyZFNTTENBMi5jcnQw
JQYIKwYBBQUHMAGGGWh0dHA6Ly9vY3NwLnVzZXJ0cnVzdC5jb20wQwYDVR0RBDww
OoIZYXBpLmZ0cC1tYXN0ZXIuZGViaWFuLm9yZ4Idd3d3LmFwaS5mdHAtbWFzdGVy
LmRlYmlhbi5vcmcwDQYJKoZIhvcNAQELBQADggEBAASlfs5NHP2Fn7TFdXp39Fst
loHKl8ObgPwTyYY0GYwTUGsfmGjV7/0KOWsKtd5iAShZoDztlflinKv192127fTW
byvHL6m7CIWyzGwty4qB8/iu7KHaGIVBfuu+915dcAl8H6EdXW/OXauhNrM8b+NJ
BtDJ1GkePk+qbY3Bpx51iNhukzY3l0auLKUFJcodIgbQsL4Wn9xonZTNuyGyfiVO
Ro626gI++9x6VNU9pn2PvF0GxZojKiEdrAb7iiPfukqU/dZlP2mb/oahEDUWYlPc
+3DYVofxpjPAoiPgMk3jAj4jqbJUK0bgbwgLJ52l4see0m6vYsR+01bC3AeUeHU=
-----END CERTIFICATE-----
