Certificate:
    Data:
        Version: 3 (0x2)
        Serial Number:
            0e:51:c6:3b:9a:88:a6:46:e2:24:6c:44:f9:2f:bb:19
    Signature Algorithm: sha256WithRSAEncryption
        Issuer: C=FR, ST=Paris, L=Paris, O=Gandi, CN=Gandi Standard SSL CA 2
        Validity
            Not Before: Jul 13 00:00:00 2015 GMT
            Not After : Jul 22 23:59:59 2016 GMT
        Subject: OU=Domain Control Validated, OU=Gandi Standard SSL, CN=bits.debian.org
        Subject Public Key Info:
            Public Key Algorithm: rsaEncryption
                Public-Key: (3072 bit)
                Modulus:
                    00:bd:4f:02:39:6b:83:f1:50:f5:a2:a6:23:12:dc:
                    d9:4c:ef:ff:4b:35:f2:52:27:67:ea:8c:9a:c2:f9:
                    e2:d3:5f:a9:bd:20:72:e0:f8:c8:8e:42:04:a3:99:
                    8d:ba:31:1f:bb:85:5a:47:88:a4:61:57:32:d1:e3:
                    74:cb:8a:64:4e:8e:b3:ab:ac:1b:16:7a:a3:d9:61:
                    79:ee:c1:5f:97:4c:a4:ae:2a:d1:65:ac:0c:c0:50:
                    80:15:af:52:fa:f0:6a:93:69:3d:2d:e1:88:9c:0a:
                    18:18:b0:ae:17:ce:a2:af:d1:c6:84:af:4d:e9:a3:
                    44:b4:fd:58:ff:5a:d9:eb:9d:ea:f7:9f:68:4b:80:
                    74:9c:a2:b5:9f:bb:0c:06:1f:b3:6b:dd:eb:ac:3b:
                    3f:b0:ac:42:ad:64:ac:1f:f9:58:26:e8:27:42:77:
                    3b:ce:e9:2b:07:bc:52:22:da:94:52:61:8d:38:bd:
                    49:ae:bc:94:12:34:20:d0:3f:7a:be:16:4a:18:3a:
                    a2:96:8f:72:ca:2a:d6:5c:9c:35:e6:8b:ea:b6:eb:
                    aa:2a:97:4c:08:ef:6d:43:f9:01:26:d7:09:47:0e:
                    da:0b:7c:b8:48:e6:9d:d5:ea:6d:ac:06:5b:d4:af:
                    c1:f6:73:b0:6a:ca:3e:b5:5a:29:84:05:d0:15:18:
                    44:6b:fc:94:9e:f4:53:38:29:1d:03:59:dc:a0:21:
                    03:3b:21:5d:db:86:66:48:3b:66:40:f0:88:e0:9c:
                    58:b5:c3:82:9d:54:a2:5c:1b:40:f7:3e:c1:a3:ec:
                    72:10:74:fc:b6:72:5c:ab:bc:7f:7a:d4:b3:1a:22:
                    99:62:fb:de:6b:f0:f3:aa:39:f7:52:35:61:8f:2c:
                    92:d6:33:70:1a:eb:4e:8c:5e:cc:19:32:81:1a:01:
                    78:b9:c0:ec:5c:dc:4d:a9:d7:c9:ca:f5:5c:5a:49:
                    ee:e9:fa:0b:4c:9c:a7:0c:e2:d2:9d:f2:0d:89:6c:
                    56:00:ab:be:cc:c3:f5:cb:1c:0d
                Exponent: 65537 (0x10001)
        X509v3 extensions:
            X509v3 Authority Key Identifier: 
                keyid:B3:90:A7:D8:C9:AF:4E:CD:61:3C:9F:7C:AD:5D:7F:41:FD:69:30:EA

            X509v3 Subject Key Identifier: 
                E5:0F:04:C1:28:38:AF:C4:B4:68:E5:2B:6E:67:B8:CD:36:B7:CB:1B
            X509v3 Key Usage: critical
                Digital Signature, Key Encipherment
            X509v3 Basic Constraints: critical
                CA:FALSE
            X509v3 Extended Key Usage: 
                TLS Web Server Authentication, TLS Web Client Authentication
            X509v3 Certificate Policies: 
                Policy: 1.3.6.1.4.1.6449.1.2.2.26
                  CPS: https://cps.usertrust.com
                Policy: 2.23.140.1.2.1

            X509v3 CRL Distribution Points: 

                Full Name:
                  URI:http://crl.usertrust.com/GandiStandardSSLCA2.crl

            Authority Information Access: 
                CA Issuers - URI:http://crt.usertrust.com/GandiStandardSSLCA2.crt
                OCSP - URI:http://ocsp.usertrust.com

            X509v3 Subject Alternative Name: 
                DNS:bits.debian.org, DNS:www.bits.debian.org
    Signature Algorithm: sha256WithRSAEncryption
         6e:6d:ab:20:9e:e6:1e:a0:49:73:16:2f:52:c5:6b:e0:23:d8:
         86:1f:df:d2:19:96:b5:b6:9c:6d:bd:1b:f6:7b:75:56:e4:f1:
         83:e9:c8:80:17:6f:63:5c:8e:fb:b0:94:42:51:67:d0:5e:3c:
         9c:db:49:bc:91:e5:40:14:1e:5c:be:53:4f:0b:04:87:ca:27:
         8e:31:90:d6:03:fe:34:ff:93:8a:9a:06:be:bc:c8:a9:fc:56:
         c0:ca:f1:6f:9b:ff:17:fa:a1:ce:85:fa:5f:76:69:53:ea:0c:
         99:2c:97:cd:9e:c0:08:97:61:fe:41:68:f2:43:9d:b8:da:de:
         18:b4:41:6f:73:a4:f5:c8:2c:3e:a7:2f:df:37:04:11:c3:5e:
         c5:85:3c:82:30:1d:0f:fb:c4:e5:e4:1b:32:45:74:2b:cf:d1:
         d4:eb:3b:3c:c7:49:33:6a:00:6f:1a:19:70:46:d5:42:d5:ce:
         e6:f7:28:ae:3f:ac:b7:72:74:6c:94:a4:ac:ea:c4:19:43:02:
         6d:ea:dc:0f:73:c4:9c:52:8e:87:a9:dc:4f:f0:1b:62:f6:1f:
         61:ac:d9:06:05:8b:9f:3a:8c:e9:eb:68:29:d0:18:bf:87:be:
         ed:5f:63:8c:49:27:9b:ed:2d:f0:fc:5f:3b:52:3c:94:83:ba:
         d1:36:a1:fd
-----BEGIN CERTIFICATE-----
MIIFfDCCBGSgAwIBAgIQDlHGO5qIpkbiJGxE+S+7GTANBgkqhkiG9w0BAQsFADBf
MQswCQYDVQQGEwJGUjEOMAwGA1UECBMFUGFyaXMxDjAMBgNVBAcTBVBhcmlzMQ4w
DAYDVQQKEwVHYW5kaTEgMB4GA1UEAxMXR2FuZGkgU3RhbmRhcmQgU1NMIENBIDIw
HhcNMTUwNzEzMDAwMDAwWhcNMTYwNzIyMjM1OTU5WjBaMSEwHwYDVQQLExhEb21h
aW4gQ29udHJvbCBWYWxpZGF0ZWQxGzAZBgNVBAsTEkdhbmRpIFN0YW5kYXJkIFNT
TDEYMBYGA1UEAxMPYml0cy5kZWJpYW4ub3JnMIIBojANBgkqhkiG9w0BAQEFAAOC
AY8AMIIBigKCAYEAvU8COWuD8VD1oqYjEtzZTO//SzXyUidn6oyawvni01+pvSBy
4PjIjkIEo5mNujEfu4VaR4ikYVcy0eN0y4pkTo6zq6wbFnqj2WF57sFfl0ykrirR
ZawMwFCAFa9S+vBqk2k9LeGInAoYGLCuF86ir9HGhK9N6aNEtP1Y/1rZ653q959o
S4B0nKK1n7sMBh+za93rrDs/sKxCrWSsH/lYJugnQnc7zukrB7xSItqUUmGNOL1J
rryUEjQg0D96vhZKGDqilo9yyirWXJw15ovqtuuqKpdMCO9tQ/kBJtcJRw7aC3y4
SOad1eptrAZb1K/B9nOwaso+tVophAXQFRhEa/yUnvRTOCkdA1ncoCEDOyFd24Zm
SDtmQPCI4JxYtcOCnVSiXBtA9z7Bo+xyEHT8tnJcq7x/etSzGiKZYvvea/Dzqjn3
UjVhjyyS1jNwGutOjF7MGTKBGgF4ucDsXNxNqdfJyvVcWknu6foLTJynDOLSnfIN
iWxWAKu+zMP1yxwNAgMBAAGjggG3MIIBszAfBgNVHSMEGDAWgBSzkKfYya9OzWE8
n3ytXX9B/Wkw6jAdBgNVHQ4EFgQU5Q8EwSg4r8S0aOUrbme4zTa3yxswDgYDVR0P
AQH/BAQDAgWgMAwGA1UdEwEB/wQCMAAwHQYDVR0lBBYwFAYIKwYBBQUHAwEGCCsG
AQUFBwMCMEsGA1UdIAREMEIwNgYLKwYBBAGyMQECAhowJzAlBggrBgEFBQcCARYZ
aHR0cHM6Ly9jcHMudXNlcnRydXN0LmNvbTAIBgZngQwBAgEwQQYDVR0fBDowODA2
oDSgMoYwaHR0cDovL2NybC51c2VydHJ1c3QuY29tL0dhbmRpU3RhbmRhcmRTU0xD
QTIuY3JsMHMGCCsGAQUFBwEBBGcwZTA8BggrBgEFBQcwAoYwaHR0cDovL2NydC51
c2VydHJ1c3QuY29tL0dhbmRpU3RhbmRhcmRTU0xDQTIuY3J0MCUGCCsGAQUFBzAB
hhlodHRwOi8vb2NzcC51c2VydHJ1c3QuY29tMC8GA1UdEQQoMCaCD2JpdHMuZGVi
aWFuLm9yZ4ITd3d3LmJpdHMuZGViaWFuLm9yZzANBgkqhkiG9w0BAQsFAAOCAQEA
bm2rIJ7mHqBJcxYvUsVr4CPYhh/f0hmWtbacbb0b9nt1VuTxg+nIgBdvY1yO+7CU
QlFn0F48nNtJvJHlQBQeXL5TTwsEh8onjjGQ1gP+NP+TipoGvrzIqfxWwMrxb5v/
F/qhzoX6X3ZpU+oMmSyXzZ7ACJdh/kFo8kOduNreGLRBb3Ok9cgsPqcv3zcEEcNe
xYU8gjAdD/vE5eQbMkV0K8/R1Os7PMdJM2oAbxoZcEbVQtXO5vcorj+st3J0bJSk
rOrEGUMCbercD3PEnFKOh6ncT/AbYvYfYazZBgWLnzqM6etoKdAYv4e+7V9jjEkn
m+0t8PxfO1I8lIO60Tah/Q==
-----END CERTIFICATE-----
