Certificate:
    Data:
        Version: 3 (0x2)
        Serial Number:
            7e:b2:99:47:a8:74:2f:5d:b1:5a:fb:ac:70:68:aa:ff
    Signature Algorithm: sha1WithRSAEncryption
        Issuer: C=FR, O=GANDI SAS, CN=Gandi Standard SSL CA
        Validity
            Not Before: Jul 22 00:00:00 2014 GMT
            Not After : Jul 22 23:59:59 2015 GMT
        Subject: OU=Domain Control Validated, OU=Gandi Standard SSL, CN=bits.debian.org
        Subject Public Key Info:
            Public Key Algorithm: rsaEncryption
                Public-Key: (3072 bit)
                Modulus:
                    00:bd:4f:02:39:6b:83:f1:50:f5:a2:a6:23:12:dc:
                    d9:4c:ef:ff:4b:35:f2:52:27:67:ea:8c:9a:c2:f9:
                    e2:d3:5f:a9:bd:20:72:e0:f8:c8:8e:42:04:a3:99:
                    8d:ba:31:1f:bb:85:5a:47:88:a4:61:57:32:d1:e3:
                    74:cb:8a:64:4e:8e:b3:ab:ac:1b:16:7a:a3:d9:61:
                    79:ee:c1:5f:97:4c:a4:ae:2a:d1:65:ac:0c:c0:50:
                    80:15:af:52:fa:f0:6a:93:69:3d:2d:e1:88:9c:0a:
                    18:18:b0:ae:17:ce:a2:af:d1:c6:84:af:4d:e9:a3:
                    44:b4:fd:58:ff:5a:d9:eb:9d:ea:f7:9f:68:4b:80:
                    74:9c:a2:b5:9f:bb:0c:06:1f:b3:6b:dd:eb:ac:3b:
                    3f:b0:ac:42:ad:64:ac:1f:f9:58:26:e8:27:42:77:
                    3b:ce:e9:2b:07:bc:52:22:da:94:52:61:8d:38:bd:
                    49:ae:bc:94:12:34:20:d0:3f:7a:be:16:4a:18:3a:
                    a2:96:8f:72:ca:2a:d6:5c:9c:35:e6:8b:ea:b6:eb:
                    aa:2a:97:4c:08:ef:6d:43:f9:01:26:d7:09:47:0e:
                    da:0b:7c:b8:48:e6:9d:d5:ea:6d:ac:06:5b:d4:af:
                    c1:f6:73:b0:6a:ca:3e:b5:5a:29:84:05:d0:15:18:
                    44:6b:fc:94:9e:f4:53:38:29:1d:03:59:dc:a0:21:
                    03:3b:21:5d:db:86:66:48:3b:66:40:f0:88:e0:9c:
                    58:b5:c3:82:9d:54:a2:5c:1b:40:f7:3e:c1:a3:ec:
                    72:10:74:fc:b6:72:5c:ab:bc:7f:7a:d4:b3:1a:22:
                    99:62:fb:de:6b:f0:f3:aa:39:f7:52:35:61:8f:2c:
                    92:d6:33:70:1a:eb:4e:8c:5e:cc:19:32:81:1a:01:
                    78:b9:c0:ec:5c:dc:4d:a9:d7:c9:ca:f5:5c:5a:49:
                    ee:e9:fa:0b:4c:9c:a7:0c:e2:d2:9d:f2:0d:89:6c:
                    56:00:ab:be:cc:c3:f5:cb:1c:0d
                Exponent: 65537 (0x10001)
        X509v3 extensions:
            X509v3 Authority Key Identifier: 
                keyid:B6:A8:FF:A2:A8:2F:D0:A6:CD:4B:B1:68:F3:E7:50:10:31:A7:79:21

            X509v3 Subject Key Identifier: 
                E5:0F:04:C1:28:38:AF:C4:B4:68:E5:2B:6E:67:B8:CD:36:B7:CB:1B
            X509v3 Key Usage: critical
                Digital Signature, Key Encipherment
            X509v3 Basic Constraints: critical
                CA:FALSE
            X509v3 Extended Key Usage: 
                TLS Web Server Authentication, TLS Web Client Authentication
            X509v3 Certificate Policies: 
                Policy: 1.3.6.1.4.1.6449.1.2.2.26
                  CPS: http://www.gandi.net/contracts/fr/ssl/cps/pdf/
                Policy: 2.23.140.1.2.1

            X509v3 CRL Distribution Points: 

                Full Name:
                  URI:http://crl.gandi.net/GandiStandardSSLCA.crl

            Authority Information Access: 
                CA Issuers - URI:http://crt.gandi.net/GandiStandardSSLCA.crt
                OCSP - URI:http://ocsp.gandi.net

            X509v3 Subject Alternative Name: 
                DNS:bits.debian.org, DNS:www.bits.debian.org
    Signature Algorithm: sha1WithRSAEncryption
         7d:dc:cc:3b:6c:bd:18:12:8f:27:da:13:f8:e6:b2:d3:37:bf:
         b6:c4:56:19:9f:36:61:4e:6b:03:08:e2:88:4f:74:b2:33:57:
         da:cf:0b:9b:99:c2:ce:4a:1f:b3:94:d8:75:a1:2f:e0:a8:78:
         17:33:ed:8c:cd:1e:06:3a:4d:d6:35:50:e6:88:ef:a5:80:15:
         f0:2d:52:21:a5:78:2b:d5:5a:02:7f:64:6a:dc:cc:d4:25:a6:
         8c:cc:c2:a4:ca:67:ed:6c:7c:33:54:43:08:42:40:3c:09:f9:
         5c:39:74:a0:18:20:e5:de:c2:9f:9e:ba:b2:30:f3:84:56:62:
         d7:57:0d:5f:12:38:c7:f4:6f:17:f5:5b:9f:0b:a1:3f:31:0f:
         af:cf:53:38:3e:2b:bd:b6:12:98:8e:3b:2d:3d:c3:ea:f9:4f:
         db:fe:72:dc:25:d7:f3:df:5e:09:ed:a6:cb:e1:df:52:24:55:
         7c:37:16:09:4e:7d:0a:aa:a2:21:4c:f2:47:5e:a6:4e:e1:e8:
         93:ba:88:66:37:35:0a:34:c2:0a:b1:6e:df:37:30:fa:fe:01:
         45:28:89:45:ff:a3:88:00:47:60:b8:d9:c0:16:cb:92:2a:a7:
         eb:1d:d8:b8:a0:9b:92:93:db:6b:b2:32:e6:18:7a:5f:f0:90:
         28:ea:a1:c3
-----BEGIN CERTIFICATE-----
MIIFZTCCBE2gAwIBAgIQfrKZR6h0L12xWvuscGiq/zANBgkqhkiG9w0BAQUFADBB
MQswCQYDVQQGEwJGUjESMBAGA1UEChMJR0FOREkgU0FTMR4wHAYDVQQDExVHYW5k
aSBTdGFuZGFyZCBTU0wgQ0EwHhcNMTQwNzIyMDAwMDAwWhcNMTUwNzIyMjM1OTU5
WjBaMSEwHwYDVQQLExhEb21haW4gQ29udHJvbCBWYWxpZGF0ZWQxGzAZBgNVBAsT
EkdhbmRpIFN0YW5kYXJkIFNTTDEYMBYGA1UEAxMPYml0cy5kZWJpYW4ub3JnMIIB
ojANBgkqhkiG9w0BAQEFAAOCAY8AMIIBigKCAYEAvU8COWuD8VD1oqYjEtzZTO//
SzXyUidn6oyawvni01+pvSBy4PjIjkIEo5mNujEfu4VaR4ikYVcy0eN0y4pkTo6z
q6wbFnqj2WF57sFfl0ykrirRZawMwFCAFa9S+vBqk2k9LeGInAoYGLCuF86ir9HG
hK9N6aNEtP1Y/1rZ653q959oS4B0nKK1n7sMBh+za93rrDs/sKxCrWSsH/lYJugn
Qnc7zukrB7xSItqUUmGNOL1JrryUEjQg0D96vhZKGDqilo9yyirWXJw15ovqtuuq
KpdMCO9tQ/kBJtcJRw7aC3y4SOad1eptrAZb1K/B9nOwaso+tVophAXQFRhEa/yU
nvRTOCkdA1ncoCEDOyFd24ZmSDtmQPCI4JxYtcOCnVSiXBtA9z7Bo+xyEHT8tnJc
q7x/etSzGiKZYvvea/Dzqjn3UjVhjyyS1jNwGutOjF7MGTKBGgF4ucDsXNxNqdfJ
yvVcWknu6foLTJynDOLSnfINiWxWAKu+zMP1yxwNAgMBAAGjggG+MIIBujAfBgNV
HSMEGDAWgBS2qP+iqC/Qps1LsWjz51AQMad5ITAdBgNVHQ4EFgQU5Q8EwSg4r8S0
aOUrbme4zTa3yxswDgYDVR0PAQH/BAQDAgWgMAwGA1UdEwEB/wQCMAAwHQYDVR0l
BBYwFAYIKwYBBQUHAwEGCCsGAQUFBwMCMGAGA1UdIARZMFcwSwYLKwYBBAGyMQEC
AhowPDA6BggrBgEFBQcCARYuaHR0cDovL3d3dy5nYW5kaS5uZXQvY29udHJhY3Rz
L2ZyL3NzbC9jcHMvcGRmLzAIBgZngQwBAgEwPAYDVR0fBDUwMzAxoC+gLYYraHR0
cDovL2NybC5nYW5kaS5uZXQvR2FuZGlTdGFuZGFyZFNTTENBLmNybDBqBggrBgEF
BQcBAQReMFwwNwYIKwYBBQUHMAKGK2h0dHA6Ly9jcnQuZ2FuZGkubmV0L0dhbmRp
U3RhbmRhcmRTU0xDQS5jcnQwIQYIKwYBBQUHMAGGFWh0dHA6Ly9vY3NwLmdhbmRp
Lm5ldDAvBgNVHREEKDAmgg9iaXRzLmRlYmlhbi5vcmeCE3d3dy5iaXRzLmRlYmlh
bi5vcmcwDQYJKoZIhvcNAQEFBQADggEBAH3czDtsvRgSjyfaE/jmstM3v7bEVhmf
NmFOawMI4ohPdLIzV9rPC5uZws5KH7OU2HWhL+CoeBcz7YzNHgY6TdY1UOaI76WA
FfAtUiGleCvVWgJ/ZGrczNQlpozMwqTKZ+1sfDNUQwhCQDwJ+Vw5dKAYIOXewp+e
urIw84RWYtdXDV8SOMf0bxf1W58LoT8xD6/PUzg+K722EpiOOy09w+r5T9v+ctwl
1/PfXgntpsvh31IkVXw3FglOfQqqoiFM8kdepk7h6JO6iGY3NQo0wgqxbt83MPr+
AUUoiUX/o4gAR2C42cAWy5Iqp+sd2Ligm5KT22uyMuYYel/wkCjqocM=
-----END CERTIFICATE-----
