Certificate:
    Data:
        Version: 3 (0x2)
        Serial Number:
            f3:24:1e:31:6b:36:a3:83:0f:46:57:0e:ec:be:dc:58
    Signature Algorithm: sha256WithRSAEncryption
        Issuer: C=FR, ST=Paris, L=Paris, O=Gandi, CN=Gandi Standard SSL CA 2
        Validity
            Not Before: Dec 20 00:00:00 2014 GMT
            Not After : Jan  7 23:59:59 2016 GMT
        Subject: OU=Domain Control Validated, OU=Gandi Standard SSL, CN=bugs.debian.org
        Subject Public Key Info:
            Public Key Algorithm: rsaEncryption
                Public-Key: (3072 bit)
                Modulus:
                    00:ab:cb:85:28:c6:97:5e:2e:68:5b:ee:be:4d:2b:
                    fb:c4:c6:fc:53:94:3d:91:e5:e6:fe:68:29:9b:fb:
                    e6:71:03:37:07:23:39:9f:96:ee:a1:15:bb:8e:da:
                    57:6b:45:e8:14:1f:cf:ed:a6:42:62:f0:9a:96:d4:
                    85:98:8f:fd:6a:21:9f:d4:4b:d9:67:97:b7:57:13:
                    db:7f:e0:28:80:53:47:01:7c:56:e9:71:34:19:54:
                    cf:7a:51:be:3a:c1:fd:b3:db:e1:b5:a4:ab:66:db:
                    9e:bb:58:63:00:ad:bc:ac:ce:1f:c1:87:a6:ef:3d:
                    3b:08:fd:6b:c7:bf:94:b1:02:11:27:ca:ea:f4:d9:
                    90:47:c2:da:c7:9b:c0:72:0d:01:2c:e2:59:d6:13:
                    d4:e3:b7:03:06:f3:2d:06:ca:7f:40:4a:56:73:68:
                    5c:2e:3a:03:50:70:e9:99:79:de:94:1f:bb:1f:79:
                    9c:4d:d5:bc:ab:5e:a7:c5:5a:db:76:76:b4:18:8d:
                    ac:f8:64:b5:fa:e1:2d:9d:47:68:19:47:00:85:4e:
                    d2:81:e5:f4:70:d4:98:e1:63:15:12:84:2a:59:ef:
                    bf:8d:57:33:31:67:de:4b:c9:54:1e:d4:02:67:b6:
                    2e:88:df:e4:9a:2b:b2:0e:49:ed:7e:74:60:34:b4:
                    f9:35:a4:e4:00:76:13:b1:c7:cf:a3:a6:40:e1:f8:
                    81:11:d0:a3:3e:05:b5:a0:77:f0:3d:0e:63:c9:8d:
                    d6:62:a5:cb:97:65:27:a6:63:97:01:84:80:7f:c7:
                    1b:e2:53:3e:b4:fc:0b:6a:0d:e6:83:4c:a1:79:a9:
                    ec:d8:63:b5:dc:00:1f:c5:44:31:bc:e2:13:34:b6:
                    3c:08:fe:17:9d:0c:aa:98:d0:eb:62:e4:14:93:4b:
                    e8:54:59:38:e2:a6:e0:a1:c7:3d:2f:13:44:be:31:
                    71:da:4f:b0:54:95:df:69:c4:74:5a:e8:0c:c8:31:
                    bb:8d:52:c7:7c:e3:ba:51:7b:a7
                Exponent: 65537 (0x10001)
        X509v3 extensions:
            X509v3 Authority Key Identifier: 
                keyid:B3:90:A7:D8:C9:AF:4E:CD:61:3C:9F:7C:AD:5D:7F:41:FD:69:30:EA

            X509v3 Subject Key Identifier: 
                DF:CB:C3:B0:AF:7B:CE:34:89:32:55:AC:97:2C:0B:B2:EE:7D:20:E2
            X509v3 Key Usage: critical
                Digital Signature, Key Encipherment
            X509v3 Basic Constraints: critical
                CA:FALSE
            X509v3 Extended Key Usage: 
                TLS Web Server Authentication, TLS Web Client Authentication
            X509v3 Certificate Policies: 
                Policy: 1.3.6.1.4.1.6449.1.2.2.26
                  CPS: https://cps.usertrust.com
                Policy: 2.23.140.1.2.1

            X509v3 CRL Distribution Points: 

                Full Name:
                  URI:http://crl.usertrust.com/GandiStandardSSLCA2.crl

            Authority Information Access: 
                CA Issuers - URI:http://crt.usertrust.com/GandiStandardSSLCA2.crt
                OCSP - URI:http://ocsp.usertrust.com

            X509v3 Subject Alternative Name: 
                DNS:bugs.debian.org, DNS:www.bugs.debian.org
    Signature Algorithm: sha256WithRSAEncryption
         71:4c:b9:5e:1a:a8:f4:e1:90:b3:01:60:3e:cb:84:fd:a6:e9:
         ed:a8:df:53:c0:75:25:06:73:cf:8a:53:9e:6e:c3:bd:45:72:
         60:7c:7a:15:05:37:6c:64:73:57:41:c7:6a:25:b5:35:2f:be:
         ba:48:33:47:91:3e:5b:bd:be:65:87:67:68:3f:d5:a4:66:cb:
         92:19:39:f6:69:40:10:7e:f8:87:fd:48:04:0f:72:b7:7d:03:
         87:b2:d3:ea:a1:74:de:71:ab:14:13:a0:03:36:2f:84:89:64:
         f0:76:f0:82:7b:80:16:ed:af:b9:ca:64:b4:bc:f5:07:a4:6d:
         e4:fb:41:be:61:f8:5a:c9:c6:55:dd:4c:1a:37:3b:be:e8:79:
         0a:c9:be:2d:41:77:9c:3e:e5:5a:5f:cb:25:4b:a3:2e:9e:c4:
         73:77:8f:dc:ab:2b:32:97:c8:74:a2:c9:e6:78:a0:01:07:22:
         04:03:be:c1:fe:e4:95:5f:fd:99:9f:18:2b:c1:59:bf:28:00:
         b5:02:ff:f3:5f:e0:72:37:a9:8d:3f:b4:26:1d:b6:d8:cc:cc:
         d2:a8:64:06:c6:f3:7e:ce:2e:04:90:2c:85:a9:6f:a5:7a:b1:
         70:35:c0:99:30:92:9f:53:67:ba:6c:62:08:6b:af:b5:43:9e:
         e4:24:20:91
-----BEGIN CERTIFICATE-----
MIIFfTCCBGWgAwIBAgIRAPMkHjFrNqODD0ZXDuy+3FgwDQYJKoZIhvcNAQELBQAw
XzELMAkGA1UEBhMCRlIxDjAMBgNVBAgTBVBhcmlzMQ4wDAYDVQQHEwVQYXJpczEO
MAwGA1UEChMFR2FuZGkxIDAeBgNVBAMTF0dhbmRpIFN0YW5kYXJkIFNTTCBDQSAy
MB4XDTE0MTIyMDAwMDAwMFoXDTE2MDEwNzIzNTk1OVowWjEhMB8GA1UECxMYRG9t
YWluIENvbnRyb2wgVmFsaWRhdGVkMRswGQYDVQQLExJHYW5kaSBTdGFuZGFyZCBT
U0wxGDAWBgNVBAMTD2J1Z3MuZGViaWFuLm9yZzCCAaIwDQYJKoZIhvcNAQEBBQAD
ggGPADCCAYoCggGBAKvLhSjGl14uaFvuvk0r+8TG/FOUPZHl5v5oKZv75nEDNwcj
OZ+W7qEVu47aV2tF6BQfz+2mQmLwmpbUhZiP/Wohn9RL2WeXt1cT23/gKIBTRwF8
VulxNBlUz3pRvjrB/bPb4bWkq2bbnrtYYwCtvKzOH8GHpu89Owj9a8e/lLECESfK
6vTZkEfC2sebwHINASziWdYT1OO3AwbzLQbKf0BKVnNoXC46A1Bw6Zl53pQfux95
nE3VvKtep8Va23Z2tBiNrPhktfrhLZ1HaBlHAIVO0oHl9HDUmOFjFRKEKlnvv41X
MzFn3kvJVB7UAme2Lojf5Jorsg5J7X50YDS0+TWk5AB2E7HHz6OmQOH4gRHQoz4F
taB38D0OY8mN1mKly5dlJ6ZjlwGEgH/HG+JTPrT8C2oN5oNMoXmp7NhjtdwAH8VE
MbziEzS2PAj+F50MqpjQ62LkFJNL6FRZOOKm4KHHPS8TRL4xcdpPsFSV32nEdFro
DMgxu41Sx3zjulF7pwIDAQABo4IBtzCCAbMwHwYDVR0jBBgwFoAUs5Cn2MmvTs1h
PJ98rV1/Qf1pMOowHQYDVR0OBBYEFN/Lw7Cve840iTJVrJcsC7LufSDiMA4GA1Ud
DwEB/wQEAwIFoDAMBgNVHRMBAf8EAjAAMB0GA1UdJQQWMBQGCCsGAQUFBwMBBggr
BgEFBQcDAjBLBgNVHSAERDBCMDYGCysGAQQBsjEBAgIaMCcwJQYIKwYBBQUHAgEW
GWh0dHBzOi8vY3BzLnVzZXJ0cnVzdC5jb20wCAYGZ4EMAQIBMEEGA1UdHwQ6MDgw
NqA0oDKGMGh0dHA6Ly9jcmwudXNlcnRydXN0LmNvbS9HYW5kaVN0YW5kYXJkU1NM
Q0EyLmNybDBzBggrBgEFBQcBAQRnMGUwPAYIKwYBBQUHMAKGMGh0dHA6Ly9jcnQu
dXNlcnRydXN0LmNvbS9HYW5kaVN0YW5kYXJkU1NMQ0EyLmNydDAlBggrBgEFBQcw
AYYZaHR0cDovL29jc3AudXNlcnRydXN0LmNvbTAvBgNVHREEKDAmgg9idWdzLmRl
Ymlhbi5vcmeCE3d3dy5idWdzLmRlYmlhbi5vcmcwDQYJKoZIhvcNAQELBQADggEB
AHFMuV4aqPThkLMBYD7LhP2m6e2o31PAdSUGc8+KU55uw71FcmB8ehUFN2xkc1dB
x2oltTUvvrpIM0eRPlu9vmWHZ2g/1aRmy5IZOfZpQBB++If9SAQPcrd9A4ey0+qh
dN5xqxQToAM2L4SJZPB28IJ7gBbtr7nKZLS89QekbeT7Qb5h+FrJxlXdTBo3O77o
eQrJvi1Bd5w+5VpfyyVLoy6exHN3j9yrKzKXyHSiyeZ4oAEHIgQDvsH+5JVf/Zmf
GCvBWb8oALUC//Nf4HI3qY0/tCYdttjMzNKoZAbG837OLgSQLIWpb6V6sXA1wJkw
kp9TZ7psYghrr7VDnuQkIJE=
-----END CERTIFICATE-----
