Certificate:
    Data:
        Version: 3 (0x2)
        Serial Number:
            97:39:9f:11:db:27:d0:a4:d2:2b:c6:21:20:2d:85:3e
    Signature Algorithm: sha1WithRSAEncryption
        Issuer: C=FR, O=GANDI SAS, CN=Gandi Standard SSL CA
        Validity
            Not Before: Jan  7 00:00:00 2014 GMT
            Not After : Jan  7 23:59:59 2015 GMT
        Subject: OU=Domain Control Validated, OU=Gandi Standard SSL, CN=bugs.debian.org
        Subject Public Key Info:
            Public Key Algorithm: rsaEncryption
                Public-Key: (3072 bit)
                Modulus:
                    00:ab:cb:85:28:c6:97:5e:2e:68:5b:ee:be:4d:2b:
                    fb:c4:c6:fc:53:94:3d:91:e5:e6:fe:68:29:9b:fb:
                    e6:71:03:37:07:23:39:9f:96:ee:a1:15:bb:8e:da:
                    57:6b:45:e8:14:1f:cf:ed:a6:42:62:f0:9a:96:d4:
                    85:98:8f:fd:6a:21:9f:d4:4b:d9:67:97:b7:57:13:
                    db:7f:e0:28:80:53:47:01:7c:56:e9:71:34:19:54:
                    cf:7a:51:be:3a:c1:fd:b3:db:e1:b5:a4:ab:66:db:
                    9e:bb:58:63:00:ad:bc:ac:ce:1f:c1:87:a6:ef:3d:
                    3b:08:fd:6b:c7:bf:94:b1:02:11:27:ca:ea:f4:d9:
                    90:47:c2:da:c7:9b:c0:72:0d:01:2c:e2:59:d6:13:
                    d4:e3:b7:03:06:f3:2d:06:ca:7f:40:4a:56:73:68:
                    5c:2e:3a:03:50:70:e9:99:79:de:94:1f:bb:1f:79:
                    9c:4d:d5:bc:ab:5e:a7:c5:5a:db:76:76:b4:18:8d:
                    ac:f8:64:b5:fa:e1:2d:9d:47:68:19:47:00:85:4e:
                    d2:81:e5:f4:70:d4:98:e1:63:15:12:84:2a:59:ef:
                    bf:8d:57:33:31:67:de:4b:c9:54:1e:d4:02:67:b6:
                    2e:88:df:e4:9a:2b:b2:0e:49:ed:7e:74:60:34:b4:
                    f9:35:a4:e4:00:76:13:b1:c7:cf:a3:a6:40:e1:f8:
                    81:11:d0:a3:3e:05:b5:a0:77:f0:3d:0e:63:c9:8d:
                    d6:62:a5:cb:97:65:27:a6:63:97:01:84:80:7f:c7:
                    1b:e2:53:3e:b4:fc:0b:6a:0d:e6:83:4c:a1:79:a9:
                    ec:d8:63:b5:dc:00:1f:c5:44:31:bc:e2:13:34:b6:
                    3c:08:fe:17:9d:0c:aa:98:d0:eb:62:e4:14:93:4b:
                    e8:54:59:38:e2:a6:e0:a1:c7:3d:2f:13:44:be:31:
                    71:da:4f:b0:54:95:df:69:c4:74:5a:e8:0c:c8:31:
                    bb:8d:52:c7:7c:e3:ba:51:7b:a7
                Exponent: 65537 (0x10001)
        X509v3 extensions:
            X509v3 Authority Key Identifier: 
                keyid:B6:A8:FF:A2:A8:2F:D0:A6:CD:4B:B1:68:F3:E7:50:10:31:A7:79:21

            X509v3 Subject Key Identifier: 
                DF:CB:C3:B0:AF:7B:CE:34:89:32:55:AC:97:2C:0B:B2:EE:7D:20:E2
            X509v3 Key Usage: critical
                Digital Signature, Key Encipherment
            X509v3 Basic Constraints: critical
                CA:FALSE
            X509v3 Extended Key Usage: 
                TLS Web Server Authentication, TLS Web Client Authentication
            X509v3 Certificate Policies: 
                Policy: 1.3.6.1.4.1.6449.1.2.2.26
                  CPS: http://www.gandi.net/contracts/fr/ssl/cps/pdf/
                Policy: 2.23.140.1.2.1

            X509v3 CRL Distribution Points: 

                Full Name:
                  URI:http://crl.gandi.net/GandiStandardSSLCA.crl

            Authority Information Access: 
                CA Issuers - URI:http://crt.gandi.net/GandiStandardSSLCA.crt
                OCSP - URI:http://ocsp.gandi.net

            X509v3 Subject Alternative Name: 
                DNS:bugs.debian.org, DNS:www.bugs.debian.org
    Signature Algorithm: sha1WithRSAEncryption
         58:67:eb:b1:a3:af:df:76:97:9f:bc:36:2b:a8:23:30:88:00:
         b6:d7:a6:69:fa:3b:45:87:58:d9:6d:82:ea:ae:de:45:b1:15:
         92:0c:79:60:0b:3e:44:49:cb:ae:c9:0b:ac:31:5f:ee:e7:67:
         a2:74:ae:6f:37:46:db:74:da:07:28:66:d6:1a:6f:65:fc:ef:
         00:60:dc:c6:23:6a:b1:12:da:b8:8d:e7:aa:f6:64:cf:55:6a:
         bd:66:2f:80:e6:9c:21:d3:7c:1d:73:a9:c9:99:59:d9:40:6a:
         2a:f0:df:2d:99:d1:64:91:57:52:3f:31:7a:3b:ad:b4:57:ef:
         a4:8e:be:5d:71:15:c4:d8:a7:76:42:f0:3b:ea:4a:13:b9:3a:
         ad:2c:37:32:b9:ce:bb:08:a1:4a:e7:4b:d4:66:fe:24:7e:57:
         89:2c:0f:7f:ac:84:c7:56:7b:f8:a5:2d:05:9e:09:73:5c:f6:
         c0:b1:91:be:74:0e:93:e6:b3:97:b8:2b:4c:5a:81:c0:90:72:
         e4:5b:56:76:84:41:32:4c:1e:6d:06:66:e9:59:26:ab:35:02:
         e8:fb:e9:f8:77:25:9f:28:57:59:8d:75:8c:f3:a7:aa:79:1a:
         43:b9:b7:45:98:26:0e:09:8b:85:d7:e3:a2:b7:10:5f:c9:c1:
         d7:b3:5e:d0
-----BEGIN CERTIFICATE-----
MIIFZjCCBE6gAwIBAgIRAJc5nxHbJ9Ck0ivGISAthT4wDQYJKoZIhvcNAQEFBQAw
QTELMAkGA1UEBhMCRlIxEjAQBgNVBAoTCUdBTkRJIFNBUzEeMBwGA1UEAxMVR2Fu
ZGkgU3RhbmRhcmQgU1NMIENBMB4XDTE0MDEwNzAwMDAwMFoXDTE1MDEwNzIzNTk1
OVowWjEhMB8GA1UECxMYRG9tYWluIENvbnRyb2wgVmFsaWRhdGVkMRswGQYDVQQL
ExJHYW5kaSBTdGFuZGFyZCBTU0wxGDAWBgNVBAMTD2J1Z3MuZGViaWFuLm9yZzCC
AaIwDQYJKoZIhvcNAQEBBQADggGPADCCAYoCggGBAKvLhSjGl14uaFvuvk0r+8TG
/FOUPZHl5v5oKZv75nEDNwcjOZ+W7qEVu47aV2tF6BQfz+2mQmLwmpbUhZiP/Woh
n9RL2WeXt1cT23/gKIBTRwF8VulxNBlUz3pRvjrB/bPb4bWkq2bbnrtYYwCtvKzO
H8GHpu89Owj9a8e/lLECESfK6vTZkEfC2sebwHINASziWdYT1OO3AwbzLQbKf0BK
VnNoXC46A1Bw6Zl53pQfux95nE3VvKtep8Va23Z2tBiNrPhktfrhLZ1HaBlHAIVO
0oHl9HDUmOFjFRKEKlnvv41XMzFn3kvJVB7UAme2Lojf5Jorsg5J7X50YDS0+TWk
5AB2E7HHz6OmQOH4gRHQoz4FtaB38D0OY8mN1mKly5dlJ6ZjlwGEgH/HG+JTPrT8
C2oN5oNMoXmp7NhjtdwAH8VEMbziEzS2PAj+F50MqpjQ62LkFJNL6FRZOOKm4KHH
PS8TRL4xcdpPsFSV32nEdFroDMgxu41Sx3zjulF7pwIDAQABo4IBvjCCAbowHwYD
VR0jBBgwFoAUtqj/oqgv0KbNS7Fo8+dQEDGneSEwHQYDVR0OBBYEFN/Lw7Cve840
iTJVrJcsC7LufSDiMA4GA1UdDwEB/wQEAwIFoDAMBgNVHRMBAf8EAjAAMB0GA1Ud
JQQWMBQGCCsGAQUFBwMBBggrBgEFBQcDAjBgBgNVHSAEWTBXMEsGCysGAQQBsjEB
AgIaMDwwOgYIKwYBBQUHAgEWLmh0dHA6Ly93d3cuZ2FuZGkubmV0L2NvbnRyYWN0
cy9mci9zc2wvY3BzL3BkZi8wCAYGZ4EMAQIBMDwGA1UdHwQ1MDMwMaAvoC2GK2h0
dHA6Ly9jcmwuZ2FuZGkubmV0L0dhbmRpU3RhbmRhcmRTU0xDQS5jcmwwagYIKwYB
BQUHAQEEXjBcMDcGCCsGAQUFBzAChitodHRwOi8vY3J0LmdhbmRpLm5ldC9HYW5k
aVN0YW5kYXJkU1NMQ0EuY3J0MCEGCCsGAQUFBzABhhVodHRwOi8vb2NzcC5nYW5k
aS5uZXQwLwYDVR0RBCgwJoIPYnVncy5kZWJpYW4ub3JnghN3d3cuYnVncy5kZWJp
YW4ub3JnMA0GCSqGSIb3DQEBBQUAA4IBAQBYZ+uxo6/fdpefvDYrqCMwiAC216Zp
+jtFh1jZbYLqrt5FsRWSDHlgCz5EScuuyQusMV/u52eidK5vN0bbdNoHKGbWGm9l
/O8AYNzGI2qxEtq4jeeq9mTPVWq9Zi+A5pwh03wdc6nJmVnZQGoq8N8tmdFkkVdS
PzF6O620V++kjr5dcRXE2Kd2QvA76koTuTqtLDcyuc67CKFK50vUZv4kfleJLA9/
rITHVnv4pS0FnglzXPbAsZG+dA6T5rOXuCtMWoHAkHLkW1Z2hEEyTB5tBmbpWSar
NQLo++n4dyWfKFdZjXWM86eqeRpDubdFmCYOCYuF1+OitxBfycHXs17Q
-----END CERTIFICATE-----
