Certificate:
    Data:
        Version: 3 (0x2)
        Serial Number:
            e8:3b:f2:37:2b:c5:46:e3:53:5c:56:07:62:19:04:84
    Signature Algorithm: sha1WithRSAEncryption
        Issuer: C=FR, O=GANDI SAS, CN=Gandi Standard SSL CA
        Validity
            Not Before: Feb 10 00:00:00 2014 GMT
            Not After : Feb 10 23:59:59 2015 GMT
        Subject: OU=Domain Control Validated, OU=Gandi Standard SSL, CN=bugs-master.debian.org
        Subject Public Key Info:
            Public Key Algorithm: rsaEncryption
                Public-Key: (3072 bit)
                Modulus:
                    00:d8:01:a7:ff:eb:85:59:62:de:55:35:d4:f5:d9:
                    d9:b4:b7:93:53:3f:76:b1:c5:b1:c6:c1:c5:e4:1b:
                    4e:ab:41:03:98:09:72:08:66:c1:b7:ce:7a:da:2f:
                    75:53:1e:da:db:d3:ad:1d:ff:28:a7:58:ad:57:f0:
                    f7:90:a7:ff:a1:0d:ce:5e:23:ae:96:b5:8f:27:56:
                    7b:72:67:2b:7c:ab:c2:39:14:9a:2c:42:c0:ab:7b:
                    46:fb:f6:bf:7a:73:db:ba:7c:44:62:52:72:90:fd:
                    d8:b6:ce:ea:e8:8c:b8:78:f7:e0:32:c5:b9:e1:1f:
                    c5:84:eb:c3:3f:b5:39:ea:cb:7e:33:35:11:f8:b2:
                    dc:59:4a:d3:d2:a4:78:c0:10:26:33:a4:f2:3b:e0:
                    53:ca:ee:91:60:22:63:84:85:16:92:f3:91:3b:77:
                    e7:c7:57:5d:b7:d7:61:f2:00:f9:66:53:92:80:d2:
                    3f:cf:c4:c8:72:06:bf:60:1e:74:c2:de:21:ca:09:
                    0a:42:7a:3c:44:d6:e7:6d:40:ba:f7:1c:1a:ce:53:
                    5c:bf:ad:2c:d2:14:dc:61:aa:7e:46:30:ce:59:82:
                    f2:f6:64:7a:a7:a9:4d:80:3d:5e:e9:c3:27:88:22:
                    4d:81:58:af:76:35:1e:63:1d:e5:60:bf:e9:b1:d7:
                    ea:86:6b:9a:ab:e6:1e:1f:38:f3:0c:ae:f1:1f:66:
                    5a:fa:22:21:0a:1b:e1:c3:35:b1:9c:a6:2f:ba:5b:
                    a7:f8:4b:fa:2e:0b:08:bf:0e:2f:ae:f7:b0:c5:6e:
                    32:72:ee:66:60:9f:99:8e:1a:cd:dc:c2:ce:19:15:
                    ab:94:b6:c2:b2:7b:b4:a9:12:3e:aa:a4:45:49:d2:
                    f3:8c:3c:c8:d2:84:74:27:3e:c0:41:18:95:ef:b2:
                    97:27:2e:d7:03:db:6c:fb:03:4a:8c:14:44:90:9a:
                    9b:e4:ee:ac:4c:90:e7:9a:1f:b2:35:c7:59:18:c1:
                    29:61:6e:b1:39:d2:bf:03:b7:b1
                Exponent: 65537 (0x10001)
        X509v3 extensions:
            X509v3 Authority Key Identifier: 
                keyid:B6:A8:FF:A2:A8:2F:D0:A6:CD:4B:B1:68:F3:E7:50:10:31:A7:79:21

            X509v3 Subject Key Identifier: 
                09:1A:78:0C:6A:7D:BD:55:05:11:87:87:C8:13:2A:C2:76:E3:69:DC
            X509v3 Key Usage: critical
                Digital Signature, Key Encipherment
            X509v3 Basic Constraints: critical
                CA:FALSE
            X509v3 Extended Key Usage: 
                TLS Web Server Authentication, TLS Web Client Authentication
            X509v3 Certificate Policies: 
                Policy: 1.3.6.1.4.1.6449.1.2.2.26
                  CPS: http://www.gandi.net/contracts/fr/ssl/cps/pdf/
                Policy: 2.23.140.1.2.1

            X509v3 CRL Distribution Points: 

                Full Name:
                  URI:http://crl.gandi.net/GandiStandardSSLCA.crl

            Authority Information Access: 
                CA Issuers - URI:http://crt.gandi.net/GandiStandardSSLCA.crt
                OCSP - URI:http://ocsp.gandi.net

            X509v3 Subject Alternative Name: 
                DNS:bugs-master.debian.org, DNS:www.bugs-master.debian.org
    Signature Algorithm: sha1WithRSAEncryption
         7c:0a:e8:69:23:7e:e3:2c:98:b9:91:4a:82:9c:4f:f7:79:b1:
         18:1a:8d:f0:bc:6a:61:84:77:58:4b:60:f8:0a:b7:54:34:ca:
         32:cf:b6:04:a9:e4:41:1e:f5:61:13:55:ea:05:69:f0:9a:43:
         b4:18:cf:5d:02:fd:14:ba:15:76:d4:53:7c:81:2d:9d:7e:e5:
         68:91:e6:ec:27:79:2d:f1:77:4e:40:b3:9e:87:d7:ff:b5:d8:
         ca:9b:4d:74:b2:6f:45:9c:e7:7e:88:da:90:75:53:1e:e6:9a:
         5b:f0:cf:7f:3f:46:04:e4:51:4a:4f:fc:0f:f6:42:c2:3d:5f:
         40:bf:0f:0f:15:44:0c:b8:cd:a9:a5:56:cd:d1:0d:c2:7a:f4:
         0b:ec:3c:c9:9c:16:02:60:28:4a:c1:09:19:e2:80:8c:7f:4c:
         c5:22:d7:38:e8:36:f9:88:54:c1:bb:39:6f:4c:21:12:ad:6d:
         33:b5:64:8e:6e:58:28:cc:8a:d6:77:00:0e:a3:c7:c3:c8:09:
         2a:fa:9e:fa:25:b2:44:4a:cd:fd:8e:88:91:8f:5b:b8:0d:cd:
         e9:80:0a:95:c9:6d:b4:a4:3a:55:b2:7e:6e:cf:b5:93:00:97:
         c8:1c:90:b7:ab:ab:28:3e:1a:1c:0f:7f:0b:2c:7c:c6:ac:b0:
         95:9c:6d:da
-----BEGIN CERTIFICATE-----
MIIFezCCBGOgAwIBAgIRAOg78jcrxUbjU1xWB2IZBIQwDQYJKoZIhvcNAQEFBQAw
QTELMAkGA1UEBhMCRlIxEjAQBgNVBAoTCUdBTkRJIFNBUzEeMBwGA1UEAxMVR2Fu
ZGkgU3RhbmRhcmQgU1NMIENBMB4XDTE0MDIxMDAwMDAwMFoXDTE1MDIxMDIzNTk1
OVowYTEhMB8GA1UECxMYRG9tYWluIENvbnRyb2wgVmFsaWRhdGVkMRswGQYDVQQL
ExJHYW5kaSBTdGFuZGFyZCBTU0wxHzAdBgNVBAMTFmJ1Z3MtbWFzdGVyLmRlYmlh
bi5vcmcwggGiMA0GCSqGSIb3DQEBAQUAA4IBjwAwggGKAoIBgQDYAaf/64VZYt5V
NdT12dm0t5NTP3axxbHGwcXkG06rQQOYCXIIZsG3znraL3VTHtrb060d/yinWK1X
8PeQp/+hDc5eI66WtY8nVntyZyt8q8I5FJosQsCre0b79r96c9u6fERiUnKQ/di2
zurojLh49+AyxbnhH8WE68M/tTnqy34zNRH4stxZStPSpHjAECYzpPI74FPK7pFg
ImOEhRaS85E7d+fHV12312HyAPlmU5KA0j/PxMhyBr9gHnTC3iHKCQpCejxE1udt
QLr3HBrOU1y/rSzSFNxhqn5GMM5ZgvL2ZHqnqU2APV7pwyeIIk2BWK92NR5jHeVg
v+mx1+qGa5qr5h4fOPMMrvEfZlr6IiEKG+HDNbGcpi+6W6f4S/ouCwi/Di+u97DF
bjJy7mZgn5mOGs3cws4ZFauUtsKye7SpEj6qpEVJ0vOMPMjShHQnPsBBGJXvspcn
LtcD22z7A0qMFESQmpvk7qxMkOeaH7I1x1kYwSlhbrE50r8Dt7ECAwEAAaOCAcww
ggHIMB8GA1UdIwQYMBaAFLao/6KoL9CmzUuxaPPnUBAxp3khMB0GA1UdDgQWBBQJ
GngMan29VQURh4fIEyrCduNp3DAOBgNVHQ8BAf8EBAMCBaAwDAYDVR0TAQH/BAIw
ADAdBgNVHSUEFjAUBggrBgEFBQcDAQYIKwYBBQUHAwIwYAYDVR0gBFkwVzBLBgsr
BgEEAbIxAQICGjA8MDoGCCsGAQUFBwIBFi5odHRwOi8vd3d3LmdhbmRpLm5ldC9j
b250cmFjdHMvZnIvc3NsL2Nwcy9wZGYvMAgGBmeBDAECATA8BgNVHR8ENTAzMDGg
L6AthitodHRwOi8vY3JsLmdhbmRpLm5ldC9HYW5kaVN0YW5kYXJkU1NMQ0EuY3Js
MGoGCCsGAQUFBwEBBF4wXDA3BggrBgEFBQcwAoYraHR0cDovL2NydC5nYW5kaS5u
ZXQvR2FuZGlTdGFuZGFyZFNTTENBLmNydDAhBggrBgEFBQcwAYYVaHR0cDovL29j
c3AuZ2FuZGkubmV0MD0GA1UdEQQ2MDSCFmJ1Z3MtbWFzdGVyLmRlYmlhbi5vcmeC
Gnd3dy5idWdzLW1hc3Rlci5kZWJpYW4ub3JnMA0GCSqGSIb3DQEBBQUAA4IBAQB8
CuhpI37jLJi5kUqCnE/3ebEYGo3wvGphhHdYS2D4CrdUNMoyz7YEqeRBHvVhE1Xq
BWnwmkO0GM9dAv0UuhV21FN8gS2dfuVokebsJ3kt8XdOQLOeh9f/tdjKm010sm9F
nOd+iNqQdVMe5ppb8M9/P0YE5FFKT/wP9kLCPV9Avw8PFUQMuM2ppVbN0Q3CevQL
7DzJnBYCYChKwQkZ4oCMf0zFItc46Db5iFTBuzlvTCESrW0ztWSOblgozIrWdwAO
o8fDyAkq+p76JbJESs39joiRj1u4Dc3pgAqVyW20pDpVsn5uz7WTAJfIHJC3q6so
PhocD38LLHzGrLCVnG3a
-----END CERTIFICATE-----
