Certificate:
    Data:
        Version: 3 (0x2)
        Serial Number:
            69:6d:1a:3d:3b:1f:57:29:33:b5:e0:e9:d1:90:ae:f3
    Signature Algorithm: sha1WithRSAEncryption
        Issuer: C=FR, O=GANDI SAS, CN=Gandi Standard SSL CA
        Validity
            Not Before: Dec 31 00:00:00 2013 GMT
            Not After : Dec 31 23:59:59 2014 GMT
        Subject: OU=Domain Control Validated, OU=Gandi Standard SSL, CN=buildd.debian.org
        Subject Public Key Info:
            Public Key Algorithm: rsaEncryption
                Public-Key: (3072 bit)
                Modulus:
                    00:d4:e0:c1:e7:6f:e0:ce:ee:71:cd:7e:b3:1d:88:
                    50:3b:4b:44:7b:04:cf:0c:9f:9e:37:31:a6:9b:45:
                    4d:f0:c8:6b:ba:4d:99:98:e1:c1:d1:6d:3b:7b:52:
                    76:c2:4c:20:11:3e:19:1d:29:6f:46:9b:aa:02:05:
                    40:a2:9b:7b:4a:17:27:0d:ff:2e:d1:17:dd:b3:d2:
                    0d:28:f4:b0:0f:2f:8b:e2:9b:94:8e:f7:42:57:4b:
                    55:43:8a:ee:5e:bc:5e:ae:fb:d7:ef:ce:ae:c3:88:
                    a5:2a:ec:af:95:a9:e5:e0:d7:a6:6b:31:98:36:8b:
                    ac:da:cd:2b:10:44:bd:be:eb:55:22:83:35:98:e8:
                    7f:f3:38:30:6e:84:0b:17:09:64:9f:09:f5:5f:c6:
                    98:03:6d:1e:61:85:5e:bf:6f:47:be:ae:42:c6:83:
                    6a:94:42:2f:1a:42:9e:37:5e:33:bb:14:87:20:dc:
                    e1:eb:33:20:65:db:94:57:21:9c:17:f2:37:83:4d:
                    6f:e0:54:c1:23:4b:56:83:4c:81:05:e9:65:ea:37:
                    98:db:2d:c5:3a:13:c9:5d:e5:4a:99:3a:b2:2a:0b:
                    b5:25:42:6e:9d:45:95:8f:8f:d0:86:d5:46:7f:6b:
                    a8:04:10:5c:3a:46:96:b6:de:94:44:e1:cd:e3:92:
                    d6:cf:fa:4e:ea:c7:da:64:25:67:92:ed:2b:5d:42:
                    cd:3c:2c:0c:74:8d:2e:53:6a:e0:61:6c:46:fc:be:
                    16:e4:6f:7d:e9:6a:01:10:08:6b:4b:f0:f6:e6:d1:
                    83:72:08:9f:df:56:e1:86:ba:27:cc:e4:75:8b:2e:
                    a7:a7:46:ad:db:25:5e:a3:35:b0:62:14:9e:10:5f:
                    ff:da:1f:cf:f4:01:17:12:9e:ef:81:5c:9d:51:02:
                    46:08:f2:4a:d0:4e:7e:24:ef:d4:79:97:b8:35:9e:
                    4f:57:59:fd:3d:b3:1f:94:79:2c:d5:ee:85:4d:07:
                    e3:84:c3:01:6a:3c:f8:17:e1:cd
                Exponent: 65537 (0x10001)
        X509v3 extensions:
            X509v3 Authority Key Identifier: 
                keyid:B6:A8:FF:A2:A8:2F:D0:A6:CD:4B:B1:68:F3:E7:50:10:31:A7:79:21

            X509v3 Subject Key Identifier: 
                3A:84:A3:24:6A:49:E9:C8:E1:60:F8:13:73:06:49:2F:24:A3:C0:F6
            X509v3 Key Usage: critical
                Digital Signature, Key Encipherment
            X509v3 Basic Constraints: critical
                CA:FALSE
            X509v3 Extended Key Usage: 
                TLS Web Server Authentication, TLS Web Client Authentication
            X509v3 Certificate Policies: 
                Policy: 1.3.6.1.4.1.6449.1.2.2.26
                  CPS: http://www.gandi.net/contracts/fr/ssl/cps/pdf/
                Policy: 2.23.140.1.2.1

            X509v3 CRL Distribution Points: 

                Full Name:
                  URI:http://crl.gandi.net/GandiStandardSSLCA.crl

            Authority Information Access: 
                CA Issuers - URI:http://crt.gandi.net/GandiStandardSSLCA.crt
                OCSP - URI:http://ocsp.gandi.net

            X509v3 Subject Alternative Name: 
                DNS:buildd.debian.org, DNS:www.buildd.debian.org
    Signature Algorithm: sha1WithRSAEncryption
         0d:56:6e:f3:f8:58:96:99:e1:79:e4:55:f7:32:d9:be:90:a4:
         39:82:50:47:06:cb:1c:49:af:42:ae:4c:2b:bf:42:8d:6f:d2:
         cf:76:ed:e4:71:8f:2a:35:9f:bd:b4:c1:5b:3d:f4:dd:5b:20:
         4a:cd:89:d5:9b:3a:15:fe:c0:e9:87:ae:de:3e:8c:20:26:c8:
         0a:4b:1f:58:8a:8c:87:e8:5f:f0:6b:5b:96:cf:6c:01:b1:d0:
         9a:47:ab:87:a3:fe:3d:90:a1:3f:9c:ba:7d:29:0c:ff:01:76:
         ba:9e:36:5f:c9:dd:a9:e8:be:39:5d:96:fa:0c:75:c7:78:48:
         56:50:0d:f1:af:ae:ad:e9:d3:10:6c:79:85:d5:5d:75:4c:36:
         c0:48:ca:89:94:5e:f4:af:f9:e1:aa:84:43:84:15:50:d5:3e:
         2e:84:b5:95:b3:9f:c2:b2:83:a0:2c:9c:93:9b:32:27:40:d6:
         4a:0f:1c:80:f8:c6:36:ad:dc:34:de:1e:a5:f1:98:9b:cd:31:
         2b:1c:52:92:4f:2b:82:15:48:b4:8e:a3:04:49:de:31:89:bf:
         5a:52:79:33:ff:62:83:42:8b:4b:ba:b7:1f:7e:b1:72:70:7b:
         20:35:79:87:9b:f4:0e:b1:0f:5f:19:57:b3:2e:a1:d3:37:18:
         9a:b0:08:0e
-----BEGIN CERTIFICATE-----
MIIFazCCBFOgAwIBAgIQaW0aPTsfVykzteDp0ZCu8zANBgkqhkiG9w0BAQUFADBB
MQswCQYDVQQGEwJGUjESMBAGA1UEChMJR0FOREkgU0FTMR4wHAYDVQQDExVHYW5k
aSBTdGFuZGFyZCBTU0wgQ0EwHhcNMTMxMjMxMDAwMDAwWhcNMTQxMjMxMjM1OTU5
WjBcMSEwHwYDVQQLExhEb21haW4gQ29udHJvbCBWYWxpZGF0ZWQxGzAZBgNVBAsT
EkdhbmRpIFN0YW5kYXJkIFNTTDEaMBgGA1UEAxMRYnVpbGRkLmRlYmlhbi5vcmcw
ggGiMA0GCSqGSIb3DQEBAQUAA4IBjwAwggGKAoIBgQDU4MHnb+DO7nHNfrMdiFA7
S0R7BM8Mn543MaabRU3wyGu6TZmY4cHRbTt7UnbCTCARPhkdKW9Gm6oCBUCim3tK
FycN/y7RF92z0g0o9LAPL4vim5SO90JXS1VDiu5evF6u+9fvzq7DiKUq7K+VqeXg
16ZrMZg2i6zazSsQRL2+61UigzWY6H/zODBuhAsXCWSfCfVfxpgDbR5hhV6/b0e+
rkLGg2qUQi8aQp43XjO7FIcg3OHrMyBl25RXIZwX8jeDTW/gVMEjS1aDTIEF6WXq
N5jbLcU6E8ld5UqZOrIqC7UlQm6dRZWPj9CG1UZ/a6gEEFw6Rpa23pRE4c3jktbP
+k7qx9pkJWeS7StdQs08LAx0jS5TauBhbEb8vhbkb33pagEQCGtL8Pbm0YNyCJ/f
VuGGuifM5HWLLqenRq3bJV6jNbBiFJ4QX//aH8/0ARcSnu+BXJ1RAkYI8krQTn4k
79R5l7g1nk9XWf09sx+UeSzV7oVNB+OEwwFqPPgX4c0CAwEAAaOCAcIwggG+MB8G
A1UdIwQYMBaAFLao/6KoL9CmzUuxaPPnUBAxp3khMB0GA1UdDgQWBBQ6hKMkaknp
yOFg+BNzBkkvJKPA9jAOBgNVHQ8BAf8EBAMCBaAwDAYDVR0TAQH/BAIwADAdBgNV
HSUEFjAUBggrBgEFBQcDAQYIKwYBBQUHAwIwYAYDVR0gBFkwVzBLBgsrBgEEAbIx
AQICGjA8MDoGCCsGAQUFBwIBFi5odHRwOi8vd3d3LmdhbmRpLm5ldC9jb250cmFj
dHMvZnIvc3NsL2Nwcy9wZGYvMAgGBmeBDAECATA8BgNVHR8ENTAzMDGgL6Athito
dHRwOi8vY3JsLmdhbmRpLm5ldC9HYW5kaVN0YW5kYXJkU1NMQ0EuY3JsMGoGCCsG
AQUFBwEBBF4wXDA3BggrBgEFBQcwAoYraHR0cDovL2NydC5nYW5kaS5uZXQvR2Fu
ZGlTdGFuZGFyZFNTTENBLmNydDAhBggrBgEFBQcwAYYVaHR0cDovL29jc3AuZ2Fu
ZGkubmV0MDMGA1UdEQQsMCqCEWJ1aWxkZC5kZWJpYW4ub3JnghV3d3cuYnVpbGRk
LmRlYmlhbi5vcmcwDQYJKoZIhvcNAQEFBQADggEBAA1WbvP4WJaZ4XnkVfcy2b6Q
pDmCUEcGyxxJr0KuTCu/Qo1v0s927eRxjyo1n720wVs99N1bIErNidWbOhX+wOmH
rt4+jCAmyApLH1iKjIfoX/BrW5bPbAGx0JpHq4ej/j2QoT+cun0pDP8BdrqeNl/J
3anovjldlvoMdcd4SFZQDfGvrq3p0xBseYXVXXVMNsBIyomUXvSv+eGqhEOEFVDV
Pi6EtZWzn8Kyg6AsnJObMidA1koPHID4xjat3DTeHqXxmJvNMSscUpJPK4IVSLSO
owRJ3jGJv1pSeTP/YoNCi0u6tx9+sXJweyA1eYeb9A6xD18ZV7MuodM3GJqwCA4=
-----END CERTIFICATE-----
