Certificate:
    Data:
        Version: 3 (0x2)
        Serial Number:
            31:20:9c:58:9e:12:ae:76:75:55:2d:ab:f9:da:c3:dd
    Signature Algorithm: sha256WithRSAEncryption
        Issuer: C=FR, ST=Paris, L=Paris, O=Gandi, CN=Gandi Standard SSL CA 2
        Validity
            Not Before: Dec 16 00:00:00 2014 GMT
            Not After : Dec 31 23:59:59 2015 GMT
        Subject: OU=Domain Control Validated, OU=Gandi Standard SSL, CN=buildd.debian.org
        Subject Public Key Info:
            Public Key Algorithm: rsaEncryption
                Public-Key: (3072 bit)
                Modulus:
                    00:d4:e0:c1:e7:6f:e0:ce:ee:71:cd:7e:b3:1d:88:
                    50:3b:4b:44:7b:04:cf:0c:9f:9e:37:31:a6:9b:45:
                    4d:f0:c8:6b:ba:4d:99:98:e1:c1:d1:6d:3b:7b:52:
                    76:c2:4c:20:11:3e:19:1d:29:6f:46:9b:aa:02:05:
                    40:a2:9b:7b:4a:17:27:0d:ff:2e:d1:17:dd:b3:d2:
                    0d:28:f4:b0:0f:2f:8b:e2:9b:94:8e:f7:42:57:4b:
                    55:43:8a:ee:5e:bc:5e:ae:fb:d7:ef:ce:ae:c3:88:
                    a5:2a:ec:af:95:a9:e5:e0:d7:a6:6b:31:98:36:8b:
                    ac:da:cd:2b:10:44:bd:be:eb:55:22:83:35:98:e8:
                    7f:f3:38:30:6e:84:0b:17:09:64:9f:09:f5:5f:c6:
                    98:03:6d:1e:61:85:5e:bf:6f:47:be:ae:42:c6:83:
                    6a:94:42:2f:1a:42:9e:37:5e:33:bb:14:87:20:dc:
                    e1:eb:33:20:65:db:94:57:21:9c:17:f2:37:83:4d:
                    6f:e0:54:c1:23:4b:56:83:4c:81:05:e9:65:ea:37:
                    98:db:2d:c5:3a:13:c9:5d:e5:4a:99:3a:b2:2a:0b:
                    b5:25:42:6e:9d:45:95:8f:8f:d0:86:d5:46:7f:6b:
                    a8:04:10:5c:3a:46:96:b6:de:94:44:e1:cd:e3:92:
                    d6:cf:fa:4e:ea:c7:da:64:25:67:92:ed:2b:5d:42:
                    cd:3c:2c:0c:74:8d:2e:53:6a:e0:61:6c:46:fc:be:
                    16:e4:6f:7d:e9:6a:01:10:08:6b:4b:f0:f6:e6:d1:
                    83:72:08:9f:df:56:e1:86:ba:27:cc:e4:75:8b:2e:
                    a7:a7:46:ad:db:25:5e:a3:35:b0:62:14:9e:10:5f:
                    ff:da:1f:cf:f4:01:17:12:9e:ef:81:5c:9d:51:02:
                    46:08:f2:4a:d0:4e:7e:24:ef:d4:79:97:b8:35:9e:
                    4f:57:59:fd:3d:b3:1f:94:79:2c:d5:ee:85:4d:07:
                    e3:84:c3:01:6a:3c:f8:17:e1:cd
                Exponent: 65537 (0x10001)
        X509v3 extensions:
            X509v3 Authority Key Identifier: 
                keyid:B3:90:A7:D8:C9:AF:4E:CD:61:3C:9F:7C:AD:5D:7F:41:FD:69:30:EA

            X509v3 Subject Key Identifier: 
                3A:84:A3:24:6A:49:E9:C8:E1:60:F8:13:73:06:49:2F:24:A3:C0:F6
            X509v3 Key Usage: critical
                Digital Signature, Key Encipherment
            X509v3 Basic Constraints: critical
                CA:FALSE
            X509v3 Extended Key Usage: 
                TLS Web Server Authentication, TLS Web Client Authentication
            X509v3 Certificate Policies: 
                Policy: 1.3.6.1.4.1.6449.1.2.2.26
                  CPS: https://cps.usertrust.com
                Policy: 2.23.140.1.2.1

            X509v3 CRL Distribution Points: 

                Full Name:
                  URI:http://crl.usertrust.com/GandiStandardSSLCA2.crl

            Authority Information Access: 
                CA Issuers - URI:http://crt.usertrust.com/GandiStandardSSLCA2.crt
                OCSP - URI:http://ocsp.usertrust.com

            X509v3 Subject Alternative Name: 
                DNS:buildd.debian.org, DNS:www.buildd.debian.org
    Signature Algorithm: sha256WithRSAEncryption
         39:42:3b:94:3d:65:c0:19:74:22:24:70:11:95:ec:0e:e5:f7:
         c3:50:05:20:d6:95:07:72:f6:b2:c5:75:fa:69:d7:1d:a5:22:
         19:9b:54:74:42:8c:71:59:4a:3b:de:b6:03:fe:09:91:dc:49:
         b5:31:ba:b0:2b:72:17:cf:4a:1d:46:98:e0:7d:e7:f7:50:ac:
         d3:dc:32:d5:8a:61:5f:5a:7a:c7:2a:30:2f:31:ba:5d:f5:d9:
         fa:01:bd:d6:d6:40:ec:cc:7f:c8:d1:d6:a0:4e:20:0e:1b:71:
         68:3d:61:ea:aa:a3:b5:e9:b0:fb:20:08:a6:4a:7e:e2:47:0f:
         45:2b:ec:58:2c:7e:60:c5:ca:b7:33:70:61:1c:97:d5:2e:c6:
         0c:30:81:e1:d1:85:c0:18:2b:60:93:77:7d:11:e6:12:b6:8c:
         cd:8d:c2:12:00:46:f9:5e:4d:d7:e0:fd:07:87:89:b8:5e:78:
         fa:f5:00:89:92:6a:b6:db:31:43:eb:fc:ae:17:6e:14:b9:e5:
         f8:3d:a8:28:08:9d:0c:2e:42:81:8a:cc:1a:ef:24:50:37:06:
         9f:66:04:61:21:79:a6:17:84:56:04:d4:50:41:dc:a3:c1:77:
         52:b5:8b:e2:83:dd:1a:af:7f:15:e3:78:4d:ed:25:1a:1a:4c:
         65:1b:cb:be
-----BEGIN CERTIFICATE-----
MIIFgjCCBGqgAwIBAgIQMSCcWJ4SrnZ1VS2r+drD3TANBgkqhkiG9w0BAQsFADBf
MQswCQYDVQQGEwJGUjEOMAwGA1UECBMFUGFyaXMxDjAMBgNVBAcTBVBhcmlzMQ4w
DAYDVQQKEwVHYW5kaTEgMB4GA1UEAxMXR2FuZGkgU3RhbmRhcmQgU1NMIENBIDIw
HhcNMTQxMjE2MDAwMDAwWhcNMTUxMjMxMjM1OTU5WjBcMSEwHwYDVQQLExhEb21h
aW4gQ29udHJvbCBWYWxpZGF0ZWQxGzAZBgNVBAsTEkdhbmRpIFN0YW5kYXJkIFNT
TDEaMBgGA1UEAxMRYnVpbGRkLmRlYmlhbi5vcmcwggGiMA0GCSqGSIb3DQEBAQUA
A4IBjwAwggGKAoIBgQDU4MHnb+DO7nHNfrMdiFA7S0R7BM8Mn543MaabRU3wyGu6
TZmY4cHRbTt7UnbCTCARPhkdKW9Gm6oCBUCim3tKFycN/y7RF92z0g0o9LAPL4vi
m5SO90JXS1VDiu5evF6u+9fvzq7DiKUq7K+VqeXg16ZrMZg2i6zazSsQRL2+61Ui
gzWY6H/zODBuhAsXCWSfCfVfxpgDbR5hhV6/b0e+rkLGg2qUQi8aQp43XjO7FIcg
3OHrMyBl25RXIZwX8jeDTW/gVMEjS1aDTIEF6WXqN5jbLcU6E8ld5UqZOrIqC7Ul
Qm6dRZWPj9CG1UZ/a6gEEFw6Rpa23pRE4c3jktbP+k7qx9pkJWeS7StdQs08LAx0
jS5TauBhbEb8vhbkb33pagEQCGtL8Pbm0YNyCJ/fVuGGuifM5HWLLqenRq3bJV6j
NbBiFJ4QX//aH8/0ARcSnu+BXJ1RAkYI8krQTn4k79R5l7g1nk9XWf09sx+UeSzV
7oVNB+OEwwFqPPgX4c0CAwEAAaOCAbswggG3MB8GA1UdIwQYMBaAFLOQp9jJr07N
YTyffK1df0H9aTDqMB0GA1UdDgQWBBQ6hKMkaknpyOFg+BNzBkkvJKPA9jAOBgNV
HQ8BAf8EBAMCBaAwDAYDVR0TAQH/BAIwADAdBgNVHSUEFjAUBggrBgEFBQcDAQYI
KwYBBQUHAwIwSwYDVR0gBEQwQjA2BgsrBgEEAbIxAQICGjAnMCUGCCsGAQUFBwIB
FhlodHRwczovL2Nwcy51c2VydHJ1c3QuY29tMAgGBmeBDAECATBBBgNVHR8EOjA4
MDagNKAyhjBodHRwOi8vY3JsLnVzZXJ0cnVzdC5jb20vR2FuZGlTdGFuZGFyZFNT
TENBMi5jcmwwcwYIKwYBBQUHAQEEZzBlMDwGCCsGAQUFBzAChjBodHRwOi8vY3J0
LnVzZXJ0cnVzdC5jb20vR2FuZGlTdGFuZGFyZFNTTENBMi5jcnQwJQYIKwYBBQUH
MAGGGWh0dHA6Ly9vY3NwLnVzZXJ0cnVzdC5jb20wMwYDVR0RBCwwKoIRYnVpbGRk
LmRlYmlhbi5vcmeCFXd3dy5idWlsZGQuZGViaWFuLm9yZzANBgkqhkiG9w0BAQsF
AAOCAQEAOUI7lD1lwBl0IiRwEZXsDuX3w1AFINaVB3L2ssV1+mnXHaUiGZtUdEKM
cVlKO962A/4JkdxJtTG6sCtyF89KHUaY4H3n91Cs09wy1YphX1p6xyowLzG6XfXZ
+gG91tZA7Mx/yNHWoE4gDhtxaD1h6qqjtemw+yAIpkp+4kcPRSvsWCx+YMXKtzNw
YRyX1S7GDDCB4dGFwBgrYJN3fRHmEraMzY3CEgBG+V5N1+D9B4eJuF54+vUAiZJq
ttsxQ+v8rhduFLnl+D2oKAidDC5CgYrMGu8kUDcGn2YEYSF5pheEVgTUUEHco8F3
UrWL4oPdGq9/FeN4Te0lGhpMZRvLvg==
-----END CERTIFICATE-----
