Certificate:
    Data:
        Version: 3 (0x2)
        Serial Number: 91 (0x5b)
        Signature Algorithm: sha1WithRSAEncryption
        Issuer: O=Debian, CN=ca.debian.org/emailAddress=debian-admin@debian.org
        Validity
            Not Before: Jan 16 12:46:52 2013 GMT
            Not After : Jan 16 12:46:52 2014 GMT
        Subject: O=Debian, CN=buildd.debian.org/emailAddress=debian-admin@debian.org
        Subject Public Key Info:
            Public Key Algorithm: rsaEncryption
            RSA Public Key: (2048 bit)
                Modulus (2048 bit):
                    00:f4:f4:7e:67:77:ff:18:9c:7c:75:30:15:a0:14:
                    34:e9:52:76:74:6d:17:86:ef:54:0b:db:7a:5d:56:
                    95:36:30:9c:65:d2:46:cc:67:a6:09:bf:1b:fa:fe:
                    ee:53:7b:71:a5:4a:9d:b7:d9:a8:6b:0d:3b:25:d4:
                    60:e2:d4:ad:11:c5:df:29:70:e4:47:82:42:9e:cf:
                    48:b8:8f:f6:3a:52:95:f2:5f:ac:ee:bf:ae:7e:7e:
                    65:25:d6:59:d3:d3:30:02:f3:bb:12:94:cc:9d:8e:
                    3d:af:cc:b8:8d:66:ba:2b:4b:71:d3:b0:e8:40:55:
                    69:17:68:24:f5:6c:a3:d0:97:17:e6:4d:52:f8:bd:
                    8b:2a:9a:5f:87:a1:ef:95:00:ba:da:2f:5c:b6:bd:
                    99:a8:30:79:f7:01:f0:45:d2:a5:37:85:19:68:a7:
                    3f:ee:ac:b9:04:6b:b4:ad:5c:57:be:f3:6f:ae:92:
                    d9:02:ec:cb:7d:e9:42:99:67:d3:cf:ca:0e:d8:18:
                    eb:0b:8a:b7:ca:94:02:cb:bf:92:d7:73:6c:aa:8f:
                    be:ea:89:c7:fc:fa:d6:fb:e7:83:e5:db:9b:79:ab:
                    80:16:c1:05:b9:70:0e:93:00:ab:f3:71:19:7d:e0:
                    9f:d8:b2:23:55:99:5b:53:d2:fd:e6:67:b0:01:9e:
                    05:11
                Exponent: 65537 (0x10001)
        X509v3 extensions:
            X509v3 Basic Constraints: 
                CA:FALSE
            X509v3 Subject Key Identifier: 
                E7:06:D6:09:BB:E9:58:F1:F8:63:F8:23:6F:B8:58:AC:D0:19:C6:89
            X509v3 Authority Key Identifier: 
                keyid:A7:CF:4B:FA:5F:12:C6:23:74:2E:9E:A3:95:90:75:8C:CC:26:76:96
                DirName:/C=US/ST=Indiana/L=Indianapolis/O=Software in the Public Interest/OU=hostmaster/CN=Certificate Authority/emailAddress=hostmaster@spi-inc.org
                serial:03

    Signature Algorithm: sha1WithRSAEncryption
        82:f5:2e:75:1d:4c:8e:25:bb:77:47:cb:67:08:94:db:3d:7f:
        fa:1d:41:e0:1a:6e:39:e1:7f:1d:a4:a7:dd:df:73:85:de:ce:
        a8:f8:8f:51:0c:e7:f5:65:18:a9:77:dd:63:96:69:a1:75:99:
        6a:8c:3e:56:98:00:26:95:33:9f:0b:19:00:4c:2e:57:19:b2:
        a3:73:2d:ae:64:4c:d1:2f:e5:d7:31:ee:f1:83:32:2d:3c:fe:
        24:3e:03:d8:85:ff:3b:b4:10:3b:1e:0c:e9:80:2b:00:b3:d4:
        33:00:cd:7f:a9:fe:67:08:8d:dc:8f:ce:6c:61:ed:91:c4:1f:
        16:11:98:6e:57:bf:4b:2b:42:74:b9:2a:33:57:11:8a:ad:50:
        d7:62:2f:e8:4b:8f:aa:79:a6:14:4b:54:86:06:9c:8d:23:ae:
        2d:61:a7:87:24:66:cc:14:2d:46:9c:65:e7:72:de:e2:12:2f:
        e3:5c:ac:41:84:c5:24:73:6a:e7:69:8e:62:bd:1b:67:40:d9:
        aa:2d:03:a4:e6:87:55:0c:cf:ca:30:35:7e:38:b1:65:70:c0:
        20:d3:f6:c1:e3:46:30:1b:a1:76:f0:02:ff:18:6f:f9:22:09:
        1f:c5:2c:63:28:1f:e1:7d:f5:37:76:24:79:b2:01:41:f4:33:
        4a:65:2f:13:63:98:04:c2:a3:4f:31:12:3d:f6:0f:de:b1:5b:
        0d:07:d3:49:d3:02:2b:66:25:29:2d:76:d7:e9:e8:81:ca:80:
        d1:05:a2:f0:09:2b:66:1d:36:bf:d1:e3:b5:86:0a:8b:b5:c8:
        93:c4:ec:24:78:a1:cc:0b:e8:68:96:d9:0e:31:5e:22:f2:f2:
        b7:40:9c:0e:5a:4a:f9:0c:5a:cf:e7:a5:12:0a:0d:03:e1:7d:
        c8:a9:af:0e:ff:df:98:15:86:da:2b:f3:a2:34:06:6b:08:d4:
        f2:6b:39:4f:c1:ec:1e:6d:40:fd:93:48:12:e2:fe:67:be:41:
        53:62:81:db:38:87:95:4a:92:da:01:0d:f1:67:a8:c4:91:01:
        8f:0c:d7:08:c4:4f:26:1e:43:08:dd:9e:d3:a9:db:b9:b6:2c:
        ff:ea:06:c5:58:ca:32:27:24:63:21:cc:2a:fb:f4:f4:3f:5f:
        e3:52:a9:1c:6a:b4:70:2d:6a:2e:5d:1d:41:31:00:8b:23:4f:
        1f:27:e2:74:a7:c3:a9:b8:7f:a9:c4:6e:0f:d2:45:14:e0:a2:
        50:9d:8d:5a:66:ce:7c:94:4d:f5:7e:da:51:8a:79:d9:4f:73:
        3c:ca:64:ab:7f:4a:fe:9c:76:f4:94:bf:8d:8b:2b:ef:51:54:
        9b:e4:de:09:83:bf:54:10
-----BEGIN CERTIFICATE-----
MIIFPTCCAyWgAwIBAgIBWzANBgkqhkiG9w0BAQUFADBRMQ8wDQYDVQQKEwZEZWJp
YW4xFjAUBgNVBAMTDWNhLmRlYmlhbi5vcmcxJjAkBgkqhkiG9w0BCQEWF2RlYmlh
bi1hZG1pbkBkZWJpYW4ub3JnMB4XDTEzMDExNjEyNDY1MloXDTE0MDExNjEyNDY1
MlowVTEPMA0GA1UEChMGRGViaWFuMRowGAYDVQQDExFidWlsZGQuZGViaWFuLm9y
ZzEmMCQGCSqGSIb3DQEJARYXZGViaWFuLWFkbWluQGRlYmlhbi5vcmcwggEiMA0G
CSqGSIb3DQEBAQUAA4IBDwAwggEKAoIBAQD09H5nd/8YnHx1MBWgFDTpUnZ0bReG
71QL23pdVpU2MJxl0kbMZ6YJvxv6/u5Te3GlSp232ahrDTsl1GDi1K0Rxd8pcORH
gkKez0i4j/Y6UpXyX6zuv65+fmUl1lnT0zAC87sSlMydjj2vzLiNZrorS3HTsOhA
VWkXaCT1bKPQlxfmTVL4vYsqml+Hoe+VALraL1y2vZmoMHn3AfBF0qU3hRlopz/u
rLkEa7StXFe+82+uktkC7Mt96UKZZ9PPyg7YGOsLirfKlALLv5LXc2yqj77qicf8
+tb754Pl25t5q4AWwQW5cA6TAKvzcRl94J/YsiNVmVtT0v3mZ7ABngURAgMBAAGj
ggEaMIIBFjAJBgNVHRMEAjAAMB0GA1UdDgQWBBTnBtYJu+lY8fhj+CNvuFis0BnG
iTCB6QYDVR0jBIHhMIHegBSnz0v6XxLGI3QunqOVkHWMzCZ2lqGBwqSBvzCBvDEL
MAkGA1UEBhMCVVMxEDAOBgNVBAgTB0luZGlhbmExFTATBgNVBAcTDEluZGlhbmFw
b2xpczEoMCYGA1UEChMfU29mdHdhcmUgaW4gdGhlIFB1YmxpYyBJbnRlcmVzdDET
MBEGA1UECxMKaG9zdG1hc3RlcjEeMBwGA1UEAxMVQ2VydGlmaWNhdGUgQXV0aG9y
aXR5MSUwIwYJKoZIhvcNAQkBFhZob3N0bWFzdGVyQHNwaS1pbmMub3JnggEDMA0G
CSqGSIb3DQEBBQUAA4ICAQCC9S51HUyOJbt3R8tnCJTbPX/6HUHgGm454X8dpKfd
33OF3s6o+I9RDOf1ZRipd91jlmmhdZlqjD5WmAAmlTOfCxkATC5XGbKjcy2uZEzR
L+XXMe7xgzItPP4kPgPYhf87tBA7HgzpgCsAs9QzAM1/qf5nCI3cj85sYe2RxB8W
EZhuV79LK0J0uSozVxGKrVDXYi/oS4+qeaYUS1SGBpyNI64tYaeHJGbMFC1GnGXn
ct7iEi/jXKxBhMUkc2rnaY5ivRtnQNmqLQOk5odVDM/KMDV+OLFlcMAg0/bB40Yw
G6F28AL/GG/5IgkfxSxjKB/hffU3diR5sgFB9DNKZS8TY5gEwqNPMRI99g/esVsN
B9NJ0wIrZiUpLXbX6eiByoDRBaLwCStmHTa/0eO1hgqLtciTxOwkeKHMC+holtkO
MV4i8vK3QJwOWkr5DFrP56USCg0D4X3Iqa8O/9+YFYbaK/OiNAZrCNTyazlPwewe
bUD9k0gS4v5nvkFTYoHbOIeVSpLaAQ3xZ6jEkQGPDNcIxE8mHkMI3Z7Tqdu5tiz/
6gbFWMoyJyRjIcwq+/T0P1/jUqkcarRwLWouXR1BMQCLI08fJ+J0p8OpuH+pxG4P
0kUU4KJQnY1aZs58lE31ftpRinnZT3M8ymSrf0r+nHb0lL+NiyvvUVSb5N4Jg79U
EA==
-----END CERTIFICATE-----
