Certificate:
    Data:
        Version: 3 (0x2)
        Serial Number:
            e5:c6:a9:c0:16:5b:32:5e:65:a1:3d:28:60:c0:cf:2c
    Signature Algorithm: sha1WithRSAEncryption
        Issuer: C=FR, O=GANDI SAS, CN=Gandi Standard SSL CA
        Validity
            Not Before: Dec 31 00:00:00 2013 GMT
            Not After : Dec 31 23:59:59 2014 GMT
        Subject: OU=Domain Control Validated, OU=Gandi Standard SSL, CN=contributors.debian.org
        Subject Public Key Info:
            Public Key Algorithm: rsaEncryption
                Public-Key: (2048 bit)
                Modulus:
                    00:bf:ea:58:30:2f:27:69:27:93:b6:8a:59:f2:0e:
                    e1:57:d6:54:ea:fa:d9:4b:c8:2f:1d:7a:9f:d2:57:
                    f7:36:29:ae:df:c3:68:eb:b8:52:b5:57:ef:ec:e4:
                    e9:40:04:8f:be:98:e3:52:d0:69:09:30:b5:54:90:
                    45:13:c6:22:b3:18:94:53:38:f3:97:be:31:f1:07:
                    c6:96:11:bd:01:19:f9:44:38:79:dd:bf:ed:aa:f0:
                    22:89:9e:1f:24:0b:49:52:1a:a4:b6:6d:c8:d1:86:
                    a4:e3:6c:7b:62:8d:ee:83:bf:01:fb:b9:f2:dd:9d:
                    0d:15:49:86:8f:cc:84:00:3b:b3:6c:6e:bf:67:79:
                    dd:df:13:fb:26:c9:54:9f:c7:96:e3:18:85:6b:29:
                    53:e5:ac:a5:dc:55:4e:b4:a3:a2:51:2d:49:20:95:
                    1d:52:76:7d:4e:69:fc:78:c7:9e:b0:36:39:fd:6c:
                    66:24:1f:2d:ab:25:4f:60:84:a4:5d:f5:12:7d:b4:
                    08:02:cc:d0:9c:a8:c3:23:32:15:63:c9:50:17:d7:
                    33:84:b4:1a:15:a6:b1:94:19:8d:f1:6c:f3:b1:85:
                    fa:f6:5d:2e:85:25:93:6c:9f:d5:ae:5b:c8:9c:8a:
                    6f:a8:3e:aa:8e:0f:98:11:70:80:e9:6c:62:65:df:
                    ee:a7
                Exponent: 65537 (0x10001)
        X509v3 extensions:
            X509v3 Authority Key Identifier: 
                keyid:B6:A8:FF:A2:A8:2F:D0:A6:CD:4B:B1:68:F3:E7:50:10:31:A7:79:21

            X509v3 Subject Key Identifier: 
                98:85:67:58:E0:72:92:74:A0:BD:AB:92:FF:AB:DE:A5:62:01:E6:A7
            X509v3 Key Usage: critical
                Digital Signature, Key Encipherment
            X509v3 Basic Constraints: critical
                CA:FALSE
            X509v3 Extended Key Usage: 
                TLS Web Server Authentication, TLS Web Client Authentication
            X509v3 Certificate Policies: 
                Policy: 1.3.6.1.4.1.6449.1.2.2.26
                  CPS: http://www.gandi.net/contracts/fr/ssl/cps/pdf/
                Policy: 2.23.140.1.2.1

            X509v3 CRL Distribution Points: 

                Full Name:
                  URI:http://crl.gandi.net/GandiStandardSSLCA.crl

            Authority Information Access: 
                CA Issuers - URI:http://crt.gandi.net/GandiStandardSSLCA.crt
                OCSP - URI:http://ocsp.gandi.net

            X509v3 Subject Alternative Name: 
                DNS:contributors.debian.org, DNS:www.contributors.debian.org
    Signature Algorithm: sha1WithRSAEncryption
         2a:99:68:4c:44:ff:77:ed:9f:ed:f8:c0:5f:a3:c1:c5:d5:37:
         c2:42:56:8d:92:0a:9a:b7:b5:cc:68:63:dd:26:8d:c3:a9:f8:
         a8:21:e7:c2:d2:02:fe:ee:01:06:ce:c3:16:ad:15:ce:8f:48:
         24:24:ed:50:aa:e6:43:f0:e9:82:50:39:e2:21:7f:06:a0:fb:
         3d:ed:bf:00:e6:79:81:0d:5a:38:af:45:ef:de:21:ed:ac:f4:
         34:7c:4b:59:a7:97:d8:9e:d3:5e:ea:01:15:c8:68:66:9d:e7:
         52:03:35:81:45:36:29:a4:e6:32:4c:b1:49:55:82:cb:db:6e:
         1d:5a:8e:88:ff:d2:ef:56:54:ec:12:9d:f9:e6:01:e6:28:4f:
         23:96:ea:8f:06:de:8c:da:cc:da:ba:b4:c7:90:de:dd:f1:c5:
         80:e9:93:f9:fb:5d:35:3b:1d:49:79:b9:5d:71:5f:b5:41:fc:
         35:b4:59:e1:73:9c:1b:13:3d:6b:87:9c:3f:03:37:6a:b2:7e:
         82:77:a8:6e:ce:94:2e:89:2b:62:d4:e0:ed:97:e5:17:ab:5f:
         5e:84:9b:98:cc:a1:b9:08:b4:63:3a:93:50:1d:63:0d:95:30:
         75:5e:bd:b3:a8:4b:30:23:17:94:fa:55:d8:10:71:5a:0e:b5:
         53:86:c5:d6
-----BEGIN CERTIFICATE-----
MIIE/jCCA+agAwIBAgIRAOXGqcAWWzJeZaE9KGDAzywwDQYJKoZIhvcNAQEFBQAw
QTELMAkGA1UEBhMCRlIxEjAQBgNVBAoTCUdBTkRJIFNBUzEeMBwGA1UEAxMVR2Fu
ZGkgU3RhbmRhcmQgU1NMIENBMB4XDTEzMTIzMTAwMDAwMFoXDTE0MTIzMTIzNTk1
OVowYjEhMB8GA1UECxMYRG9tYWluIENvbnRyb2wgVmFsaWRhdGVkMRswGQYDVQQL
ExJHYW5kaSBTdGFuZGFyZCBTU0wxIDAeBgNVBAMTF2NvbnRyaWJ1dG9ycy5kZWJp
YW4ub3JnMIIBIjANBgkqhkiG9w0BAQEFAAOCAQ8AMIIBCgKCAQEAv+pYMC8naSeT
topZ8g7hV9ZU6vrZS8gvHXqf0lf3Nimu38No67hStVfv7OTpQASPvpjjUtBpCTC1
VJBFE8YisxiUUzjzl74x8QfGlhG9ARn5RDh53b/tqvAiiZ4fJAtJUhqktm3I0Yak
42x7Yo3ug78B+7ny3Z0NFUmGj8yEADuzbG6/Z3nd3xP7JslUn8eW4xiFaylT5ayl
3FVOtKOiUS1JIJUdUnZ9Tmn8eMeesDY5/WxmJB8tqyVPYISkXfUSfbQIAszQnKjD
IzIVY8lQF9czhLQaFaaxlBmN8WzzsYX69l0uhSWTbJ/VrlvInIpvqD6qjg+YEXCA
6WxiZd/upwIDAQABo4IBzjCCAcowHwYDVR0jBBgwFoAUtqj/oqgv0KbNS7Fo8+dQ
EDGneSEwHQYDVR0OBBYEFJiFZ1jgcpJ0oL2rkv+r3qViAeanMA4GA1UdDwEB/wQE
AwIFoDAMBgNVHRMBAf8EAjAAMB0GA1UdJQQWMBQGCCsGAQUFBwMBBggrBgEFBQcD
AjBgBgNVHSAEWTBXMEsGCysGAQQBsjEBAgIaMDwwOgYIKwYBBQUHAgEWLmh0dHA6
Ly93d3cuZ2FuZGkubmV0L2NvbnRyYWN0cy9mci9zc2wvY3BzL3BkZi8wCAYGZ4EM
AQIBMDwGA1UdHwQ1MDMwMaAvoC2GK2h0dHA6Ly9jcmwuZ2FuZGkubmV0L0dhbmRp
U3RhbmRhcmRTU0xDQS5jcmwwagYIKwYBBQUHAQEEXjBcMDcGCCsGAQUFBzAChito
dHRwOi8vY3J0LmdhbmRpLm5ldC9HYW5kaVN0YW5kYXJkU1NMQ0EuY3J0MCEGCCsG
AQUFBzABhhVodHRwOi8vb2NzcC5nYW5kaS5uZXQwPwYDVR0RBDgwNoIXY29udHJp
YnV0b3JzLmRlYmlhbi5vcmeCG3d3dy5jb250cmlidXRvcnMuZGViaWFuLm9yZzAN
BgkqhkiG9w0BAQUFAAOCAQEAKploTET/d+2f7fjAX6PBxdU3wkJWjZIKmre1zGhj
3SaNw6n4qCHnwtIC/u4BBs7DFq0Vzo9IJCTtUKrmQ/DpglA54iF/BqD7Pe2/AOZ5
gQ1aOK9F794h7az0NHxLWaeX2J7TXuoBFchoZp3nUgM1gUU2KaTmMkyxSVWCy9tu
HVqOiP/S71ZU7BKd+eYB5ihPI5bqjwbejNrM2rq0x5De3fHFgOmT+ftdNTsdSXm5
XXFftUH8NbRZ4XOcGxM9a4ecPwM3arJ+gneobs6ULokrYtTg7ZflF6tfXoSbmMyh
uQi0YzqTUB1jDZUwdV69s6hLMCMXlPpV2BBxWg61U4bF1g==
-----END CERTIFICATE-----
