Certificate:
    Data:
        Version: 3 (0x2)
        Serial Number:
            a4:67:ec:e8:f0:c3:1c:c9:04:ab:2e:6d:9a:3c:61:7a
    Signature Algorithm: sha256WithRSAEncryption
        Issuer: C=FR, ST=Paris, L=Paris, O=Gandi, CN=Gandi Standard SSL CA 2
        Validity
            Not Before: Dec 11 00:00:00 2015 GMT
            Not After : Jan 20 23:59:59 2017 GMT
        Subject: OU=Domain Control Validated, OU=Gandi Standard SSL, CN=contributors.debian.org
        Subject Public Key Info:
            Public Key Algorithm: rsaEncryption
                Public-Key: (3072 bit)
                Modulus:
                    00:d3:51:7a:8f:18:0c:fe:c0:df:82:fe:e1:81:a6:
                    c2:68:18:5d:7a:fd:f1:6e:7d:83:12:04:9a:75:cf:
                    ac:3c:72:06:0f:e8:a2:de:0c:b3:be:02:95:84:ca:
                    f0:14:25:70:ab:cc:6c:7a:33:01:99:0c:1b:6d:31:
                    06:f8:c3:8f:f8:86:a0:18:02:9c:b0:6d:25:32:74:
                    fa:99:9f:1d:16:ef:ff:e4:23:f1:1e:8c:11:bf:d8:
                    d2:0d:f1:cc:b8:c5:50:7b:0f:89:bc:4b:74:59:68:
                    5d:52:48:40:ef:72:87:c4:d6:78:92:5d:b2:23:40:
                    6b:52:bb:a2:a8:64:d3:df:8a:ee:22:57:54:4e:2f:
                    1e:39:8e:66:cc:62:98:44:51:cf:71:c4:3d:d2:9c:
                    36:17:0c:a7:01:2d:dd:32:df:b0:1e:3f:b0:fc:ef:
                    c7:6a:6b:ea:d9:e0:7f:ab:b4:0a:3d:89:a6:b3:c9:
                    01:02:1c:d5:1e:20:4f:18:e4:04:a7:82:ca:71:02:
                    bb:5f:51:1c:90:b3:04:77:ea:9e:6e:01:1c:23:3e:
                    d8:14:b5:86:eb:03:7e:4a:32:25:20:1e:01:52:56:
                    2a:1c:b8:cb:47:29:6e:77:40:95:2a:4e:f1:eb:e8:
                    ab:4b:4a:22:fb:27:dc:92:c7:5d:83:18:16:bd:ec:
                    b8:f4:89:5e:73:cb:2a:b8:b9:13:f4:87:5a:b2:ac:
                    e8:86:9f:18:86:78:a7:fe:f6:c4:66:fa:46:4a:3b:
                    6f:f5:b6:33:5c:f6:6f:41:0c:f2:7d:b4:7f:9c:0f:
                    56:e4:5b:e6:51:57:37:bf:1c:f1:ec:9f:31:55:1f:
                    ce:26:8d:82:88:99:2b:e1:f4:fb:69:b7:6f:36:5b:
                    55:cf:a0:71:8f:82:0f:96:5f:84:39:6f:77:26:2f:
                    34:2c:8a:f8:ad:8d:eb:d7:a7:d7:9a:1f:48:f8:40:
                    03:1a:f0:da:1a:18:5e:f6:65:cb:43:65:c5:d7:42:
                    3b:97:9c:34:88:f6:4f:20:eb:49
                Exponent: 65537 (0x10001)
        X509v3 extensions:
            X509v3 Authority Key Identifier: 
                keyid:B3:90:A7:D8:C9:AF:4E:CD:61:3C:9F:7C:AD:5D:7F:41:FD:69:30:EA

            X509v3 Subject Key Identifier: 
                AE:F2:2B:58:B1:9F:1C:19:38:F2:6B:89:59:C4:F1:AB:E3:09:62:75
            X509v3 Key Usage: critical
                Digital Signature, Key Encipherment
            X509v3 Basic Constraints: critical
                CA:FALSE
            X509v3 Extended Key Usage: 
                TLS Web Server Authentication, TLS Web Client Authentication
            X509v3 Certificate Policies: 
                Policy: 1.3.6.1.4.1.6449.1.2.2.26
                  CPS: https://cps.usertrust.com
                Policy: 2.23.140.1.2.1

            X509v3 CRL Distribution Points: 

                Full Name:
                  URI:http://crl.usertrust.com/GandiStandardSSLCA2.crl

            Authority Information Access: 
                CA Issuers - URI:http://crt.usertrust.com/GandiStandardSSLCA2.crt
                OCSP - URI:http://ocsp.usertrust.com

            X509v3 Subject Alternative Name: 
                DNS:contributors.debian.org, DNS:www.contributors.debian.org
    Signature Algorithm: sha256WithRSAEncryption
         4d:a6:bf:81:81:40:6b:8a:da:e7:12:28:f6:1a:30:18:7b:8d:
         bc:d0:b5:f1:25:8d:20:80:98:ab:d5:3d:9f:ae:ae:c3:2b:16:
         5c:c7:a1:af:3e:0a:71:31:e8:af:02:c6:aa:ab:39:55:98:25:
         1c:8c:8e:f9:c3:e6:30:d7:5a:b9:f3:26:3b:9c:fd:b9:a5:9e:
         15:ed:ab:1f:e4:f6:3c:9d:66:1f:6a:7e:0d:2d:9c:3f:da:e0:
         86:30:f4:39:94:29:32:fe:69:f8:3d:d7:72:a7:6d:eb:3a:f0:
         a8:a1:28:f7:14:e6:f2:9e:48:24:8a:88:96:cd:19:88:6f:8a:
         df:2f:f1:a9:63:ec:d6:1c:a3:5d:22:61:f6:5d:1f:24:b4:80:
         2b:1e:be:65:c8:e1:9f:fd:46:01:d2:38:8f:3e:30:7c:03:c2:
         b1:e6:67:7c:66:6b:5e:43:ec:83:a7:54:14:28:fb:60:81:44:
         c1:ed:2c:26:9d:7b:a7:6d:ec:28:91:39:0c:a4:14:64:e8:b4:
         a9:cb:0f:05:32:62:f3:f3:d3:f8:79:2b:bf:27:5b:af:b1:11:
         a7:5a:05:a7:96:07:07:ec:c0:9f:7f:ea:16:64:52:fc:b4:d9:
         9f:5b:96:9d:1a:a0:83:7b:85:7a:3f:f9:95:25:48:99:02:4e:
         79:ea:dc:92
-----BEGIN CERTIFICATE-----
MIIFlTCCBH2gAwIBAgIRAKRn7OjwwxzJBKsubZo8YXowDQYJKoZIhvcNAQELBQAw
XzELMAkGA1UEBhMCRlIxDjAMBgNVBAgTBVBhcmlzMQ4wDAYDVQQHEwVQYXJpczEO
MAwGA1UEChMFR2FuZGkxIDAeBgNVBAMTF0dhbmRpIFN0YW5kYXJkIFNTTCBDQSAy
MB4XDTE1MTIxMTAwMDAwMFoXDTE3MDEyMDIzNTk1OVowYjEhMB8GA1UECxMYRG9t
YWluIENvbnRyb2wgVmFsaWRhdGVkMRswGQYDVQQLExJHYW5kaSBTdGFuZGFyZCBT
U0wxIDAeBgNVBAMTF2NvbnRyaWJ1dG9ycy5kZWJpYW4ub3JnMIIBojANBgkqhkiG
9w0BAQEFAAOCAY8AMIIBigKCAYEA01F6jxgM/sDfgv7hgabCaBhdev3xbn2DEgSa
dc+sPHIGD+ii3gyzvgKVhMrwFCVwq8xsejMBmQwbbTEG+MOP+IagGAKcsG0lMnT6
mZ8dFu//5CPxHowRv9jSDfHMuMVQew+JvEt0WWhdUkhA73KHxNZ4kl2yI0BrUrui
qGTT34ruIldUTi8eOY5mzGKYRFHPccQ90pw2FwynAS3dMt+wHj+w/O/Hamvq2eB/
q7QKPYmms8kBAhzVHiBPGOQEp4LKcQK7X1EckLMEd+qebgEcIz7YFLWG6wN+SjIl
IB4BUlYqHLjLRylud0CVKk7x6+irS0oi+yfcksddgxgWvey49Ilec8squLkT9Ida
sqzohp8Yhnin/vbEZvpGSjtv9bYzXPZvQQzyfbR/nA9W5FvmUVc3vxzx7J8xVR/O
Jo2CiJkr4fT7abdvNltVz6Bxj4IPll+EOW93Ji80LIr4rY3r16fXmh9I+EADGvDa
Ghhe9mXLQ2XF10I7l5w0iPZPIOtJAgMBAAGjggHHMIIBwzAfBgNVHSMEGDAWgBSz
kKfYya9OzWE8n3ytXX9B/Wkw6jAdBgNVHQ4EFgQUrvIrWLGfHBk48muJWcTxq+MJ
YnUwDgYDVR0PAQH/BAQDAgWgMAwGA1UdEwEB/wQCMAAwHQYDVR0lBBYwFAYIKwYB
BQUHAwEGCCsGAQUFBwMCMEsGA1UdIAREMEIwNgYLKwYBBAGyMQECAhowJzAlBggr
BgEFBQcCARYZaHR0cHM6Ly9jcHMudXNlcnRydXN0LmNvbTAIBgZngQwBAgEwQQYD
VR0fBDowODA2oDSgMoYwaHR0cDovL2NybC51c2VydHJ1c3QuY29tL0dhbmRpU3Rh
bmRhcmRTU0xDQTIuY3JsMHMGCCsGAQUFBwEBBGcwZTA8BggrBgEFBQcwAoYwaHR0
cDovL2NydC51c2VydHJ1c3QuY29tL0dhbmRpU3RhbmRhcmRTU0xDQTIuY3J0MCUG
CCsGAQUFBzABhhlodHRwOi8vb2NzcC51c2VydHJ1c3QuY29tMD8GA1UdEQQ4MDaC
F2NvbnRyaWJ1dG9ycy5kZWJpYW4ub3Jnght3d3cuY29udHJpYnV0b3JzLmRlYmlh
bi5vcmcwDQYJKoZIhvcNAQELBQADggEBAE2mv4GBQGuK2ucSKPYaMBh7jbzQtfEl
jSCAmKvVPZ+ursMrFlzHoa8+CnEx6K8CxqqrOVWYJRyMjvnD5jDXWrnzJjuc/bml
nhXtqx/k9jydZh9qfg0tnD/a4IYw9DmUKTL+afg913Knbes68KihKPcU5vKeSCSK
iJbNGYhvit8v8alj7NYco10iYfZdHyS0gCsevmXI4Z/9RgHSOI8+MHwDwrHmZ3xm
a15D7IOnVBQo+2CBRMHtLCade6dt7CiROQykFGTotKnLDwUyYvPz0/h5K78nW6+x
EadaBaeWBwfswJ9/6hZkUvy02Z9blp0aoIN7hXo/+ZUlSJkCTnnq3JI=
-----END CERTIFICATE-----
