Certificate:
    Data:
        Version: 3 (0x2)
        Serial Number:
            31:f0:25:82:7c:37:61:f7:5a:e8:5a:a5:0f:a5:d4:97
    Signature Algorithm: sha256WithRSAEncryption
        Issuer: C=FR, ST=Paris, L=Paris, O=Gandi, CN=Gandi Standard SSL CA 2
        Validity
            Not Before: Dec 17 00:00:00 2014 GMT
            Not After : Dec 31 23:59:59 2015 GMT
        Subject: OU=Domain Control Validated, OU=Gandi Standard SSL, CN=contributors.debian.org
        Subject Public Key Info:
            Public Key Algorithm: rsaEncryption
                Public-Key: (3072 bit)
                Modulus:
                    00:d3:51:7a:8f:18:0c:fe:c0:df:82:fe:e1:81:a6:
                    c2:68:18:5d:7a:fd:f1:6e:7d:83:12:04:9a:75:cf:
                    ac:3c:72:06:0f:e8:a2:de:0c:b3:be:02:95:84:ca:
                    f0:14:25:70:ab:cc:6c:7a:33:01:99:0c:1b:6d:31:
                    06:f8:c3:8f:f8:86:a0:18:02:9c:b0:6d:25:32:74:
                    fa:99:9f:1d:16:ef:ff:e4:23:f1:1e:8c:11:bf:d8:
                    d2:0d:f1:cc:b8:c5:50:7b:0f:89:bc:4b:74:59:68:
                    5d:52:48:40:ef:72:87:c4:d6:78:92:5d:b2:23:40:
                    6b:52:bb:a2:a8:64:d3:df:8a:ee:22:57:54:4e:2f:
                    1e:39:8e:66:cc:62:98:44:51:cf:71:c4:3d:d2:9c:
                    36:17:0c:a7:01:2d:dd:32:df:b0:1e:3f:b0:fc:ef:
                    c7:6a:6b:ea:d9:e0:7f:ab:b4:0a:3d:89:a6:b3:c9:
                    01:02:1c:d5:1e:20:4f:18:e4:04:a7:82:ca:71:02:
                    bb:5f:51:1c:90:b3:04:77:ea:9e:6e:01:1c:23:3e:
                    d8:14:b5:86:eb:03:7e:4a:32:25:20:1e:01:52:56:
                    2a:1c:b8:cb:47:29:6e:77:40:95:2a:4e:f1:eb:e8:
                    ab:4b:4a:22:fb:27:dc:92:c7:5d:83:18:16:bd:ec:
                    b8:f4:89:5e:73:cb:2a:b8:b9:13:f4:87:5a:b2:ac:
                    e8:86:9f:18:86:78:a7:fe:f6:c4:66:fa:46:4a:3b:
                    6f:f5:b6:33:5c:f6:6f:41:0c:f2:7d:b4:7f:9c:0f:
                    56:e4:5b:e6:51:57:37:bf:1c:f1:ec:9f:31:55:1f:
                    ce:26:8d:82:88:99:2b:e1:f4:fb:69:b7:6f:36:5b:
                    55:cf:a0:71:8f:82:0f:96:5f:84:39:6f:77:26:2f:
                    34:2c:8a:f8:ad:8d:eb:d7:a7:d7:9a:1f:48:f8:40:
                    03:1a:f0:da:1a:18:5e:f6:65:cb:43:65:c5:d7:42:
                    3b:97:9c:34:88:f6:4f:20:eb:49
                Exponent: 65537 (0x10001)
        X509v3 extensions:
            X509v3 Authority Key Identifier: 
                keyid:B3:90:A7:D8:C9:AF:4E:CD:61:3C:9F:7C:AD:5D:7F:41:FD:69:30:EA

            X509v3 Subject Key Identifier: 
                AE:F2:2B:58:B1:9F:1C:19:38:F2:6B:89:59:C4:F1:AB:E3:09:62:75
            X509v3 Key Usage: critical
                Digital Signature, Key Encipherment
            X509v3 Basic Constraints: critical
                CA:FALSE
            X509v3 Extended Key Usage: 
                TLS Web Server Authentication, TLS Web Client Authentication
            X509v3 Certificate Policies: 
                Policy: 1.3.6.1.4.1.6449.1.2.2.26
                  CPS: https://cps.usertrust.com
                Policy: 2.23.140.1.2.1

            X509v3 CRL Distribution Points: 

                Full Name:
                  URI:http://crl.usertrust.com/GandiStandardSSLCA2.crl

            Authority Information Access: 
                CA Issuers - URI:http://crt.usertrust.com/GandiStandardSSLCA2.crt
                OCSP - URI:http://ocsp.usertrust.com

            X509v3 Subject Alternative Name: 
                DNS:contributors.debian.org, DNS:www.contributors.debian.org
    Signature Algorithm: sha256WithRSAEncryption
         5d:4e:fb:fb:1c:72:10:5a:0a:17:27:db:e7:44:20:e6:3d:f5:
         d7:33:0b:21:f5:d6:4f:f4:67:f0:57:e3:8b:3e:cf:41:2f:94:
         c2:27:57:4b:74:58:fc:3d:d2:c7:ec:d0:86:1c:df:d1:c5:9c:
         d3:42:1d:6b:dc:f9:7d:83:cd:b1:c5:9e:7e:9a:b9:0c:9d:0b:
         3f:83:df:1f:c4:52:e6:43:7d:e2:94:0d:a1:82:e3:b0:bf:53:
         f0:66:33:a4:97:66:62:0b:36:b8:eb:30:31:81:d9:37:2e:f5:
         3a:be:66:88:d6:50:fa:d1:37:c4:96:62:2a:57:e3:2c:2e:b7:
         9c:52:0b:12:49:95:5c:5d:0f:9d:37:ee:20:7a:f0:e3:b7:9d:
         6c:b6:1e:c3:14:7b:e7:d8:57:1d:2d:f3:03:ca:ea:80:69:c0:
         91:50:a1:f0:8c:cd:be:a6:20:7e:16:e2:a3:57:c5:0f:14:a7:
         b0:89:cf:97:8f:19:f5:ec:07:6c:14:79:54:40:6b:12:35:d5:
         c7:09:de:a1:d6:19:47:00:7b:4b:54:82:c9:c7:1c:cf:05:76:
         de:a7:e8:96:a9:6b:9a:0d:77:e6:bc:7b:88:21:f9:4e:92:a1:
         4e:79:27:43:02:5e:5b:15:0c:42:6a:83:28:fa:08:23:2a:67:
         63:45:72:5f
-----BEGIN CERTIFICATE-----
MIIFlDCCBHygAwIBAgIQMfAlgnw3Yfda6FqlD6XUlzANBgkqhkiG9w0BAQsFADBf
MQswCQYDVQQGEwJGUjEOMAwGA1UECBMFUGFyaXMxDjAMBgNVBAcTBVBhcmlzMQ4w
DAYDVQQKEwVHYW5kaTEgMB4GA1UEAxMXR2FuZGkgU3RhbmRhcmQgU1NMIENBIDIw
HhcNMTQxMjE3MDAwMDAwWhcNMTUxMjMxMjM1OTU5WjBiMSEwHwYDVQQLExhEb21h
aW4gQ29udHJvbCBWYWxpZGF0ZWQxGzAZBgNVBAsTEkdhbmRpIFN0YW5kYXJkIFNT
TDEgMB4GA1UEAxMXY29udHJpYnV0b3JzLmRlYmlhbi5vcmcwggGiMA0GCSqGSIb3
DQEBAQUAA4IBjwAwggGKAoIBgQDTUXqPGAz+wN+C/uGBpsJoGF16/fFufYMSBJp1
z6w8cgYP6KLeDLO+ApWEyvAUJXCrzGx6MwGZDBttMQb4w4/4hqAYApywbSUydPqZ
nx0W7//kI/EejBG/2NIN8cy4xVB7D4m8S3RZaF1SSEDvcofE1niSXbIjQGtSu6Ko
ZNPfiu4iV1ROLx45jmbMYphEUc9xxD3SnDYXDKcBLd0y37AeP7D878dqa+rZ4H+r
tAo9iaazyQECHNUeIE8Y5ASngspxArtfURyQswR36p5uARwjPtgUtYbrA35KMiUg
HgFSViocuMtHKW53QJUqTvHr6KtLSiL7J9ySx12DGBa97Lj0iV5zyyq4uRP0h1qy
rOiGnxiGeKf+9sRm+kZKO2/1tjNc9m9BDPJ9tH+cD1bkW+ZRVze/HPHsnzFVH84m
jYKImSvh9Ptpt282W1XPoHGPgg+WX4Q5b3cmLzQsivitjevXp9eaH0j4QAMa8Noa
GF72ZctDZcXXQjuXnDSI9k8g60kCAwEAAaOCAccwggHDMB8GA1UdIwQYMBaAFLOQ
p9jJr07NYTyffK1df0H9aTDqMB0GA1UdDgQWBBSu8itYsZ8cGTjya4lZxPGr4wli
dTAOBgNVHQ8BAf8EBAMCBaAwDAYDVR0TAQH/BAIwADAdBgNVHSUEFjAUBggrBgEF
BQcDAQYIKwYBBQUHAwIwSwYDVR0gBEQwQjA2BgsrBgEEAbIxAQICGjAnMCUGCCsG
AQUFBwIBFhlodHRwczovL2Nwcy51c2VydHJ1c3QuY29tMAgGBmeBDAECATBBBgNV
HR8EOjA4MDagNKAyhjBodHRwOi8vY3JsLnVzZXJ0cnVzdC5jb20vR2FuZGlTdGFu
ZGFyZFNTTENBMi5jcmwwcwYIKwYBBQUHAQEEZzBlMDwGCCsGAQUFBzAChjBodHRw
Oi8vY3J0LnVzZXJ0cnVzdC5jb20vR2FuZGlTdGFuZGFyZFNTTENBMi5jcnQwJQYI
KwYBBQUHMAGGGWh0dHA6Ly9vY3NwLnVzZXJ0cnVzdC5jb20wPwYDVR0RBDgwNoIX
Y29udHJpYnV0b3JzLmRlYmlhbi5vcmeCG3d3dy5jb250cmlidXRvcnMuZGViaWFu
Lm9yZzANBgkqhkiG9w0BAQsFAAOCAQEAXU77+xxyEFoKFyfb50Qg5j311zMLIfXW
T/Rn8Ffjiz7PQS+UwidXS3RY/D3Sx+zQhhzf0cWc00Ida9z5fYPNscWefpq5DJ0L
P4PfH8RS5kN94pQNoYLjsL9T8GYzpJdmYgs2uOswMYHZNy71Or5miNZQ+tE3xJZi
KlfjLC63nFILEkmVXF0PnTfuIHrw47edbLYewxR759hXHS3zA8rqgGnAkVCh8IzN
vqYgfhbio1fFDxSnsInPl48Z9ewHbBR5VEBrEjXVxwneodYZRwB7S1SCyccczwV2
3qfolqlrmg135rx7iCH5TpKhTnknQwJeWxUMQmqDKPoIIypnY0VyXw==
-----END CERTIFICATE-----
