Certificate:
    Data:
        Version: 3 (0x2)
        Serial Number:
            35:d0:d1:17:98:48:34:58:bb:90:07:8a:d1:f3:f9:16
    Signature Algorithm: sha1WithRSAEncryption
        Issuer: C=FR, O=GANDI SAS, CN=Gandi Standard SSL CA
        Validity
            Not Before: Dec 31 00:00:00 2013 GMT
            Not After : Dec 31 23:59:59 2014 GMT
        Subject: OU=Domain Control Validated, OU=Gandi Standard SSL, CN=db.debian.org
        Subject Public Key Info:
            Public Key Algorithm: rsaEncryption
                Public-Key: (3072 bit)
                Modulus:
                    00:df:fb:0e:56:59:29:1e:52:10:bc:c5:ee:b7:67:
                    e8:b5:b1:b9:e6:e9:57:21:6e:d5:e5:e5:b7:3c:62:
                    f8:c8:a0:f5:c4:74:65:90:f7:86:9d:09:71:4a:de:
                    b0:00:4e:cc:4e:ba:02:e8:46:b5:c1:6e:b3:f2:7f:
                    f3:c0:86:33:6a:f7:f6:ed:e7:e5:a7:39:3b:fe:18:
                    a6:9e:7b:f7:de:d8:25:15:7b:db:97:4b:e2:85:fb:
                    e5:5a:5c:e2:9f:23:10:8f:cb:c8:81:6d:79:93:76:
                    db:38:af:f7:35:bb:a8:22:8a:6a:19:ea:d6:db:aa:
                    0e:45:7e:f3:80:44:01:1a:55:74:86:9a:5a:69:ff:
                    2a:ab:04:83:17:8d:2a:89:b2:38:bb:e7:f7:a2:15:
                    09:30:05:ef:ca:ee:74:f9:89:1d:f4:82:97:ef:8d:
                    16:68:34:ca:ee:c3:3f:2b:97:7f:c6:09:7c:0e:a3:
                    f3:f9:05:b9:e6:a7:2b:60:75:cb:fc:30:f0:c4:9b:
                    2f:78:80:76:02:f0:56:d4:49:93:04:58:c8:a9:fc:
                    a7:9f:b2:6f:0c:d7:f4:bd:fa:19:68:18:b3:d3:97:
                    52:7f:31:e3:de:13:e4:68:db:19:05:71:50:db:7b:
                    a8:99:d1:b6:25:30:61:5a:22:38:04:6b:bf:51:08:
                    d0:2a:b8:00:d5:d5:68:b0:dc:91:ce:72:d1:ad:8f:
                    63:77:38:35:65:65:28:66:1b:77:17:50:0b:59:fa:
                    9c:7f:77:99:60:c8:af:ab:ee:ec:95:f7:0a:a0:c3:
                    af:c1:41:94:d5:55:b6:20:62:bf:4a:bf:7a:25:5b:
                    f5:dc:c1:cc:e9:ed:b7:78:40:e8:63:89:14:0b:b0:
                    0c:37:fb:83:b9:ea:1a:af:2a:a9:ca:fb:10:8c:95:
                    07:cc:ad:43:95:cc:82:d2:c2:a6:62:64:2f:32:1d:
                    45:87:dd:b1:03:1a:ed:c0:1b:97:44:c7:03:0c:17:
                    8a:07:28:b4:50:34:69:82:0f:05
                Exponent: 65537 (0x10001)
        X509v3 extensions:
            X509v3 Authority Key Identifier: 
                keyid:B6:A8:FF:A2:A8:2F:D0:A6:CD:4B:B1:68:F3:E7:50:10:31:A7:79:21

            X509v3 Subject Key Identifier: 
                32:46:59:7C:E7:0A:EF:FE:AB:21:4B:0A:65:08:E1:C9:97:CB:50:C2
            X509v3 Key Usage: critical
                Digital Signature, Key Encipherment
            X509v3 Basic Constraints: critical
                CA:FALSE
            X509v3 Extended Key Usage: 
                TLS Web Server Authentication, TLS Web Client Authentication
            X509v3 Certificate Policies: 
                Policy: 1.3.6.1.4.1.6449.1.2.2.26
                  CPS: http://www.gandi.net/contracts/fr/ssl/cps/pdf/
                Policy: 2.23.140.1.2.1

            X509v3 CRL Distribution Points: 

                Full Name:
                  URI:http://crl.gandi.net/GandiStandardSSLCA.crl

            Authority Information Access: 
                CA Issuers - URI:http://crt.gandi.net/GandiStandardSSLCA.crt
                OCSP - URI:http://ocsp.gandi.net

            X509v3 Subject Alternative Name: 
                DNS:db.debian.org, DNS:www.db.debian.org
    Signature Algorithm: sha1WithRSAEncryption
         af:a2:c7:b1:10:34:f8:14:a8:3c:78:ea:00:0f:89:f7:26:e9:
         bd:85:bd:7a:be:82:d9:41:f6:1e:94:68:30:ce:ed:fc:43:ce:
         6a:14:e5:5e:16:b5:d0:4c:e6:eb:c8:7c:e9:a9:78:db:82:c4:
         f6:a3:d7:c7:14:96:3f:4f:3e:32:f7:78:ae:37:50:25:6e:eb:
         0e:61:37:7a:76:ff:60:4f:bc:58:d0:46:1b:41:70:87:04:5a:
         c3:1a:97:50:c2:b5:2f:ef:08:19:10:b7:59:52:81:de:3f:c6:
         23:1f:2b:87:10:62:dc:11:bb:8e:e0:07:41:ee:33:69:5e:71:
         81:c0:e3:61:02:e6:1a:ae:a5:8f:f6:b4:7a:39:e0:07:72:53:
         8e:93:c6:05:10:72:6d:1e:89:c2:ed:62:e4:e3:21:84:16:75:
         48:0c:f7:68:5e:0f:0f:1c:69:ec:b9:18:a2:f6:fd:39:98:33:
         68:96:cb:f7:2c:14:b9:b8:b4:90:30:3c:cb:6f:cb:52:96:74:
         94:04:8a:a6:08:b8:8f:4b:6f:8f:f1:3b:28:d2:c1:53:4b:20:
         99:9b:13:31:3a:49:db:3d:b2:3c:6a:11:c5:38:09:ca:27:4d:
         52:5a:ce:f1:d9:b6:70:51:57:c1:a2:45:82:9a:77:fc:60:43:
         a2:7e:fd:9d
-----BEGIN CERTIFICATE-----
MIIFXzCCBEegAwIBAgIQNdDRF5hINFi7kAeK0fP5FjANBgkqhkiG9w0BAQUFADBB
MQswCQYDVQQGEwJGUjESMBAGA1UEChMJR0FOREkgU0FTMR4wHAYDVQQDExVHYW5k
aSBTdGFuZGFyZCBTU0wgQ0EwHhcNMTMxMjMxMDAwMDAwWhcNMTQxMjMxMjM1OTU5
WjBYMSEwHwYDVQQLExhEb21haW4gQ29udHJvbCBWYWxpZGF0ZWQxGzAZBgNVBAsT
EkdhbmRpIFN0YW5kYXJkIFNTTDEWMBQGA1UEAxMNZGIuZGViaWFuLm9yZzCCAaIw
DQYJKoZIhvcNAQEBBQADggGPADCCAYoCggGBAN/7DlZZKR5SELzF7rdn6LWxuebp
VyFu1eXltzxi+Mig9cR0ZZD3hp0JcUresABOzE66AuhGtcFus/J/88CGM2r39u3n
5ac5O/4Ypp57997YJRV725dL4oX75Vpc4p8jEI/LyIFteZN22ziv9zW7qCKKahnq
1tuqDkV+84BEARpVdIaaWmn/KqsEgxeNKomyOLvn96IVCTAF78rudPmJHfSCl++N
Fmg0yu7DPyuXf8YJfA6j8/kFueanK2B1y/ww8MSbL3iAdgLwVtRJkwRYyKn8p5+y
bwzX9L36GWgYs9OXUn8x494T5GjbGQVxUNt7qJnRtiUwYVoiOARrv1EI0Cq4ANXV
aLDckc5y0a2PY3c4NWVlKGYbdxdQC1n6nH93mWDIr6vu7JX3CqDDr8FBlNVVtiBi
v0q/eiVb9dzBzOntt3hA6GOJFAuwDDf7g7nqGq8qqcr7EIyVB8ytQ5XMgtLCpmJk
LzIdRYfdsQMa7cAbl0THAwwXigcotFA0aYIPBQIDAQABo4IBujCCAbYwHwYDVR0j
BBgwFoAUtqj/oqgv0KbNS7Fo8+dQEDGneSEwHQYDVR0OBBYEFDJGWXznCu/+qyFL
CmUI4cmXy1DCMA4GA1UdDwEB/wQEAwIFoDAMBgNVHRMBAf8EAjAAMB0GA1UdJQQW
MBQGCCsGAQUFBwMBBggrBgEFBQcDAjBgBgNVHSAEWTBXMEsGCysGAQQBsjEBAgIa
MDwwOgYIKwYBBQUHAgEWLmh0dHA6Ly93d3cuZ2FuZGkubmV0L2NvbnRyYWN0cy9m
ci9zc2wvY3BzL3BkZi8wCAYGZ4EMAQIBMDwGA1UdHwQ1MDMwMaAvoC2GK2h0dHA6
Ly9jcmwuZ2FuZGkubmV0L0dhbmRpU3RhbmRhcmRTU0xDQS5jcmwwagYIKwYBBQUH
AQEEXjBcMDcGCCsGAQUFBzAChitodHRwOi8vY3J0LmdhbmRpLm5ldC9HYW5kaVN0
YW5kYXJkU1NMQ0EuY3J0MCEGCCsGAQUFBzABhhVodHRwOi8vb2NzcC5nYW5kaS5u
ZXQwKwYDVR0RBCQwIoINZGIuZGViaWFuLm9yZ4IRd3d3LmRiLmRlYmlhbi5vcmcw
DQYJKoZIhvcNAQEFBQADggEBAK+ix7EQNPgUqDx46gAPifcm6b2FvXq+gtlB9h6U
aDDO7fxDzmoU5V4WtdBM5uvIfOmpeNuCxPaj18cUlj9PPjL3eK43UCVu6w5hN3p2
/2BPvFjQRhtBcIcEWsMal1DCtS/vCBkQt1lSgd4/xiMfK4cQYtwRu47gB0HuM2le
cYHA42EC5hqupY/2tHo54AdyU46TxgUQcm0eicLtYuTjIYQWdUgM92heDw8caey5
GKL2/TmYM2iWy/csFLm4tJAwPMtvy1KWdJQEiqYIuI9Lb4/xOyjSwVNLIJmbEzE6
Sds9sjxqEcU4CconTVJazvHZtnBRV8GiRYKad/xgQ6J+/Z0=
-----END CERTIFICATE-----
