Certificate:
    Data:
        Version: 3 (0x2)
        Serial Number:
            fa:a1:3c:73:ac:45:ca:ca:b1:4c:13:2f:37:d6:b5:6a
    Signature Algorithm: sha256WithRSAEncryption
        Issuer: C=FR, ST=Paris, L=Paris, O=Gandi, CN=Gandi Standard SSL CA 2
        Validity
            Not Before: Dec 20 00:00:00 2014 GMT
            Not After : Dec 31 23:59:59 2015 GMT
        Subject: OU=Domain Control Validated, OU=Gandi Standard SSL, CN=db.debian.org
        Subject Public Key Info:
            Public Key Algorithm: rsaEncryption
                Public-Key: (3072 bit)
                Modulus:
                    00:df:fb:0e:56:59:29:1e:52:10:bc:c5:ee:b7:67:
                    e8:b5:b1:b9:e6:e9:57:21:6e:d5:e5:e5:b7:3c:62:
                    f8:c8:a0:f5:c4:74:65:90:f7:86:9d:09:71:4a:de:
                    b0:00:4e:cc:4e:ba:02:e8:46:b5:c1:6e:b3:f2:7f:
                    f3:c0:86:33:6a:f7:f6:ed:e7:e5:a7:39:3b:fe:18:
                    a6:9e:7b:f7:de:d8:25:15:7b:db:97:4b:e2:85:fb:
                    e5:5a:5c:e2:9f:23:10:8f:cb:c8:81:6d:79:93:76:
                    db:38:af:f7:35:bb:a8:22:8a:6a:19:ea:d6:db:aa:
                    0e:45:7e:f3:80:44:01:1a:55:74:86:9a:5a:69:ff:
                    2a:ab:04:83:17:8d:2a:89:b2:38:bb:e7:f7:a2:15:
                    09:30:05:ef:ca:ee:74:f9:89:1d:f4:82:97:ef:8d:
                    16:68:34:ca:ee:c3:3f:2b:97:7f:c6:09:7c:0e:a3:
                    f3:f9:05:b9:e6:a7:2b:60:75:cb:fc:30:f0:c4:9b:
                    2f:78:80:76:02:f0:56:d4:49:93:04:58:c8:a9:fc:
                    a7:9f:b2:6f:0c:d7:f4:bd:fa:19:68:18:b3:d3:97:
                    52:7f:31:e3:de:13:e4:68:db:19:05:71:50:db:7b:
                    a8:99:d1:b6:25:30:61:5a:22:38:04:6b:bf:51:08:
                    d0:2a:b8:00:d5:d5:68:b0:dc:91:ce:72:d1:ad:8f:
                    63:77:38:35:65:65:28:66:1b:77:17:50:0b:59:fa:
                    9c:7f:77:99:60:c8:af:ab:ee:ec:95:f7:0a:a0:c3:
                    af:c1:41:94:d5:55:b6:20:62:bf:4a:bf:7a:25:5b:
                    f5:dc:c1:cc:e9:ed:b7:78:40:e8:63:89:14:0b:b0:
                    0c:37:fb:83:b9:ea:1a:af:2a:a9:ca:fb:10:8c:95:
                    07:cc:ad:43:95:cc:82:d2:c2:a6:62:64:2f:32:1d:
                    45:87:dd:b1:03:1a:ed:c0:1b:97:44:c7:03:0c:17:
                    8a:07:28:b4:50:34:69:82:0f:05
                Exponent: 65537 (0x10001)
        X509v3 extensions:
            X509v3 Authority Key Identifier: 
                keyid:B3:90:A7:D8:C9:AF:4E:CD:61:3C:9F:7C:AD:5D:7F:41:FD:69:30:EA

            X509v3 Subject Key Identifier: 
                32:46:59:7C:E7:0A:EF:FE:AB:21:4B:0A:65:08:E1:C9:97:CB:50:C2
            X509v3 Key Usage: critical
                Digital Signature, Key Encipherment
            X509v3 Basic Constraints: critical
                CA:FALSE
            X509v3 Extended Key Usage: 
                TLS Web Server Authentication, TLS Web Client Authentication
            X509v3 Certificate Policies: 
                Policy: 1.3.6.1.4.1.6449.1.2.2.26
                  CPS: https://cps.usertrust.com
                Policy: 2.23.140.1.2.1

            X509v3 CRL Distribution Points: 

                Full Name:
                  URI:http://crl.usertrust.com/GandiStandardSSLCA2.crl

            Authority Information Access: 
                CA Issuers - URI:http://crt.usertrust.com/GandiStandardSSLCA2.crt
                OCSP - URI:http://ocsp.usertrust.com

            X509v3 Subject Alternative Name: 
                DNS:db.debian.org, DNS:www.db.debian.org
    Signature Algorithm: sha256WithRSAEncryption
         14:45:e8:81:02:a8:ca:1f:6e:d8:90:f2:61:54:11:ff:4d:fa:
         f8:ed:4b:5c:6a:c1:25:44:f9:a7:a6:1f:83:01:3e:1a:e0:bb:
         ae:e0:cd:14:8a:f0:47:11:e8:3d:ec:1e:a8:3e:e4:5b:7f:5d:
         39:89:61:fb:9d:0f:e2:74:a7:9a:19:dc:71:f7:4b:31:5f:15:
         9f:11:7d:57:5d:0f:c6:7a:98:18:08:89:be:54:c8:89:51:f9:
         80:01:16:3f:d9:1a:d6:97:2b:8d:eb:a5:39:ec:22:b5:3c:63:
         fc:ba:d3:6e:74:46:36:6e:9a:90:cd:c6:4a:3b:06:7c:55:20:
         4a:da:f9:0d:b4:ad:89:77:8c:b2:9f:2d:8c:4a:b6:7c:1e:1d:
         45:1a:96:93:34:45:7c:af:72:b7:96:91:42:54:e9:5f:e5:c5:
         b0:cc:03:40:6b:69:50:59:53:f7:77:c8:93:f8:f8:8f:d6:99:
         d0:c5:0a:38:2a:05:46:34:cb:41:4b:80:6d:7b:4b:d8:5d:b5:
         88:d4:90:77:13:24:23:f9:82:12:53:b0:c3:11:b2:cc:cd:04:
         bf:22:eb:81:f0:f3:b4:4e:99:26:03:3a:b3:9f:7b:a3:29:b5:
         9f:54:64:91:4d:16:20:6b:9d:64:9b:91:61:4f:cd:5c:b9:14:
         2a:8a:72:02
-----BEGIN CERTIFICATE-----
MIIFdzCCBF+gAwIBAgIRAPqhPHOsRcrKsUwTLzfWtWowDQYJKoZIhvcNAQELBQAw
XzELMAkGA1UEBhMCRlIxDjAMBgNVBAgTBVBhcmlzMQ4wDAYDVQQHEwVQYXJpczEO
MAwGA1UEChMFR2FuZGkxIDAeBgNVBAMTF0dhbmRpIFN0YW5kYXJkIFNTTCBDQSAy
MB4XDTE0MTIyMDAwMDAwMFoXDTE1MTIzMTIzNTk1OVowWDEhMB8GA1UECxMYRG9t
YWluIENvbnRyb2wgVmFsaWRhdGVkMRswGQYDVQQLExJHYW5kaSBTdGFuZGFyZCBT
U0wxFjAUBgNVBAMTDWRiLmRlYmlhbi5vcmcwggGiMA0GCSqGSIb3DQEBAQUAA4IB
jwAwggGKAoIBgQDf+w5WWSkeUhC8xe63Z+i1sbnm6VchbtXl5bc8YvjIoPXEdGWQ
94adCXFK3rAATsxOugLoRrXBbrPyf/PAhjNq9/bt5+WnOTv+GKaee/fe2CUVe9uX
S+KF++VaXOKfIxCPy8iBbXmTdts4r/c1u6giimoZ6tbbqg5FfvOARAEaVXSGmlpp
/yqrBIMXjSqJsji75/eiFQkwBe/K7nT5iR30gpfvjRZoNMruwz8rl3/GCXwOo/P5
Bbnmpytgdcv8MPDEmy94gHYC8FbUSZMEWMip/Kefsm8M1/S9+hloGLPTl1J/MePe
E+Ro2xkFcVDbe6iZ0bYlMGFaIjgEa79RCNAquADV1Wiw3JHOctGtj2N3ODVlZShm
G3cXUAtZ+px/d5lgyK+r7uyV9wqgw6/BQZTVVbYgYr9Kv3olW/Xcwczp7bd4QOhj
iRQLsAw3+4O56hqvKqnK+xCMlQfMrUOVzILSwqZiZC8yHUWH3bEDGu3AG5dExwMM
F4oHKLRQNGmCDwUCAwEAAaOCAbMwggGvMB8GA1UdIwQYMBaAFLOQp9jJr07NYTyf
fK1df0H9aTDqMB0GA1UdDgQWBBQyRll85wrv/qshSwplCOHJl8tQwjAOBgNVHQ8B
Af8EBAMCBaAwDAYDVR0TAQH/BAIwADAdBgNVHSUEFjAUBggrBgEFBQcDAQYIKwYB
BQUHAwIwSwYDVR0gBEQwQjA2BgsrBgEEAbIxAQICGjAnMCUGCCsGAQUFBwIBFhlo
dHRwczovL2Nwcy51c2VydHJ1c3QuY29tMAgGBmeBDAECATBBBgNVHR8EOjA4MDag
NKAyhjBodHRwOi8vY3JsLnVzZXJ0cnVzdC5jb20vR2FuZGlTdGFuZGFyZFNTTENB
Mi5jcmwwcwYIKwYBBQUHAQEEZzBlMDwGCCsGAQUFBzAChjBodHRwOi8vY3J0LnVz
ZXJ0cnVzdC5jb20vR2FuZGlTdGFuZGFyZFNTTENBMi5jcnQwJQYIKwYBBQUHMAGG
GWh0dHA6Ly9vY3NwLnVzZXJ0cnVzdC5jb20wKwYDVR0RBCQwIoINZGIuZGViaWFu
Lm9yZ4IRd3d3LmRiLmRlYmlhbi5vcmcwDQYJKoZIhvcNAQELBQADggEBABRF6IEC
qMofbtiQ8mFUEf9N+vjtS1xqwSVE+aemH4MBPhrgu67gzRSK8EcR6D3sHqg+5Ft/
XTmJYfudD+J0p5oZ3HH3SzFfFZ8RfVddD8Z6mBgIib5UyIlR+YABFj/ZGtaXK43r
pTnsIrU8Y/y60250RjZumpDNxko7BnxVIEra+Q20rYl3jLKfLYxKtnweHUUalpM0
RXyvcreWkUJU6V/lxbDMA0BraVBZU/d3yJP4+I/WmdDFCjgqBUY0y0FLgG17S9hd
tYjUkHcTJCP5ghJTsMMRsszNBL8i64Hw87ROmSYDOrOfe6MptZ9UZJFNFiBrnWSb
kWFPzVy5FCqKcgI=
-----END CERTIFICATE-----
