Certificate:
    Data:
        Version: 3 (0x2)
        Serial Number:
            63:97:d4:fe:d6:83:57:fe:e9:ca:da:cc:a5:50:d7:24
    Signature Algorithm: sha1WithRSAEncryption
        Issuer: C=FR, O=GANDI SAS, CN=Gandi Standard SSL CA
        Validity
            Not Before: Jan  1 00:00:00 2014 GMT
            Not After : Jan  1 23:59:59 2015 GMT
        Subject: OU=Domain Control Validated, OU=Gandi Standard SSL, CN=dsa.debian.org
        Subject Public Key Info:
            Public Key Algorithm: rsaEncryption
                Public-Key: (3072 bit)
                Modulus:
                    00:dd:23:62:3b:ff:51:5a:be:e6:16:a5:ea:21:f7:
                    0d:d2:bb:9a:7a:53:f1:07:f1:45:37:4a:75:d3:72:
                    07:d4:97:72:d1:fa:8d:17:db:d1:76:c1:68:bc:cd:
                    be:b6:d8:80:84:6e:8e:0e:51:7a:3c:6f:20:0b:d5:
                    b6:f6:f6:fd:f8:11:cd:af:38:5e:65:3c:94:f0:7f:
                    26:62:aa:3d:84:84:70:2f:b6:7c:f1:ed:bd:c5:ff:
                    03:51:ed:60:47:2f:4a:14:de:ef:22:c5:cc:a7:17:
                    7e:39:80:4a:11:2d:61:3c:1b:d0:5e:c2:28:89:3a:
                    a5:17:fd:21:a8:20:42:15:6e:78:72:27:b4:4f:0e:
                    62:5c:0d:63:68:65:55:f2:fd:1a:dc:8d:56:3c:3d:
                    00:6c:d3:fa:d3:b7:95:fe:cd:7d:48:1b:98:07:e6:
                    0b:a8:7b:94:ea:67:47:51:cc:fa:cc:44:80:d3:12:
                    58:ac:29:86:55:bf:35:30:6f:41:59:4f:3d:ee:b8:
                    86:de:59:28:5b:81:79:f1:da:e4:75:f0:47:dd:e5:
                    f0:fb:9c:03:11:85:88:ca:d0:5a:2f:68:5e:de:c3:
                    f2:82:14:5e:f3:1f:83:a9:0e:c9:c6:10:54:94:21:
                    8d:10:e5:58:51:e6:fd:61:08:e7:76:24:29:39:0f:
                    7e:80:b7:69:3b:ed:62:39:5d:6b:91:e9:e4:7b:cb:
                    f3:22:df:4f:3b:bc:26:4d:0f:bd:bd:77:c5:d2:55:
                    62:4f:cb:4c:6b:70:d6:76:b9:f6:fd:be:2c:b3:31:
                    fc:d9:39:58:36:1a:2d:e3:dc:04:5b:d8:b4:8c:ad:
                    8d:03:16:08:a6:7c:7a:6c:04:a4:52:47:c7:c5:c0:
                    b3:c2:d7:46:f6:57:61:bc:73:cd:90:bb:ee:1d:f2:
                    8c:a5:25:cc:0d:91:bb:26:a0:46:f4:ca:6e:3b:0f:
                    7e:af:7b:20:cf:78:bb:f4:10:6c:bb:0d:bb:8e:86:
                    f9:cb:cd:b8:94:9f:f3:af:8a:85
                Exponent: 65537 (0x10001)
        X509v3 extensions:
            X509v3 Authority Key Identifier: 
                keyid:B6:A8:FF:A2:A8:2F:D0:A6:CD:4B:B1:68:F3:E7:50:10:31:A7:79:21

            X509v3 Subject Key Identifier: 
                1B:D8:A4:5A:A9:00:E8:FF:79:88:1D:38:C8:71:9D:35:D3:BB:98:E7
            X509v3 Key Usage: critical
                Digital Signature, Key Encipherment
            X509v3 Basic Constraints: critical
                CA:FALSE
            X509v3 Extended Key Usage: 
                TLS Web Server Authentication, TLS Web Client Authentication
            X509v3 Certificate Policies: 
                Policy: 1.3.6.1.4.1.6449.1.2.2.26
                  CPS: http://www.gandi.net/contracts/fr/ssl/cps/pdf/
                Policy: 2.23.140.1.2.1

            X509v3 CRL Distribution Points: 

                Full Name:
                  URI:http://crl.gandi.net/GandiStandardSSLCA.crl

            Authority Information Access: 
                CA Issuers - URI:http://crt.gandi.net/GandiStandardSSLCA.crt
                OCSP - URI:http://ocsp.gandi.net

            X509v3 Subject Alternative Name: 
                DNS:dsa.debian.org, DNS:www.dsa.debian.org
    Signature Algorithm: sha1WithRSAEncryption
         7b:15:d3:17:b0:d0:53:fd:75:dd:d3:b5:01:e5:69:14:82:02:
         99:f8:8a:d2:b3:d9:e6:fb:96:31:a2:29:5f:6e:d7:63:cd:21:
         66:bf:73:5b:20:30:b6:8a:ac:6f:7c:63:f5:ed:9d:b7:5d:ed:
         ac:cc:2d:65:5b:ac:ba:86:9e:90:51:21:ed:c8:05:52:37:fe:
         fe:d3:bb:38:17:98:d5:90:4d:64:08:95:72:44:dd:e4:e7:fd:
         53:9c:cf:09:0a:1c:4a:7e:55:14:f8:aa:71:ad:56:86:68:cd:
         3c:be:38:85:72:fd:0a:20:99:e1:2e:3c:c0:51:ff:69:ba:66:
         02:7e:6e:44:3f:c0:ed:33:4d:c1:0e:d5:aa:a1:b0:ea:39:72:
         01:dc:c6:86:52:0d:74:38:0c:2f:41:2d:8e:af:60:9f:b7:a6:
         29:ea:9c:8f:aa:32:22:95:74:13:98:5a:88:d8:ca:3d:d0:03:
         55:be:9e:8b:fd:85:c3:d9:80:cc:d2:f9:d1:c1:9f:7d:2d:5e:
         12:de:6b:e7:40:b7:50:eb:de:6c:a6:84:23:3f:a2:58:ee:db:
         0d:4b:e7:d4:01:d0:5a:89:17:c5:96:67:bd:5b:fb:a0:30:58:
         d6:2f:56:8b:fd:b2:00:be:b8:04:74:3b:33:17:cb:eb:06:05:
         67:7b:c4:08
-----BEGIN CERTIFICATE-----
MIIFYjCCBEqgAwIBAgIQY5fU/taDV/7pytrMpVDXJDANBgkqhkiG9w0BAQUFADBB
MQswCQYDVQQGEwJGUjESMBAGA1UEChMJR0FOREkgU0FTMR4wHAYDVQQDExVHYW5k
aSBTdGFuZGFyZCBTU0wgQ0EwHhcNMTQwMTAxMDAwMDAwWhcNMTUwMTAxMjM1OTU5
WjBZMSEwHwYDVQQLExhEb21haW4gQ29udHJvbCBWYWxpZGF0ZWQxGzAZBgNVBAsT
EkdhbmRpIFN0YW5kYXJkIFNTTDEXMBUGA1UEAxMOZHNhLmRlYmlhbi5vcmcwggGi
MA0GCSqGSIb3DQEBAQUAA4IBjwAwggGKAoIBgQDdI2I7/1FavuYWpeoh9w3Su5p6
U/EH8UU3SnXTcgfUl3LR+o0X29F2wWi8zb622ICEbo4OUXo8byAL1bb29v34Ec2v
OF5lPJTwfyZiqj2EhHAvtnzx7b3F/wNR7WBHL0oU3u8ixcynF345gEoRLWE8G9Be
wiiJOqUX/SGoIEIVbnhyJ7RPDmJcDWNoZVXy/RrcjVY8PQBs0/rTt5X+zX1IG5gH
5guoe5TqZ0dRzPrMRIDTElisKYZVvzUwb0FZTz3uuIbeWShbgXnx2uR18Efd5fD7
nAMRhYjK0FovaF7ew/KCFF7zH4OpDsnGEFSUIY0Q5VhR5v1hCOd2JCk5D36At2k7
7WI5XWuR6eR7y/Mi3087vCZND729d8XSVWJPy0xrcNZ2ufb9viyzMfzZOVg2Gi3j
3ARb2LSMrY0DFgimfHpsBKRSR8fFwLPC10b2V2G8c82Qu+4d8oylJcwNkbsmoEb0
ym47D36veyDPeLv0EGy7DbuOhvnLzbiUn/OvioUCAwEAAaOCAbwwggG4MB8GA1Ud
IwQYMBaAFLao/6KoL9CmzUuxaPPnUBAxp3khMB0GA1UdDgQWBBQb2KRaqQDo/3mI
HTjIcZ0107uY5zAOBgNVHQ8BAf8EBAMCBaAwDAYDVR0TAQH/BAIwADAdBgNVHSUE
FjAUBggrBgEFBQcDAQYIKwYBBQUHAwIwYAYDVR0gBFkwVzBLBgsrBgEEAbIxAQIC
GjA8MDoGCCsGAQUFBwIBFi5odHRwOi8vd3d3LmdhbmRpLm5ldC9jb250cmFjdHMv
ZnIvc3NsL2Nwcy9wZGYvMAgGBmeBDAECATA8BgNVHR8ENTAzMDGgL6AthitodHRw
Oi8vY3JsLmdhbmRpLm5ldC9HYW5kaVN0YW5kYXJkU1NMQ0EuY3JsMGoGCCsGAQUF
BwEBBF4wXDA3BggrBgEFBQcwAoYraHR0cDovL2NydC5nYW5kaS5uZXQvR2FuZGlT
dGFuZGFyZFNTTENBLmNydDAhBggrBgEFBQcwAYYVaHR0cDovL29jc3AuZ2FuZGku
bmV0MC0GA1UdEQQmMCSCDmRzYS5kZWJpYW4ub3JnghJ3d3cuZHNhLmRlYmlhbi5v
cmcwDQYJKoZIhvcNAQEFBQADggEBAHsV0xew0FP9dd3TtQHlaRSCApn4itKz2eb7
ljGiKV9u12PNIWa/c1sgMLaKrG98Y/Xtnbdd7azMLWVbrLqGnpBRIe3IBVI3/v7T
uzgXmNWQTWQIlXJE3eTn/VOczwkKHEp+VRT4qnGtVoZozTy+OIVy/QogmeEuPMBR
/2m6ZgJ+bkQ/wO0zTcEO1aqhsOo5cgHcxoZSDXQ4DC9BLY6vYJ+3pinqnI+qMiKV
dBOYWojYyj3QA1W+nov9hcPZgMzS+dHBn30tXhLea+dAt1Dr3mymhCM/olju2w1L
59QB0FqJF8WWZ71b+6AwWNYvVov9sgC+uAR0OzMXy+sGBWd7xAg=
-----END CERTIFICATE-----
