Certificate:
    Data:
        Version: 3 (0x2)
        Serial Number:
            a0:32:ca:f0:3b:d1:d2:68:c8:be:1a:18:75:13:65:4d
    Signature Algorithm: sha256WithRSAEncryption
        Issuer: C=FR, ST=Paris, L=Paris, O=Gandi, CN=Gandi Standard SSL CA 2
        Validity
            Not Before: Dec 17 00:00:00 2014 GMT
            Not After : Jan  1 23:59:59 2016 GMT
        Subject: OU=Domain Control Validated, OU=Gandi Standard SSL, CN=dsa.debian.org
        Subject Public Key Info:
            Public Key Algorithm: rsaEncryption
                Public-Key: (3072 bit)
                Modulus:
                    00:dd:23:62:3b:ff:51:5a:be:e6:16:a5:ea:21:f7:
                    0d:d2:bb:9a:7a:53:f1:07:f1:45:37:4a:75:d3:72:
                    07:d4:97:72:d1:fa:8d:17:db:d1:76:c1:68:bc:cd:
                    be:b6:d8:80:84:6e:8e:0e:51:7a:3c:6f:20:0b:d5:
                    b6:f6:f6:fd:f8:11:cd:af:38:5e:65:3c:94:f0:7f:
                    26:62:aa:3d:84:84:70:2f:b6:7c:f1:ed:bd:c5:ff:
                    03:51:ed:60:47:2f:4a:14:de:ef:22:c5:cc:a7:17:
                    7e:39:80:4a:11:2d:61:3c:1b:d0:5e:c2:28:89:3a:
                    a5:17:fd:21:a8:20:42:15:6e:78:72:27:b4:4f:0e:
                    62:5c:0d:63:68:65:55:f2:fd:1a:dc:8d:56:3c:3d:
                    00:6c:d3:fa:d3:b7:95:fe:cd:7d:48:1b:98:07:e6:
                    0b:a8:7b:94:ea:67:47:51:cc:fa:cc:44:80:d3:12:
                    58:ac:29:86:55:bf:35:30:6f:41:59:4f:3d:ee:b8:
                    86:de:59:28:5b:81:79:f1:da:e4:75:f0:47:dd:e5:
                    f0:fb:9c:03:11:85:88:ca:d0:5a:2f:68:5e:de:c3:
                    f2:82:14:5e:f3:1f:83:a9:0e:c9:c6:10:54:94:21:
                    8d:10:e5:58:51:e6:fd:61:08:e7:76:24:29:39:0f:
                    7e:80:b7:69:3b:ed:62:39:5d:6b:91:e9:e4:7b:cb:
                    f3:22:df:4f:3b:bc:26:4d:0f:bd:bd:77:c5:d2:55:
                    62:4f:cb:4c:6b:70:d6:76:b9:f6:fd:be:2c:b3:31:
                    fc:d9:39:58:36:1a:2d:e3:dc:04:5b:d8:b4:8c:ad:
                    8d:03:16:08:a6:7c:7a:6c:04:a4:52:47:c7:c5:c0:
                    b3:c2:d7:46:f6:57:61:bc:73:cd:90:bb:ee:1d:f2:
                    8c:a5:25:cc:0d:91:bb:26:a0:46:f4:ca:6e:3b:0f:
                    7e:af:7b:20:cf:78:bb:f4:10:6c:bb:0d:bb:8e:86:
                    f9:cb:cd:b8:94:9f:f3:af:8a:85
                Exponent: 65537 (0x10001)
        X509v3 extensions:
            X509v3 Authority Key Identifier: 
                keyid:B3:90:A7:D8:C9:AF:4E:CD:61:3C:9F:7C:AD:5D:7F:41:FD:69:30:EA

            X509v3 Subject Key Identifier: 
                1B:D8:A4:5A:A9:00:E8:FF:79:88:1D:38:C8:71:9D:35:D3:BB:98:E7
            X509v3 Key Usage: critical
                Digital Signature, Key Encipherment
            X509v3 Basic Constraints: critical
                CA:FALSE
            X509v3 Extended Key Usage: 
                TLS Web Server Authentication, TLS Web Client Authentication
            X509v3 Certificate Policies: 
                Policy: 1.3.6.1.4.1.6449.1.2.2.26
                  CPS: https://cps.usertrust.com
                Policy: 2.23.140.1.2.1

            X509v3 CRL Distribution Points: 

                Full Name:
                  URI:http://crl.usertrust.com/GandiStandardSSLCA2.crl

            Authority Information Access: 
                CA Issuers - URI:http://crt.usertrust.com/GandiStandardSSLCA2.crt
                OCSP - URI:http://ocsp.usertrust.com

            X509v3 Subject Alternative Name: 
                DNS:dsa.debian.org, DNS:www.dsa.debian.org
    Signature Algorithm: sha256WithRSAEncryption
         6c:da:dd:dd:c7:03:44:88:ae:42:b7:86:67:cf:5b:74:33:da:
         dc:7b:40:db:94:fd:36:8b:b1:9a:ee:0d:c3:7e:15:35:9b:70:
         c2:54:53:5c:4e:cc:00:12:a6:a7:c1:d6:67:8c:ca:e2:59:75:
         17:f6:25:74:0c:d2:75:72:31:c2:ea:c0:a3:95:e3:a6:0f:22:
         a1:3e:6f:d3:00:65:30:d9:bf:ce:52:b3:ee:e1:0d:c3:90:e3:
         81:73:5d:6d:16:f3:f1:98:de:2c:af:07:7b:d3:8f:13:36:ae:
         81:29:78:85:92:0c:64:89:06:46:9d:b1:3e:c2:ca:ac:3e:0e:
         85:6d:f3:9f:ef:8f:bc:fd:78:10:78:30:74:9d:09:97:f0:fd:
         a3:0f:8f:21:cb:9c:fb:6a:e8:97:fc:04:0a:6d:1f:c6:42:12:
         fc:18:86:dc:5d:b2:59:8b:d7:90:9b:20:2a:a1:61:f6:89:6c:
         5c:8e:9f:33:3d:9b:a8:ce:38:f3:e7:be:3a:82:13:d0:d6:46:
         41:8e:7c:aa:e3:f6:6a:47:11:7b:b5:73:9c:b1:25:98:e1:df:
         41:dd:06:2f:f9:e0:bc:f6:9d:c5:8e:dc:f2:4e:ce:b9:b3:c2:
         c8:e2:81:a7:00:ba:67:a7:bb:ce:11:3e:1b:4f:fb:ad:7e:a0:
         30:d2:52:05
-----BEGIN CERTIFICATE-----
MIIFejCCBGKgAwIBAgIRAKAyyvA70dJoyL4aGHUTZU0wDQYJKoZIhvcNAQELBQAw
XzELMAkGA1UEBhMCRlIxDjAMBgNVBAgTBVBhcmlzMQ4wDAYDVQQHEwVQYXJpczEO
MAwGA1UEChMFR2FuZGkxIDAeBgNVBAMTF0dhbmRpIFN0YW5kYXJkIFNTTCBDQSAy
MB4XDTE0MTIxNzAwMDAwMFoXDTE2MDEwMTIzNTk1OVowWTEhMB8GA1UECxMYRG9t
YWluIENvbnRyb2wgVmFsaWRhdGVkMRswGQYDVQQLExJHYW5kaSBTdGFuZGFyZCBT
U0wxFzAVBgNVBAMTDmRzYS5kZWJpYW4ub3JnMIIBojANBgkqhkiG9w0BAQEFAAOC
AY8AMIIBigKCAYEA3SNiO/9RWr7mFqXqIfcN0ruaelPxB/FFN0p103IH1Jdy0fqN
F9vRdsFovM2+ttiAhG6ODlF6PG8gC9W29vb9+BHNrzheZTyU8H8mYqo9hIRwL7Z8
8e29xf8DUe1gRy9KFN7vIsXMpxd+OYBKES1hPBvQXsIoiTqlF/0hqCBCFW54cie0
Tw5iXA1jaGVV8v0a3I1WPD0AbNP607eV/s19SBuYB+YLqHuU6mdHUcz6zESA0xJY
rCmGVb81MG9BWU897riG3lkoW4F58drkdfBH3eXw+5wDEYWIytBaL2he3sPyghRe
8x+DqQ7JxhBUlCGNEOVYUeb9YQjndiQpOQ9+gLdpO+1iOV1rkenke8vzIt9PO7wm
TQ+9vXfF0lViT8tMa3DWdrn2/b4sszH82TlYNhot49wEW9i0jK2NAxYIpnx6bASk
UkfHxcCzwtdG9ldhvHPNkLvuHfKMpSXMDZG7JqBG9MpuOw9+r3sgz3i79BBsuw27
job5y824lJ/zr4qFAgMBAAGjggG1MIIBsTAfBgNVHSMEGDAWgBSzkKfYya9OzWE8
n3ytXX9B/Wkw6jAdBgNVHQ4EFgQUG9ikWqkA6P95iB04yHGdNdO7mOcwDgYDVR0P
AQH/BAQDAgWgMAwGA1UdEwEB/wQCMAAwHQYDVR0lBBYwFAYIKwYBBQUHAwEGCCsG
AQUFBwMCMEsGA1UdIAREMEIwNgYLKwYBBAGyMQECAhowJzAlBggrBgEFBQcCARYZ
aHR0cHM6Ly9jcHMudXNlcnRydXN0LmNvbTAIBgZngQwBAgEwQQYDVR0fBDowODA2
oDSgMoYwaHR0cDovL2NybC51c2VydHJ1c3QuY29tL0dhbmRpU3RhbmRhcmRTU0xD
QTIuY3JsMHMGCCsGAQUFBwEBBGcwZTA8BggrBgEFBQcwAoYwaHR0cDovL2NydC51
c2VydHJ1c3QuY29tL0dhbmRpU3RhbmRhcmRTU0xDQTIuY3J0MCUGCCsGAQUFBzAB
hhlodHRwOi8vb2NzcC51c2VydHJ1c3QuY29tMC0GA1UdEQQmMCSCDmRzYS5kZWJp
YW4ub3JnghJ3d3cuZHNhLmRlYmlhbi5vcmcwDQYJKoZIhvcNAQELBQADggEBAGza
3d3HA0SIrkK3hmfPW3Qz2tx7QNuU/TaLsZruDcN+FTWbcMJUU1xOzAASpqfB1meM
yuJZdRf2JXQM0nVyMcLqwKOV46YPIqE+b9MAZTDZv85Ss+7hDcOQ44FzXW0W8/GY
3iyvB3vTjxM2roEpeIWSDGSJBkadsT7Cyqw+DoVt85/vj7z9eBB4MHSdCZfw/aMP
jyHLnPtq6Jf8BAptH8ZCEvwYhtxdslmL15CbICqhYfaJbFyOnzM9m6jOOPPnvjqC
E9DWRkGOfKrj9mpHEXu1c5yxJZjh30HdBi/54Lz2ncWO3PJOzrmzwsjigacAumen
u84RPhtP+61+oDDSUgU=
-----END CERTIFICATE-----
