Certificate:
    Data:
        Version: 3 (0x2)
        Serial Number:
            60:f4:cb:5d:1f:c9:f9:dd:23:66:3c:1b:f6:f5:ed:34
    Signature Algorithm: sha256WithRSAEncryption
        Issuer: C=FR, ST=Paris, L=Paris, O=Gandi, CN=Gandi Standard SSL CA 2
        Validity
            Not Before: Dec 11 00:00:00 2015 GMT
            Not After : Jan 22 23:59:59 2017 GMT
        Subject: OU=Domain Control Validated, OU=Gandi Standard SSL, CN=dsa.debian.org
        Subject Public Key Info:
            Public Key Algorithm: rsaEncryption
                Public-Key: (3072 bit)
                Modulus:
                    00:dd:23:62:3b:ff:51:5a:be:e6:16:a5:ea:21:f7:
                    0d:d2:bb:9a:7a:53:f1:07:f1:45:37:4a:75:d3:72:
                    07:d4:97:72:d1:fa:8d:17:db:d1:76:c1:68:bc:cd:
                    be:b6:d8:80:84:6e:8e:0e:51:7a:3c:6f:20:0b:d5:
                    b6:f6:f6:fd:f8:11:cd:af:38:5e:65:3c:94:f0:7f:
                    26:62:aa:3d:84:84:70:2f:b6:7c:f1:ed:bd:c5:ff:
                    03:51:ed:60:47:2f:4a:14:de:ef:22:c5:cc:a7:17:
                    7e:39:80:4a:11:2d:61:3c:1b:d0:5e:c2:28:89:3a:
                    a5:17:fd:21:a8:20:42:15:6e:78:72:27:b4:4f:0e:
                    62:5c:0d:63:68:65:55:f2:fd:1a:dc:8d:56:3c:3d:
                    00:6c:d3:fa:d3:b7:95:fe:cd:7d:48:1b:98:07:e6:
                    0b:a8:7b:94:ea:67:47:51:cc:fa:cc:44:80:d3:12:
                    58:ac:29:86:55:bf:35:30:6f:41:59:4f:3d:ee:b8:
                    86:de:59:28:5b:81:79:f1:da:e4:75:f0:47:dd:e5:
                    f0:fb:9c:03:11:85:88:ca:d0:5a:2f:68:5e:de:c3:
                    f2:82:14:5e:f3:1f:83:a9:0e:c9:c6:10:54:94:21:
                    8d:10:e5:58:51:e6:fd:61:08:e7:76:24:29:39:0f:
                    7e:80:b7:69:3b:ed:62:39:5d:6b:91:e9:e4:7b:cb:
                    f3:22:df:4f:3b:bc:26:4d:0f:bd:bd:77:c5:d2:55:
                    62:4f:cb:4c:6b:70:d6:76:b9:f6:fd:be:2c:b3:31:
                    fc:d9:39:58:36:1a:2d:e3:dc:04:5b:d8:b4:8c:ad:
                    8d:03:16:08:a6:7c:7a:6c:04:a4:52:47:c7:c5:c0:
                    b3:c2:d7:46:f6:57:61:bc:73:cd:90:bb:ee:1d:f2:
                    8c:a5:25:cc:0d:91:bb:26:a0:46:f4:ca:6e:3b:0f:
                    7e:af:7b:20:cf:78:bb:f4:10:6c:bb:0d:bb:8e:86:
                    f9:cb:cd:b8:94:9f:f3:af:8a:85
                Exponent: 65537 (0x10001)
        X509v3 extensions:
            X509v3 Authority Key Identifier: 
                keyid:B3:90:A7:D8:C9:AF:4E:CD:61:3C:9F:7C:AD:5D:7F:41:FD:69:30:EA

            X509v3 Subject Key Identifier: 
                1B:D8:A4:5A:A9:00:E8:FF:79:88:1D:38:C8:71:9D:35:D3:BB:98:E7
            X509v3 Key Usage: critical
                Digital Signature, Key Encipherment
            X509v3 Basic Constraints: critical
                CA:FALSE
            X509v3 Extended Key Usage: 
                TLS Web Server Authentication, TLS Web Client Authentication
            X509v3 Certificate Policies: 
                Policy: 1.3.6.1.4.1.6449.1.2.2.26
                  CPS: https://cps.usertrust.com
                Policy: 2.23.140.1.2.1

            X509v3 CRL Distribution Points: 

                Full Name:
                  URI:http://crl.usertrust.com/GandiStandardSSLCA2.crl

            Authority Information Access: 
                CA Issuers - URI:http://crt.usertrust.com/GandiStandardSSLCA2.crt
                OCSP - URI:http://ocsp.usertrust.com

            X509v3 Subject Alternative Name: 
                DNS:dsa.debian.org, DNS:www.dsa.debian.org
    Signature Algorithm: sha256WithRSAEncryption
         24:04:ec:db:51:1b:72:b2:d5:0a:c0:e6:28:68:8d:74:7e:e0:
         8a:69:bc:81:a8:c2:f1:21:cd:99:43:87:92:d5:1d:f2:f5:0b:
         3f:36:e7:fc:1d:60:4f:be:59:3d:b1:09:38:5e:0e:f1:7d:8c:
         ed:23:c6:4f:09:76:72:cc:db:ce:51:19:c3:dd:9f:03:49:21:
         8b:59:17:88:20:a4:6a:99:fa:27:b8:75:02:6c:29:31:48:f0:
         7b:67:ae:b2:ec:21:4e:64:24:88:4d:e3:4b:24:4c:6f:33:2b:
         f5:73:29:87:61:c2:0e:b6:fa:79:2b:00:fd:f3:86:bc:5f:97:
         3c:90:65:bf:7f:3e:8a:28:d5:b9:85:7a:3d:2f:c2:d1:7d:2b:
         f7:14:77:1b:dc:3d:76:2b:3c:3b:32:ab:35:65:bf:72:cb:f2:
         f4:c0:97:93:5d:86:28:9a:36:9f:8e:33:44:36:fb:01:d9:c1:
         20:d3:f1:b4:0f:c3:58:e5:75:51:7d:da:c0:28:8f:ef:ce:dc:
         3d:4a:91:d1:8f:da:eb:f9:a9:2b:67:0d:3a:c2:86:dd:23:bb:
         8f:d0:36:aa:33:23:da:da:ca:42:4e:82:6d:2e:f5:1c:db:3a:
         d3:32:e4:90:a9:1f:94:d5:ba:67:ef:0d:d9:3c:a7:2d:2f:b1:
         90:bf:54:cb
-----BEGIN CERTIFICATE-----
MIIFeTCCBGGgAwIBAgIQYPTLXR/J+d0jZjwb9vXtNDANBgkqhkiG9w0BAQsFADBf
MQswCQYDVQQGEwJGUjEOMAwGA1UECBMFUGFyaXMxDjAMBgNVBAcTBVBhcmlzMQ4w
DAYDVQQKEwVHYW5kaTEgMB4GA1UEAxMXR2FuZGkgU3RhbmRhcmQgU1NMIENBIDIw
HhcNMTUxMjExMDAwMDAwWhcNMTcwMTIyMjM1OTU5WjBZMSEwHwYDVQQLExhEb21h
aW4gQ29udHJvbCBWYWxpZGF0ZWQxGzAZBgNVBAsTEkdhbmRpIFN0YW5kYXJkIFNT
TDEXMBUGA1UEAxMOZHNhLmRlYmlhbi5vcmcwggGiMA0GCSqGSIb3DQEBAQUAA4IB
jwAwggGKAoIBgQDdI2I7/1FavuYWpeoh9w3Su5p6U/EH8UU3SnXTcgfUl3LR+o0X
29F2wWi8zb622ICEbo4OUXo8byAL1bb29v34Ec2vOF5lPJTwfyZiqj2EhHAvtnzx
7b3F/wNR7WBHL0oU3u8ixcynF345gEoRLWE8G9BewiiJOqUX/SGoIEIVbnhyJ7RP
DmJcDWNoZVXy/RrcjVY8PQBs0/rTt5X+zX1IG5gH5guoe5TqZ0dRzPrMRIDTElis
KYZVvzUwb0FZTz3uuIbeWShbgXnx2uR18Efd5fD7nAMRhYjK0FovaF7ew/KCFF7z
H4OpDsnGEFSUIY0Q5VhR5v1hCOd2JCk5D36At2k77WI5XWuR6eR7y/Mi3087vCZN
D729d8XSVWJPy0xrcNZ2ufb9viyzMfzZOVg2Gi3j3ARb2LSMrY0DFgimfHpsBKRS
R8fFwLPC10b2V2G8c82Qu+4d8oylJcwNkbsmoEb0ym47D36veyDPeLv0EGy7DbuO
hvnLzbiUn/OvioUCAwEAAaOCAbUwggGxMB8GA1UdIwQYMBaAFLOQp9jJr07NYTyf
fK1df0H9aTDqMB0GA1UdDgQWBBQb2KRaqQDo/3mIHTjIcZ0107uY5zAOBgNVHQ8B
Af8EBAMCBaAwDAYDVR0TAQH/BAIwADAdBgNVHSUEFjAUBggrBgEFBQcDAQYIKwYB
BQUHAwIwSwYDVR0gBEQwQjA2BgsrBgEEAbIxAQICGjAnMCUGCCsGAQUFBwIBFhlo
dHRwczovL2Nwcy51c2VydHJ1c3QuY29tMAgGBmeBDAECATBBBgNVHR8EOjA4MDag
NKAyhjBodHRwOi8vY3JsLnVzZXJ0cnVzdC5jb20vR2FuZGlTdGFuZGFyZFNTTENB
Mi5jcmwwcwYIKwYBBQUHAQEEZzBlMDwGCCsGAQUFBzAChjBodHRwOi8vY3J0LnVz
ZXJ0cnVzdC5jb20vR2FuZGlTdGFuZGFyZFNTTENBMi5jcnQwJQYIKwYBBQUHMAGG
GWh0dHA6Ly9vY3NwLnVzZXJ0cnVzdC5jb20wLQYDVR0RBCYwJIIOZHNhLmRlYmlh
bi5vcmeCEnd3dy5kc2EuZGViaWFuLm9yZzANBgkqhkiG9w0BAQsFAAOCAQEAJATs
21EbcrLVCsDmKGiNdH7gimm8gajC8SHNmUOHktUd8vULPzbn/B1gT75ZPbEJOF4O
8X2M7SPGTwl2cszbzlEZw92fA0khi1kXiCCkapn6J7h1AmwpMUjwe2eusuwhTmQk
iE3jSyRMbzMr9XMph2HCDrb6eSsA/fOGvF+XPJBlv38+iijVuYV6PS/C0X0r9xR3
G9w9dis8OzKrNWW/csvy9MCXk12GKJo2n44zRDb7AdnBINPxtA/DWOV1UX3awCiP
787cPUqR0Y/a6/mpK2cNOsKG3SO7j9A2qjMj2trKQk6CbS71HNs60zLkkKkflNW6
Z+8N2TynLS+xkL9Uyw==
-----END CERTIFICATE-----
