Certificate:
    Data:
        Version: 3 (0x2)
        Serial Number:
            89:a7:8a:c4:31:48:aa:49:41:a0:75:99:3a:5d:da:db
    Signature Algorithm: sha1WithRSAEncryption
        Issuer: C=FR, O=GANDI SAS, CN=Gandi Standard SSL CA
        Validity
            Not Before: Jan  1 00:00:00 2014 GMT
            Not After : Jan  1 23:59:59 2015 GMT
        Subject: OU=Domain Control Validated, OU=Gandi Standard SSL, CN=ftp-master.debian.org
        Subject Public Key Info:
            Public Key Algorithm: rsaEncryption
                Public-Key: (2048 bit)
                Modulus:
                    00:c5:57:9a:19:1d:10:10:f1:4d:46:4b:3b:45:27:
                    e4:10:78:a3:06:c5:81:da:e0:67:89:ac:10:bf:ad:
                    1b:91:be:74:06:1c:dc:97:2c:b1:38:85:f2:dc:45:
                    ec:69:9c:d3:df:bd:55:53:e9:9d:97:b2:52:e0:05:
                    f5:bb:bb:39:d2:3c:73:a8:0c:2f:86:ed:a1:2d:82:
                    e1:de:67:48:9c:b6:1b:74:7d:a1:df:1a:f1:83:67:
                    6a:c6:7e:b9:31:6d:da:46:97:b2:88:1d:28:2c:d9:
                    c2:0a:35:bf:03:2c:16:5f:64:ca:b0:09:e3:3f:52:
                    85:58:fa:4d:e3:a5:05:5d:98:2a:d0:91:95:da:48:
                    16:3b:b1:8e:70:17:4e:ce:82:b4:35:21:ec:1f:5c:
                    ff:67:3e:b9:f8:d4:ec:e9:61:8f:31:20:50:ff:dc:
                    8b:ea:ec:c1:82:6e:a1:f7:ae:78:2f:af:0b:20:6c:
                    1e:6a:ba:37:fa:12:f0:7d:4b:47:b0:95:ea:06:cf:
                    06:aa:48:51:b4:52:aa:bd:07:01:40:31:b2:cb:94:
                    2f:c2:b2:22:c1:e6:6d:82:ff:43:71:9e:2c:2b:6e:
                    d9:e3:72:a4:55:d2:5b:1b:1d:38:98:75:7c:34:7f:
                    7d:78:a9:ec:a0:80:15:fc:6e:5b:17:b6:82:21:75:
                    47:79
                Exponent: 65537 (0x10001)
        X509v3 extensions:
            X509v3 Authority Key Identifier: 
                keyid:B6:A8:FF:A2:A8:2F:D0:A6:CD:4B:B1:68:F3:E7:50:10:31:A7:79:21

            X509v3 Subject Key Identifier: 
                3D:5A:AC:A0:37:2A:C5:BE:50:67:FC:07:21:8E:19:AD:72:AB:2A:6C
            X509v3 Key Usage: critical
                Digital Signature, Key Encipherment
            X509v3 Basic Constraints: critical
                CA:FALSE
            X509v3 Extended Key Usage: 
                TLS Web Server Authentication, TLS Web Client Authentication
            X509v3 Certificate Policies: 
                Policy: 1.3.6.1.4.1.6449.1.2.2.26
                  CPS: http://www.gandi.net/contracts/fr/ssl/cps/pdf/
                Policy: 2.23.140.1.2.1

            X509v3 CRL Distribution Points: 

                Full Name:
                  URI:http://crl.gandi.net/GandiStandardSSLCA.crl

            Authority Information Access: 
                CA Issuers - URI:http://crt.gandi.net/GandiStandardSSLCA.crt
                OCSP - URI:http://ocsp.gandi.net

            X509v3 Subject Alternative Name: 
                DNS:ftp-master.debian.org, DNS:www.ftp-master.debian.org
    Signature Algorithm: sha1WithRSAEncryption
         ab:a5:e8:33:a4:f5:9d:72:a0:9a:fd:34:29:d4:a3:ff:98:12:
         04:a7:61:02:49:ca:14:57:56:62:01:b9:b4:67:2a:d5:8c:5b:
         4a:7d:76:ee:9d:3a:3e:44:12:a0:b5:20:a4:ed:2e:01:d4:2f:
         2b:fd:00:21:06:8b:8b:10:c4:b9:fb:91:e1:50:ba:7f:90:a5:
         8d:a4:e0:ab:83:fe:22:da:4c:be:5b:e5:73:5e:0c:86:dc:13:
         04:b4:7a:c9:57:e7:93:b7:e2:3e:c4:31:d2:8b:87:aa:5e:d3:
         dd:26:58:a1:4e:e1:b6:f4:1e:ba:bf:22:de:a6:a1:c7:9f:17:
         c4:98:64:24:de:af:0e:09:bd:2e:86:94:e9:ec:b9:7d:99:40:
         89:1c:f3:17:9f:1e:9d:76:be:b2:29:44:b8:b8:b7:35:18:ff:
         31:bf:42:d1:1e:ff:5e:14:ff:4f:9a:53:a4:bc:92:7c:e9:eb:
         eb:c3:59:b7:2c:d1:1d:77:fe:32:19:14:9c:7d:25:35:7a:0f:
         02:06:9e:d4:9e:e9:d0:24:3a:f8:c4:bf:0c:86:ad:6b:a8:81:
         f9:0e:70:15:ec:b2:54:f3:3f:bf:fd:bb:b0:d3:9f:53:b0:57:
         83:e0:be:39:b2:fd:46:11:cb:7a:0e:81:d8:ac:67:6a:b5:f1:
         a4:d3:4c:87
-----BEGIN CERTIFICATE-----
MIIE+DCCA+CgAwIBAgIRAImnisQxSKpJQaB1mTpd2tswDQYJKoZIhvcNAQEFBQAw
QTELMAkGA1UEBhMCRlIxEjAQBgNVBAoTCUdBTkRJIFNBUzEeMBwGA1UEAxMVR2Fu
ZGkgU3RhbmRhcmQgU1NMIENBMB4XDTE0MDEwMTAwMDAwMFoXDTE1MDEwMTIzNTk1
OVowYDEhMB8GA1UECxMYRG9tYWluIENvbnRyb2wgVmFsaWRhdGVkMRswGQYDVQQL
ExJHYW5kaSBTdGFuZGFyZCBTU0wxHjAcBgNVBAMTFWZ0cC1tYXN0ZXIuZGViaWFu
Lm9yZzCCASIwDQYJKoZIhvcNAQEBBQADggEPADCCAQoCggEBAMVXmhkdEBDxTUZL
O0Un5BB4owbFgdrgZ4msEL+tG5G+dAYc3JcssTiF8txF7Gmc09+9VVPpnZeyUuAF
9bu7OdI8c6gML4btoS2C4d5nSJy2G3R9od8a8YNnasZ+uTFt2kaXsogdKCzZwgo1
vwMsFl9kyrAJ4z9ShVj6TeOlBV2YKtCRldpIFjuxjnAXTs6CtDUh7B9c/2c+ufjU
7OlhjzEgUP/ci+rswYJuofeueC+vCyBsHmq6N/oS8H1LR7CV6gbPBqpIUbRSqr0H
AUAxssuUL8KyIsHmbYL/Q3GeLCtu2eNypFXSWxsdOJh1fDR/fXip7KCAFfxuWxe2
giF1R3kCAwEAAaOCAcowggHGMB8GA1UdIwQYMBaAFLao/6KoL9CmzUuxaPPnUBAx
p3khMB0GA1UdDgQWBBQ9WqygNyrFvlBn/AchjhmtcqsqbDAOBgNVHQ8BAf8EBAMC
BaAwDAYDVR0TAQH/BAIwADAdBgNVHSUEFjAUBggrBgEFBQcDAQYIKwYBBQUHAwIw
YAYDVR0gBFkwVzBLBgsrBgEEAbIxAQICGjA8MDoGCCsGAQUFBwIBFi5odHRwOi8v
d3d3LmdhbmRpLm5ldC9jb250cmFjdHMvZnIvc3NsL2Nwcy9wZGYvMAgGBmeBDAEC
ATA8BgNVHR8ENTAzMDGgL6AthitodHRwOi8vY3JsLmdhbmRpLm5ldC9HYW5kaVN0
YW5kYXJkU1NMQ0EuY3JsMGoGCCsGAQUFBwEBBF4wXDA3BggrBgEFBQcwAoYraHR0
cDovL2NydC5nYW5kaS5uZXQvR2FuZGlTdGFuZGFyZFNTTENBLmNydDAhBggrBgEF
BQcwAYYVaHR0cDovL29jc3AuZ2FuZGkubmV0MDsGA1UdEQQ0MDKCFWZ0cC1tYXN0
ZXIuZGViaWFuLm9yZ4IZd3d3LmZ0cC1tYXN0ZXIuZGViaWFuLm9yZzANBgkqhkiG
9w0BAQUFAAOCAQEAq6XoM6T1nXKgmv00KdSj/5gSBKdhAknKFFdWYgG5tGcq1Yxb
Sn127p06PkQSoLUgpO0uAdQvK/0AIQaLixDEufuR4VC6f5CljaTgq4P+ItpMvlvl
c14MhtwTBLR6yVfnk7fiPsQx0ouHql7T3SZYoU7htvQeur8i3qahx58XxJhkJN6v
Dgm9LoaU6ey5fZlAiRzzF58enXa+silEuLi3NRj/Mb9C0R7/XhT/T5pTpLySfOnr
68NZtyzRHXf+MhkUnH0lNXoPAgae1J7p0CQ6+MS/DIata6iB+Q5wFeyyVPM/v/27
sNOfU7BXg+C+ObL9RhHLeg6B2KxnarXxpNNMhw==
-----END CERTIFICATE-----
