Certificate:
    Data:
        Version: 3 (0x2)
        Serial Number:
            b6:92:cd:35:fc:67:48:97:cc:f6:65:5a:05:74:71:a5
    Signature Algorithm: sha1WithRSAEncryption
        Issuer: C=FR, O=GANDI SAS, CN=Gandi Standard SSL CA
        Validity
            Not Before: Jan  1 00:00:00 2014 GMT
            Not After : Jan  1 23:59:59 2015 GMT
        Subject: OU=Domain Control Validated, OU=Gandi Standard SSL, CN=ftp-master.debian.org
        Subject Public Key Info:
            Public Key Algorithm: rsaEncryption
                Public-Key: (3072 bit)
                Modulus:
                    00:9c:19:aa:17:5d:3f:1a:9f:83:3e:3d:e8:ae:5d:
                    cc:89:fa:53:1c:1d:8f:9f:1a:9d:14:51:6c:18:41:
                    44:80:d3:aa:44:2b:0f:f4:5f:50:5a:46:c7:21:9d:
                    55:8c:90:74:4b:62:e3:6e:40:75:fd:32:60:74:53:
                    98:7a:3f:dc:af:6f:68:f8:b9:a7:02:72:f3:f7:be:
                    fb:de:a0:d6:e9:e0:53:02:3d:8b:3a:bd:e2:b6:c6:
                    eb:58:3d:a9:52:8e:4e:66:d8:13:3c:4d:72:09:61:
                    1c:23:88:40:ca:c8:68:db:16:c6:d2:57:24:ff:0d:
                    f3:24:56:c6:6b:0d:83:e7:19:60:c3:bc:0a:bb:8d:
                    b8:a2:b1:5d:77:16:24:5e:69:51:85:38:c5:5f:8b:
                    34:29:02:bc:bc:31:d3:06:24:74:8e:ec:18:d8:86:
                    b1:41:a9:c6:ea:d2:3e:5a:8e:94:e4:5d:b9:b6:72:
                    04:1d:ac:40:c2:24:c3:2c:68:da:84:c3:99:e7:76:
                    c4:c7:75:7a:0d:a5:5c:43:83:3d:b7:78:e7:20:e3:
                    cc:d0:1e:24:b9:cc:2f:6a:d4:8e:f7:97:a1:1e:8e:
                    61:30:87:f5:71:82:1f:ae:9b:78:83:ad:73:6a:90:
                    e1:52:9d:0d:be:39:e9:9d:3c:64:5a:64:de:a1:64:
                    1d:ad:e4:90:13:40:b2:af:9d:37:8d:f5:b2:c1:27:
                    94:1d:da:52:e3:ac:5c:03:af:2c:ce:3f:7a:87:d1:
                    4c:d9:54:e4:77:2c:5b:1a:ff:66:39:d2:ba:93:93:
                    ff:bc:8e:8b:c5:f2:f6:18:59:a5:bd:73:d2:e8:b4:
                    7f:77:16:65:17:3c:df:32:60:c0:c8:83:ba:de:27:
                    c7:f4:3a:2b:6b:c9:ff:d9:60:39:d2:b3:20:f7:47:
                    8d:1e:fd:e3:97:49:af:c5:f9:15:07:01:02:c5:71:
                    40:14:18:76:96:24:81:9c:1e:45:1a:c4:a0:c0:06:
                    8d:f8:83:45:ac:9e:6e:97:5e:23
                Exponent: 65537 (0x10001)
        X509v3 extensions:
            X509v3 Authority Key Identifier: 
                keyid:B6:A8:FF:A2:A8:2F:D0:A6:CD:4B:B1:68:F3:E7:50:10:31:A7:79:21

            X509v3 Subject Key Identifier: 
                C8:6D:7F:2E:48:0D:5C:A1:DB:6F:71:E7:34:F3:C1:E4:17:BE:DE:72
            X509v3 Key Usage: critical
                Digital Signature, Key Encipherment
            X509v3 Basic Constraints: critical
                CA:FALSE
            X509v3 Extended Key Usage: 
                TLS Web Server Authentication, TLS Web Client Authentication
            X509v3 Certificate Policies: 
                Policy: 1.3.6.1.4.1.6449.1.2.2.26
                  CPS: http://www.gandi.net/contracts/fr/ssl/cps/pdf/
                Policy: 2.23.140.1.2.1

            X509v3 CRL Distribution Points: 

                Full Name:
                  URI:http://crl.gandi.net/GandiStandardSSLCA.crl

            Authority Information Access: 
                CA Issuers - URI:http://crt.gandi.net/GandiStandardSSLCA.crt
                OCSP - URI:http://ocsp.gandi.net

            X509v3 Subject Alternative Name: 
                DNS:ftp-master.debian.org, DNS:www.ftp-master.debian.org
    Signature Algorithm: sha1WithRSAEncryption
         9c:a9:46:37:fe:c0:bd:cf:6a:db:70:4b:43:f1:94:72:6f:b2:
         8e:c6:2a:7a:c4:42:7e:39:30:53:9c:8d:25:e4:fe:c1:10:15:
         36:69:db:4f:2c:21:5a:69:9c:e0:14:1a:2d:ed:c3:4b:6f:b0:
         17:ab:da:69:6d:6d:4f:e8:3f:4e:e6:67:01:bc:0c:03:86:b6:
         cc:50:97:02:36:c0:ae:6a:62:9c:bf:2b:31:db:7f:83:76:1c:
         52:c4:6b:0e:06:ef:f6:e7:a1:fb:6a:c5:8f:21:5c:13:61:7a:
         4f:fe:e5:59:c5:16:30:3c:cc:10:96:c6:f7:2f:f1:77:87:27:
         ce:3b:9d:8a:78:39:0b:65:a5:87:56:5b:ce:23:ef:4d:ea:b7:
         e5:6f:bb:d3:83:e7:5f:6f:92:a9:23:e8:b8:8a:a0:8d:73:89:
         55:0d:a3:80:b4:26:d2:c9:70:14:80:cd:68:a3:96:c6:17:d2:
         b9:12:78:23:f0:a1:35:f0:95:a3:48:97:8a:45:8c:e6:ca:0a:
         f4:a8:8a:0d:a4:c9:80:98:ed:91:77:45:3c:74:e3:b5:9e:39:
         63:d7:08:74:71:7b:12:cf:c4:34:1e:47:2b:a1:a3:2c:eb:21:
         4e:8e:41:5d:7b:5a:a9:79:8e:1d:09:15:a8:b4:d0:f6:73:c8:
         90:cd:8c:3c
-----BEGIN CERTIFICATE-----
MIIFeDCCBGCgAwIBAgIRALaSzTX8Z0iXzPZlWgV0caUwDQYJKoZIhvcNAQEFBQAw
QTELMAkGA1UEBhMCRlIxEjAQBgNVBAoTCUdBTkRJIFNBUzEeMBwGA1UEAxMVR2Fu
ZGkgU3RhbmRhcmQgU1NMIENBMB4XDTE0MDEwMTAwMDAwMFoXDTE1MDEwMTIzNTk1
OVowYDEhMB8GA1UECxMYRG9tYWluIENvbnRyb2wgVmFsaWRhdGVkMRswGQYDVQQL
ExJHYW5kaSBTdGFuZGFyZCBTU0wxHjAcBgNVBAMTFWZ0cC1tYXN0ZXIuZGViaWFu
Lm9yZzCCAaIwDQYJKoZIhvcNAQEBBQADggGPADCCAYoCggGBAJwZqhddPxqfgz49
6K5dzIn6Uxwdj58anRRRbBhBRIDTqkQrD/RfUFpGxyGdVYyQdEti425Adf0yYHRT
mHo/3K9vaPi5pwJy8/e++96g1ungUwI9izq94rbG61g9qVKOTmbYEzxNcglhHCOI
QMrIaNsWxtJXJP8N8yRWxmsNg+cZYMO8CruNuKKxXXcWJF5pUYU4xV+LNCkCvLwx
0wYkdI7sGNiGsUGpxurSPlqOlORdubZyBB2sQMIkwyxo2oTDmed2xMd1eg2lXEOD
Pbd45yDjzNAeJLnML2rUjveXoR6OYTCH9XGCH66beIOtc2qQ4VKdDb456Z08ZFpk
3qFkHa3kkBNAsq+dN431ssEnlB3aUuOsXAOvLM4/eofRTNlU5HcsWxr/ZjnSupOT
/7yOi8Xy9hhZpb1z0ui0f3cWZRc83zJgwMiDut4nx/Q6K2vJ/9lgOdKzIPdHjR79
45dJr8X5FQcBAsVxQBQYdpYkgZweRRrEoMAGjfiDRayebpdeIwIDAQABo4IByjCC
AcYwHwYDVR0jBBgwFoAUtqj/oqgv0KbNS7Fo8+dQEDGneSEwHQYDVR0OBBYEFMht
fy5IDVyh229x5zTzweQXvt5yMA4GA1UdDwEB/wQEAwIFoDAMBgNVHRMBAf8EAjAA
MB0GA1UdJQQWMBQGCCsGAQUFBwMBBggrBgEFBQcDAjBgBgNVHSAEWTBXMEsGCysG
AQQBsjEBAgIaMDwwOgYIKwYBBQUHAgEWLmh0dHA6Ly93d3cuZ2FuZGkubmV0L2Nv
bnRyYWN0cy9mci9zc2wvY3BzL3BkZi8wCAYGZ4EMAQIBMDwGA1UdHwQ1MDMwMaAv
oC2GK2h0dHA6Ly9jcmwuZ2FuZGkubmV0L0dhbmRpU3RhbmRhcmRTU0xDQS5jcmww
agYIKwYBBQUHAQEEXjBcMDcGCCsGAQUFBzAChitodHRwOi8vY3J0LmdhbmRpLm5l
dC9HYW5kaVN0YW5kYXJkU1NMQ0EuY3J0MCEGCCsGAQUFBzABhhVodHRwOi8vb2Nz
cC5nYW5kaS5uZXQwOwYDVR0RBDQwMoIVZnRwLW1hc3Rlci5kZWJpYW4ub3Jnghl3
d3cuZnRwLW1hc3Rlci5kZWJpYW4ub3JnMA0GCSqGSIb3DQEBBQUAA4IBAQCcqUY3
/sC9z2rbcEtD8ZRyb7KOxip6xEJ+OTBTnI0l5P7BEBU2adtPLCFaaZzgFBot7cNL
b7AXq9ppbW1P6D9O5mcBvAwDhrbMUJcCNsCuamKcvysx23+DdhxSxGsOBu/256H7
asWPIVwTYXpP/uVZxRYwPMwQlsb3L/F3hyfOO52KeDkLZaWHVlvOI+9N6rflb7vT
g+dfb5KpI+i4iqCNc4lVDaOAtCbSyXAUgM1oo5bGF9K5Engj8KE18JWjSJeKRYzm
ygr0qIoNpMmAmO2Rd0U8dOO1njlj1wh0cXsSz8Q0HkcroaMs6yFOjkFde1qpeY4d
CRWotND2c8iQzYw8
-----END CERTIFICATE-----
