Certificate:
    Data:
        Version: 3 (0x2)
        Serial Number: 106 (0x6a)
    Signature Algorithm: sha1WithRSAEncryption
        Issuer: O=Debian, CN=ca.debian.org/emailAddress=debian-admin@debian.org
        Validity
            Not Before: Jul 19 16:27:45 2013 GMT
            Not After : Jul 19 16:27:45 2014 GMT
        Subject: O=Debian, CN=ftp-master.debian.org/emailAddress=debian-admin@debian.org
        Subject Public Key Info:
            Public Key Algorithm: rsaEncryption
                Public-Key: (2048 bit)
                Modulus:
                    00:c5:57:9a:19:1d:10:10:f1:4d:46:4b:3b:45:27:
                    e4:10:78:a3:06:c5:81:da:e0:67:89:ac:10:bf:ad:
                    1b:91:be:74:06:1c:dc:97:2c:b1:38:85:f2:dc:45:
                    ec:69:9c:d3:df:bd:55:53:e9:9d:97:b2:52:e0:05:
                    f5:bb:bb:39:d2:3c:73:a8:0c:2f:86:ed:a1:2d:82:
                    e1:de:67:48:9c:b6:1b:74:7d:a1:df:1a:f1:83:67:
                    6a:c6:7e:b9:31:6d:da:46:97:b2:88:1d:28:2c:d9:
                    c2:0a:35:bf:03:2c:16:5f:64:ca:b0:09:e3:3f:52:
                    85:58:fa:4d:e3:a5:05:5d:98:2a:d0:91:95:da:48:
                    16:3b:b1:8e:70:17:4e:ce:82:b4:35:21:ec:1f:5c:
                    ff:67:3e:b9:f8:d4:ec:e9:61:8f:31:20:50:ff:dc:
                    8b:ea:ec:c1:82:6e:a1:f7:ae:78:2f:af:0b:20:6c:
                    1e:6a:ba:37:fa:12:f0:7d:4b:47:b0:95:ea:06:cf:
                    06:aa:48:51:b4:52:aa:bd:07:01:40:31:b2:cb:94:
                    2f:c2:b2:22:c1:e6:6d:82:ff:43:71:9e:2c:2b:6e:
                    d9:e3:72:a4:55:d2:5b:1b:1d:38:98:75:7c:34:7f:
                    7d:78:a9:ec:a0:80:15:fc:6e:5b:17:b6:82:21:75:
                    47:79
                Exponent: 65537 (0x10001)
        X509v3 extensions:
            X509v3 Basic Constraints: 
                CA:FALSE
            X509v3 Subject Key Identifier: 
                3D:5A:AC:A0:37:2A:C5:BE:50:67:FC:07:21:8E:19:AD:72:AB:2A:6C
            X509v3 Authority Key Identifier: 
                keyid:A7:CF:4B:FA:5F:12:C6:23:74:2E:9E:A3:95:90:75:8C:CC:26:76:96
                DirName:/C=US/ST=Indiana/L=Indianapolis/O=Software in the Public Interest/OU=hostmaster/CN=Certificate Authority/emailAddress=hostmaster@spi-inc.org
                serial:03

    Signature Algorithm: sha1WithRSAEncryption
         7f:8c:a4:e5:7f:a8:60:08:07:20:65:66:a8:01:96:d8:e4:f1:
         5c:09:57:f4:8a:7a:90:61:e5:63:64:58:c3:40:84:5e:06:73:
         5f:df:67:91:0d:72:7a:9e:03:14:f8:e4:54:68:85:e0:45:be:
         84:72:ce:20:34:32:55:90:f0:de:aa:1e:a6:37:5e:3a:2d:a7:
         16:15:a2:17:1b:e0:14:95:af:01:9f:1e:79:fb:00:b4:6d:2c:
         47:3c:5d:7b:48:94:5e:91:26:5c:61:33:b9:33:4d:06:52:73:
         fe:75:e4:54:ee:80:35:95:d1:4c:9f:52:ea:f2:85:eb:bf:5c:
         90:c7:75:4c:ee:47:d4:97:0f:fe:4f:aa:fa:a4:12:72:3e:d1:
         87:a2:06:29:d7:98:61:34:d9:d2:6b:e2:09:a3:ec:d3:4a:7d:
         81:f7:2a:a4:93:e7:41:fc:dd:e5:31:e3:31:c4:c3:f7:f1:0f:
         d1:f8:22:aa:79:13:30:25:9a:bc:73:60:f0:a2:72:23:80:ae:
         ba:62:82:54:78:b0:83:35:e1:98:eb:90:ed:97:0f:3f:31:4a:
         b3:1b:24:5a:81:56:cb:72:c6:0a:b8:2a:e1:23:b6:b3:31:a0:
         f0:05:3f:05:4e:c1:fb:ef:17:c9:54:3f:2d:16:7a:0b:dd:82:
         bf:05:47:01:85:4d:ef:cf:40:d0:27:c3:a9:9a:53:b8:15:64:
         ca:28:66:40:b8:9e:01:9d:c3:97:6d:79:aa:3d:8a:e2:3d:47:
         70:3d:06:91:1b:4b:a5:bd:4a:30:db:a8:08:5a:2c:a2:50:9c:
         d2:63:16:fc:6a:93:9e:cb:bb:bd:92:5f:4a:0b:e8:be:a5:c1:
         5a:54:fe:9b:98:f0:b4:df:16:5e:87:a8:b3:e3:64:cc:89:aa:
         a8:f5:6a:fc:dc:b4:30:1f:d6:41:12:92:87:55:75:7b:5f:ed:
         b8:b6:c1:41:2d:1e:de:eb:c2:06:19:80:62:2e:2a:01:35:03:
         ee:fd:a5:47:0c:93:57:c5:f2:51:b8:45:0c:eb:34:3f:67:6e:
         2d:06:a1:d6:f6:8a:81:2e:a5:b9:d4:94:8d:27:af:9d:af:6b:
         3d:48:1c:57:9f:f0:a0:d9:50:0f:eb:b5:7a:fc:ad:a7:fd:06:
         b0:9a:7c:44:36:50:a0:ae:a7:bc:c6:49:5c:74:1b:f4:0c:62:
         60:e4:43:58:d9:b4:60:9b:51:a7:19:c7:d8:6e:3a:02:f9:99:
         48:0f:dc:db:76:81:87:56:3c:ae:91:0e:80:a4:d2:31:57:ee:
         23:89:09:47:04:08:b1:36:76:fa:e5:22:11:e9:2d:f4:e9:8e:
         dc:3b:14:12:83:85:10:7c
-----BEGIN CERTIFICATE-----
MIIFQTCCAymgAwIBAgIBajANBgkqhkiG9w0BAQUFADBRMQ8wDQYDVQQKEwZEZWJp
YW4xFjAUBgNVBAMTDWNhLmRlYmlhbi5vcmcxJjAkBgkqhkiG9w0BCQEWF2RlYmlh
bi1hZG1pbkBkZWJpYW4ub3JnMB4XDTEzMDcxOTE2Mjc0NVoXDTE0MDcxOTE2Mjc0
NVowWTEPMA0GA1UEChMGRGViaWFuMR4wHAYDVQQDExVmdHAtbWFzdGVyLmRlYmlh
bi5vcmcxJjAkBgkqhkiG9w0BCQEWF2RlYmlhbi1hZG1pbkBkZWJpYW4ub3JnMIIB
IjANBgkqhkiG9w0BAQEFAAOCAQ8AMIIBCgKCAQEAxVeaGR0QEPFNRks7RSfkEHij
BsWB2uBniawQv60bkb50BhzclyyxOIXy3EXsaZzT371VU+mdl7JS4AX1u7s50jxz
qAwvhu2hLYLh3mdInLYbdH2h3xrxg2dqxn65MW3aRpeyiB0oLNnCCjW/AywWX2TK
sAnjP1KFWPpN46UFXZgq0JGV2kgWO7GOcBdOzoK0NSHsH1z/Zz65+NTs6WGPMSBQ
/9yL6uzBgm6h9654L68LIGwearo3+hLwfUtHsJXqBs8GqkhRtFKqvQcBQDGyy5Qv
wrIiweZtgv9DcZ4sK27Z43KkVdJbGx04mHV8NH99eKnsoIAV/G5bF7aCIXVHeQID
AQABo4IBGjCCARYwCQYDVR0TBAIwADAdBgNVHQ4EFgQUPVqsoDcqxb5QZ/wHIY4Z
rXKrKmwwgekGA1UdIwSB4TCB3oAUp89L+l8SxiN0Lp6jlZB1jMwmdpahgcKkgb8w
gbwxCzAJBgNVBAYTAlVTMRAwDgYDVQQIEwdJbmRpYW5hMRUwEwYDVQQHEwxJbmRp
YW5hcG9saXMxKDAmBgNVBAoTH1NvZnR3YXJlIGluIHRoZSBQdWJsaWMgSW50ZXJl
c3QxEzARBgNVBAsTCmhvc3RtYXN0ZXIxHjAcBgNVBAMTFUNlcnRpZmljYXRlIEF1
dGhvcml0eTElMCMGCSqGSIb3DQEJARYWaG9zdG1hc3RlckBzcGktaW5jLm9yZ4IB
AzANBgkqhkiG9w0BAQUFAAOCAgEAf4yk5X+oYAgHIGVmqAGW2OTxXAlX9Ip6kGHl
Y2RYw0CEXgZzX99nkQ1yep4DFPjkVGiF4EW+hHLOIDQyVZDw3qoepjdeOi2nFhWi
FxvgFJWvAZ8eefsAtG0sRzxde0iUXpEmXGEzuTNNBlJz/nXkVO6ANZXRTJ9S6vKF
679ckMd1TO5H1JcP/k+q+qQScj7Rh6IGKdeYYTTZ0mviCaPs00p9gfcqpJPnQfzd
5THjMcTD9/EP0fgiqnkTMCWavHNg8KJyI4CuumKCVHiwgzXhmOuQ7ZcPPzFKsxsk
WoFWy3LGCrgq4SO2szGg8AU/BU7B++8XyVQ/LRZ6C92CvwVHAYVN789A0CfDqZpT
uBVkyihmQLieAZ3Dl215qj2K4j1HcD0GkRtLpb1KMNuoCFosolCc0mMW/GqTnsu7
vZJfSgvovqXBWlT+m5jwtN8WXoeos+NkzImqqPVq/Ny0MB/WQRKSh1V1e1/tuLbB
QS0e3uvCBhmAYi4qATUD7v2lRwyTV8XyUbhFDOs0P2duLQah1vaKgS6ludSUjSev
na9rPUgcV5/woNlQD+u1evytp/0GsJp8RDZQoK6nvMZJXHQb9AxiYORDWNm0YJtR
pxnH2G46AvmZSA/c23aBh1Y8rpEOgKTSMVfuI4kJRwQIsTZ2+uUiEekt9OmO3DsU
EoOFEHw=
-----END CERTIFICATE-----
