Certificate:
    Data:
        Version: 3 (0x2)
        Serial Number:
            7a:49:c8:51:a6:9c:e5:af:07:9d:bc:6d:a5:59:98:a4
    Signature Algorithm: sha256WithRSAEncryption
        Issuer: C=FR, ST=Paris, L=Paris, O=Gandi, CN=Gandi Standard SSL CA 2
        Validity
            Not Before: Dec 17 00:00:00 2014 GMT
            Not After : Jan  1 23:59:59 2016 GMT
        Subject: OU=Domain Control Validated, OU=Gandi Standard SSL, CN=ftp-master.debian.org
        Subject Public Key Info:
            Public Key Algorithm: rsaEncryption
                Public-Key: (3072 bit)
                Modulus:
                    00:9c:19:aa:17:5d:3f:1a:9f:83:3e:3d:e8:ae:5d:
                    cc:89:fa:53:1c:1d:8f:9f:1a:9d:14:51:6c:18:41:
                    44:80:d3:aa:44:2b:0f:f4:5f:50:5a:46:c7:21:9d:
                    55:8c:90:74:4b:62:e3:6e:40:75:fd:32:60:74:53:
                    98:7a:3f:dc:af:6f:68:f8:b9:a7:02:72:f3:f7:be:
                    fb:de:a0:d6:e9:e0:53:02:3d:8b:3a:bd:e2:b6:c6:
                    eb:58:3d:a9:52:8e:4e:66:d8:13:3c:4d:72:09:61:
                    1c:23:88:40:ca:c8:68:db:16:c6:d2:57:24:ff:0d:
                    f3:24:56:c6:6b:0d:83:e7:19:60:c3:bc:0a:bb:8d:
                    b8:a2:b1:5d:77:16:24:5e:69:51:85:38:c5:5f:8b:
                    34:29:02:bc:bc:31:d3:06:24:74:8e:ec:18:d8:86:
                    b1:41:a9:c6:ea:d2:3e:5a:8e:94:e4:5d:b9:b6:72:
                    04:1d:ac:40:c2:24:c3:2c:68:da:84:c3:99:e7:76:
                    c4:c7:75:7a:0d:a5:5c:43:83:3d:b7:78:e7:20:e3:
                    cc:d0:1e:24:b9:cc:2f:6a:d4:8e:f7:97:a1:1e:8e:
                    61:30:87:f5:71:82:1f:ae:9b:78:83:ad:73:6a:90:
                    e1:52:9d:0d:be:39:e9:9d:3c:64:5a:64:de:a1:64:
                    1d:ad:e4:90:13:40:b2:af:9d:37:8d:f5:b2:c1:27:
                    94:1d:da:52:e3:ac:5c:03:af:2c:ce:3f:7a:87:d1:
                    4c:d9:54:e4:77:2c:5b:1a:ff:66:39:d2:ba:93:93:
                    ff:bc:8e:8b:c5:f2:f6:18:59:a5:bd:73:d2:e8:b4:
                    7f:77:16:65:17:3c:df:32:60:c0:c8:83:ba:de:27:
                    c7:f4:3a:2b:6b:c9:ff:d9:60:39:d2:b3:20:f7:47:
                    8d:1e:fd:e3:97:49:af:c5:f9:15:07:01:02:c5:71:
                    40:14:18:76:96:24:81:9c:1e:45:1a:c4:a0:c0:06:
                    8d:f8:83:45:ac:9e:6e:97:5e:23
                Exponent: 65537 (0x10001)
        X509v3 extensions:
            X509v3 Authority Key Identifier: 
                keyid:B3:90:A7:D8:C9:AF:4E:CD:61:3C:9F:7C:AD:5D:7F:41:FD:69:30:EA

            X509v3 Subject Key Identifier: 
                C8:6D:7F:2E:48:0D:5C:A1:DB:6F:71:E7:34:F3:C1:E4:17:BE:DE:72
            X509v3 Key Usage: critical
                Digital Signature, Key Encipherment
            X509v3 Basic Constraints: critical
                CA:FALSE
            X509v3 Extended Key Usage: 
                TLS Web Server Authentication, TLS Web Client Authentication
            X509v3 Certificate Policies: 
                Policy: 1.3.6.1.4.1.6449.1.2.2.26
                  CPS: https://cps.usertrust.com
                Policy: 2.23.140.1.2.1

            X509v3 CRL Distribution Points: 

                Full Name:
                  URI:http://crl.usertrust.com/GandiStandardSSLCA2.crl

            Authority Information Access: 
                CA Issuers - URI:http://crt.usertrust.com/GandiStandardSSLCA2.crt
                OCSP - URI:http://ocsp.usertrust.com

            X509v3 Subject Alternative Name: 
                DNS:ftp-master.debian.org, DNS:www.ftp-master.debian.org
    Signature Algorithm: sha256WithRSAEncryption
         24:b5:10:69:66:c8:69:6c:20:e4:86:94:1a:de:8c:36:9e:bb:
         96:d9:c5:6b:80:41:7b:95:da:8f:61:d0:a6:cc:2c:c9:86:60:
         d8:c9:7e:5e:67:e7:6e:ec:36:bf:4c:51:59:f6:40:fb:6f:f2:
         b6:6d:6e:7e:94:2b:da:e9:15:2c:34:f9:2b:79:2b:8c:82:17:
         b7:c8:eb:ad:af:00:34:b4:9f:ec:ae:a4:86:77:cf:ad:d3:d3:
         1f:ab:03:07:5f:20:0f:88:60:43:72:64:4c:e0:90:d9:2a:7c:
         aa:a6:d7:9d:42:04:38:30:43:fd:d6:c8:a6:b5:c0:5b:9c:41:
         a0:d6:74:f8:6a:97:b5:49:86:7e:d9:89:fc:20:f0:2a:6b:f7:
         97:03:2b:db:40:6f:10:02:ff:c4:26:3f:4b:3e:b6:a3:65:90:
         96:9e:fc:62:76:f0:72:6d:32:0c:49:bd:8a:d9:9a:67:34:7a:
         d2:86:95:79:cc:88:86:23:84:12:7c:69:c7:71:b4:ec:b3:31:
         9e:49:6b:d6:f3:5c:0f:fd:a6:e8:0d:a9:50:db:b5:a1:76:30:
         12:5c:ea:7f:4b:2b:6d:32:72:5d:b0:6e:a1:2f:14:69:b2:35:
         2c:e1:5b:66:fb:c2:a8:bf:b8:8e:bc:77:f4:9f:50:b9:b4:fc:
         b1:bc:7c:bc
-----BEGIN CERTIFICATE-----
MIIFjjCCBHagAwIBAgIQeknIUaac5a8HnbxtpVmYpDANBgkqhkiG9w0BAQsFADBf
MQswCQYDVQQGEwJGUjEOMAwGA1UECBMFUGFyaXMxDjAMBgNVBAcTBVBhcmlzMQ4w
DAYDVQQKEwVHYW5kaTEgMB4GA1UEAxMXR2FuZGkgU3RhbmRhcmQgU1NMIENBIDIw
HhcNMTQxMjE3MDAwMDAwWhcNMTYwMTAxMjM1OTU5WjBgMSEwHwYDVQQLExhEb21h
aW4gQ29udHJvbCBWYWxpZGF0ZWQxGzAZBgNVBAsTEkdhbmRpIFN0YW5kYXJkIFNT
TDEeMBwGA1UEAxMVZnRwLW1hc3Rlci5kZWJpYW4ub3JnMIIBojANBgkqhkiG9w0B
AQEFAAOCAY8AMIIBigKCAYEAnBmqF10/Gp+DPj3orl3MifpTHB2PnxqdFFFsGEFE
gNOqRCsP9F9QWkbHIZ1VjJB0S2LjbkB1/TJgdFOYej/cr29o+LmnAnLz97773qDW
6eBTAj2LOr3itsbrWD2pUo5OZtgTPE1yCWEcI4hAysho2xbG0lck/w3zJFbGaw2D
5xlgw7wKu424orFddxYkXmlRhTjFX4s0KQK8vDHTBiR0juwY2IaxQanG6tI+Wo6U
5F25tnIEHaxAwiTDLGjahMOZ53bEx3V6DaVcQ4M9t3jnIOPM0B4kucwvatSO95eh
Ho5hMIf1cYIfrpt4g61zapDhUp0NvjnpnTxkWmTeoWQdreSQE0Cyr503jfWywSeU
HdpS46xcA68szj96h9FM2VTkdyxbGv9mOdK6k5P/vI6LxfL2GFmlvXPS6LR/dxZl
FzzfMmDAyIO63ifH9Dora8n/2WA50rMg90eNHv3jl0mvxfkVBwECxXFAFBh2liSB
nB5FGsSgwAaN+INFrJ5ul14jAgMBAAGjggHDMIIBvzAfBgNVHSMEGDAWgBSzkKfY
ya9OzWE8n3ytXX9B/Wkw6jAdBgNVHQ4EFgQUyG1/LkgNXKHbb3HnNPPB5Be+3nIw
DgYDVR0PAQH/BAQDAgWgMAwGA1UdEwEB/wQCMAAwHQYDVR0lBBYwFAYIKwYBBQUH
AwEGCCsGAQUFBwMCMEsGA1UdIAREMEIwNgYLKwYBBAGyMQECAhowJzAlBggrBgEF
BQcCARYZaHR0cHM6Ly9jcHMudXNlcnRydXN0LmNvbTAIBgZngQwBAgEwQQYDVR0f
BDowODA2oDSgMoYwaHR0cDovL2NybC51c2VydHJ1c3QuY29tL0dhbmRpU3RhbmRh
cmRTU0xDQTIuY3JsMHMGCCsGAQUFBwEBBGcwZTA8BggrBgEFBQcwAoYwaHR0cDov
L2NydC51c2VydHJ1c3QuY29tL0dhbmRpU3RhbmRhcmRTU0xDQTIuY3J0MCUGCCsG
AQUFBzABhhlodHRwOi8vb2NzcC51c2VydHJ1c3QuY29tMDsGA1UdEQQ0MDKCFWZ0
cC1tYXN0ZXIuZGViaWFuLm9yZ4IZd3d3LmZ0cC1tYXN0ZXIuZGViaWFuLm9yZzAN
BgkqhkiG9w0BAQsFAAOCAQEAJLUQaWbIaWwg5IaUGt6MNp67ltnFa4BBe5Xaj2HQ
pswsyYZg2Ml+Xmfnbuw2v0xRWfZA+2/ytm1ufpQr2ukVLDT5K3krjIIXt8jrra8A
NLSf7K6khnfPrdPTH6sDB18gD4hgQ3JkTOCQ2Sp8qqbXnUIEODBD/dbIprXAW5xB
oNZ0+GqXtUmGftmJ/CDwKmv3lwMr20BvEAL/xCY/Sz62o2WQlp78Ynbwcm0yDEm9
itmaZzR60oaVecyIhiOEEnxpx3G07LMxnklr1vNcD/2m6A2pUNu1oXYwElzqf0sr
bTJyXbBuoS8UabI1LOFbZvvCqL+4jrx39J9QubT8sbx8vA==
-----END CERTIFICATE-----
