Certificate:
    Data:
        Version: 3 (0x2)
        Serial Number:
            f8:b2:7f:e9:9c:0d:91:46:33:6f:73:ef:08:09:72:b3
    Signature Algorithm: sha256WithRSAEncryption
        Issuer: C=FR, ST=Paris, L=Paris, O=Gandi, CN=Gandi Standard SSL CA 2
        Validity
            Not Before: Apr  1 00:00:00 2015 GMT
            Not After : Apr  1 23:59:59 2016 GMT
        Subject: OU=Domain Control Validated, OU=PositiveSSL Multi-Domain, CN=git.debian.org
        Subject Public Key Info:
            Public Key Algorithm: rsaEncryption
                Public-Key: (2048 bit)
                Modulus:
                    00:e3:5e:a4:40:9e:b3:de:0d:2c:df:55:26:ae:8d:
                    b3:3e:e9:9f:fd:e9:4e:d6:73:f2:d5:df:54:e9:6d:
                    60:41:e9:82:8b:eb:d6:3b:37:b3:ce:57:6d:ec:68:
                    88:36:f1:76:85:bd:5e:8f:ea:15:80:f1:25:6e:9f:
                    8e:5e:f5:a3:ed:7e:91:7e:d1:97:49:3d:43:ef:f2:
                    53:dd:c1:11:57:bb:30:9e:d6:ac:01:3f:72:f2:9c:
                    2c:55:02:40:e5:50:f4:99:e6:04:cd:a4:15:ce:cd:
                    25:71:6d:07:25:27:b3:d4:64:89:57:09:9d:47:ce:
                    de:35:55:7e:e7:15:55:cf:60:43:43:4c:45:d3:6b:
                    18:26:bc:b8:c3:ff:b6:42:e5:0a:40:38:f7:7b:07:
                    7e:2c:e8:6b:a2:bd:e8:7f:97:b0:38:f5:5c:ee:51:
                    d1:97:94:6e:7b:e7:79:b6:2a:7f:a9:7d:da:1d:35:
                    d0:a9:5d:55:75:e6:90:c7:1c:a7:ad:e6:06:51:c8:
                    d5:7c:77:e1:a9:19:e1:f4:64:96:df:e7:4a:a2:9b:
                    07:29:e6:d3:31:bb:54:78:5e:a1:92:8b:85:32:a6:
                    19:32:76:d1:f7:a1:7d:a8:69:dd:72:9c:86:ea:ef:
                    07:60:a7:55:a7:28:fa:2b:f4:fc:0b:13:ea:bc:48:
                    57:a1
                Exponent: 65537 (0x10001)
        X509v3 extensions:
            X509v3 Authority Key Identifier: 
                keyid:B3:90:A7:D8:C9:AF:4E:CD:61:3C:9F:7C:AD:5D:7F:41:FD:69:30:EA

            X509v3 Subject Key Identifier: 
                66:63:D3:46:43:D3:E2:B8:3C:40:7F:31:F5:C9:8F:53:DC:5D:10:FE
            X509v3 Key Usage: critical
                Digital Signature, Key Encipherment
            X509v3 Basic Constraints: critical
                CA:FALSE
            X509v3 Extended Key Usage: 
                TLS Web Server Authentication, TLS Web Client Authentication
            X509v3 Certificate Policies: 
                Policy: 1.3.6.1.4.1.6449.1.2.2.26
                  CPS: https://cps.usertrust.com
                Policy: 2.23.140.1.2.1

            X509v3 CRL Distribution Points: 

                Full Name:
                  URI:http://crl.usertrust.com/GandiStandardSSLCA2.crl

            Authority Information Access: 
                CA Issuers - URI:http://crt.usertrust.com/GandiStandardSSLCA2.crt
                OCSP - URI:http://ocsp.usertrust.com

            X509v3 Subject Alternative Name: 
                DNS:git.debian.org, DNS:anonscm.debian.org, DNS:arch.debian.org, DNS:bzr.debian.org, DNS:cvs.debian.org, DNS:darcs.debian.org, DNS:hg.debian.org, DNS:scm.debian.org, DNS:svn.debian.org
    Signature Algorithm: sha256WithRSAEncryption
         73:e6:4f:13:2a:88:c6:7b:7a:ae:0b:fd:4c:c1:22:20:e8:af:
         68:72:d3:16:b1:32:c6:9b:39:69:a9:61:50:02:e7:eb:b9:c1:
         59:1f:36:ad:70:a6:27:8f:e5:e0:12:8f:b3:81:6e:02:0c:33:
         2d:6c:12:9b:89:b5:7a:88:1c:41:ba:b4:52:1b:cc:a9:02:d0:
         b6:0b:5a:9d:82:99:c1:40:1d:61:c0:2d:45:a9:d1:68:84:91:
         92:12:8d:fc:fc:a4:b2:fe:24:c3:0e:53:15:28:b2:c6:bc:df:
         ee:7b:6d:40:8e:6c:e8:e0:2d:cc:74:8b:28:5e:bb:dc:1a:7a:
         0c:81:2e:59:3e:c6:1f:9b:10:e7:ef:bb:d4:45:22:1e:fd:59:
         58:0d:9e:e6:26:0c:65:21:22:5b:ba:83:9e:2d:db:e0:c2:ae:
         be:d4:cf:aa:8b:0b:92:17:fb:91:49:00:33:c2:d8:5e:17:90:
         36:7c:20:88:f3:a5:13:4e:9b:0d:a1:57:07:f8:6b:ec:c2:df:
         b5:fd:72:d0:79:6c:39:c5:f2:70:0f:41:5c:5a:52:75:67:38:
         2f:31:81:32:d3:d9:98:53:bd:e4:e1:97:c8:2e:9d:78:25:91:
         21:2d:1e:77:69:7f:a5:95:4a:fc:8e:97:25:39:bb:3e:99:e6:
         45:6c:77:cf
-----BEGIN CERTIFICATE-----
MIIFdTCCBF2gAwIBAgIRAPiyf+mcDZFGM29z7wgJcrMwDQYJKoZIhvcNAQELBQAw
XzELMAkGA1UEBhMCRlIxDjAMBgNVBAgTBVBhcmlzMQ4wDAYDVQQHEwVQYXJpczEO
MAwGA1UEChMFR2FuZGkxIDAeBgNVBAMTF0dhbmRpIFN0YW5kYXJkIFNTTCBDQSAy
MB4XDTE1MDQwMTAwMDAwMFoXDTE2MDQwMTIzNTk1OVowXzEhMB8GA1UECxMYRG9t
YWluIENvbnRyb2wgVmFsaWRhdGVkMSEwHwYDVQQLExhQb3NpdGl2ZVNTTCBNdWx0
aS1Eb21haW4xFzAVBgNVBAMTDmdpdC5kZWJpYW4ub3JnMIIBIjANBgkqhkiG9w0B
AQEFAAOCAQ8AMIIBCgKCAQEA416kQJ6z3g0s31Umro2zPumf/elO1nPy1d9U6W1g
QemCi+vWOzezzldt7GiINvF2hb1ej+oVgPElbp+OXvWj7X6RftGXST1D7/JT3cER
V7swntasAT9y8pwsVQJA5VD0meYEzaQVzs0lcW0HJSez1GSJVwmdR87eNVV+5xVV
z2BDQ0xF02sYJry4w/+2QuUKQDj3ewd+LOhror3of5ewOPVc7lHRl5Rue+d5tip/
qX3aHTXQqV1VdeaQxxynreYGUcjVfHfhqRnh9GSW3+dKopsHKebTMbtUeF6hkouF
MqYZMnbR96F9qGndcpyG6u8HYKdVpyj6K/T8CxPqvEhXoQIDAQABo4ICKjCCAiYw
HwYDVR0jBBgwFoAUs5Cn2MmvTs1hPJ98rV1/Qf1pMOowHQYDVR0OBBYEFGZj00ZD
0+K4PEB/MfXJj1PcXRD+MA4GA1UdDwEB/wQEAwIFoDAMBgNVHRMBAf8EAjAAMB0G
A1UdJQQWMBQGCCsGAQUFBwMBBggrBgEFBQcDAjBLBgNVHSAERDBCMDYGCysGAQQB
sjEBAgIaMCcwJQYIKwYBBQUHAgEWGWh0dHBzOi8vY3BzLnVzZXJ0cnVzdC5jb20w
CAYGZ4EMAQIBMEEGA1UdHwQ6MDgwNqA0oDKGMGh0dHA6Ly9jcmwudXNlcnRydXN0
LmNvbS9HYW5kaVN0YW5kYXJkU1NMQ0EyLmNybDBzBggrBgEFBQcBAQRnMGUwPAYI
KwYBBQUHMAKGMGh0dHA6Ly9jcnQudXNlcnRydXN0LmNvbS9HYW5kaVN0YW5kYXJk
U1NMQ0EyLmNydDAlBggrBgEFBQcwAYYZaHR0cDovL29jc3AudXNlcnRydXN0LmNv
bTCBoQYDVR0RBIGZMIGWgg5naXQuZGViaWFuLm9yZ4ISYW5vbnNjbS5kZWJpYW4u
b3Jngg9hcmNoLmRlYmlhbi5vcmeCDmJ6ci5kZWJpYW4ub3Jngg5jdnMuZGViaWFu
Lm9yZ4IQZGFyY3MuZGViaWFuLm9yZ4INaGcuZGViaWFuLm9yZ4IOc2NtLmRlYmlh
bi5vcmeCDnN2bi5kZWJpYW4ub3JnMA0GCSqGSIb3DQEBCwUAA4IBAQBz5k8TKojG
e3quC/1MwSIg6K9octMWsTLGmzlpqWFQAufrucFZHzatcKYnj+XgEo+zgW4CDDMt
bBKbibV6iBxBurRSG8ypAtC2C1qdgpnBQB1hwC1FqdFohJGSEo38/KSy/iTDDlMV
KLLGvN/ue21Ajmzo4C3MdIsoXrvcGnoMgS5ZPsYfmxDn77vURSIe/VlYDZ7mJgxl
ISJbuoOeLdvgwq6+1M+qiwuSF/uRSQAzwtheF5A2fCCI86UTTpsNoVcH+Gvswt+1
/XLQeWw5xfJwD0FcWlJ1ZzgvMYEy09mYU73k4ZfILp14JZEhLR53aX+llUr8jpcl
Obs+meZFbHfP
-----END CERTIFICATE-----
