Certificate:
    Data:
        Version: 3 (0x2)
        Serial Number: 116 (0x74)
    Signature Algorithm: sha1WithRSAEncryption
        Issuer: O=Debian, CN=ca.debian.org/emailAddress=debian-admin@debian.org
        Validity
            Not Before: Apr  9 15:12:54 2014 GMT
            Not After : Apr  9 15:12:54 2015 GMT
        Subject: O=Debian, CN=gobby.debian.org/emailAddress=debian-admin@debian.org
        Subject Public Key Info:
            Public Key Algorithm: rsaEncryption
                Public-Key: (3072 bit)
                Modulus:
                    00:e2:08:41:aa:79:9c:53:83:dd:7e:f2:1d:56:41:
                    a6:63:54:c5:5e:3c:97:35:b4:50:47:53:d9:5c:dc:
                    3c:3d:9a:78:2b:c6:dd:90:5a:26:5d:d6:7a:ed:2d:
                    6c:46:c1:f5:45:39:e0:ec:a6:0a:f0:6a:6d:43:c1:
                    50:78:38:36:fd:1e:7e:ff:52:f6:fe:bb:ed:c9:99:
                    b8:d1:67:3c:1b:16:09:bb:a1:e0:0b:be:4d:61:4f:
                    2b:ce:2e:4f:1d:da:f5:b2:34:2d:69:ef:d6:b3:e5:
                    ef:ac:d7:a4:21:1a:d7:a6:c0:3b:e7:73:90:0d:6a:
                    91:7b:97:19:a6:ad:65:00:5f:88:44:5b:27:65:ff:
                    e4:a6:1d:c4:f4:a2:c3:7d:a8:d3:cb:64:90:d3:20:
                    91:66:b5:18:07:f9:1e:07:69:78:34:4c:7a:8e:8a:
                    cc:37:48:1c:cf:cc:90:32:9b:47:0a:36:a6:1f:d0:
                    38:13:9f:55:c7:6c:5d:5d:b1:c5:76:cc:3c:33:de:
                    60:b9:78:ac:ad:7a:89:db:54:8d:52:1e:7d:85:69:
                    70:f1:f6:55:ea:28:04:70:b4:c7:d5:31:64:b8:c7:
                    a4:dd:9c:09:55:af:62:56:0a:7d:9e:c4:82:07:3e:
                    f8:ff:97:ea:45:4a:e0:5d:43:16:27:4b:c2:b2:a4:
                    c4:08:68:07:3a:b2:e1:76:c4:a8:38:07:ea:32:6f:
                    94:ad:d3:60:0e:f1:4e:12:6a:9d:2f:7c:c1:fb:b7:
                    fc:46:cc:97:10:00:80:a4:b1:af:3f:b8:3a:63:76:
                    47:ee:dc:bf:fa:2d:f2:0f:1c:eb:37:d9:79:70:11:
                    2a:27:4a:b8:54:5a:f8:5d:b6:70:88:5e:13:40:af:
                    c6:8f:ca:01:09:be:e8:bd:c9:ad:7a:53:91:38:0d:
                    22:b3:3c:e1:2e:b9:f8:ab:53:50:57:f6:10:4c:39:
                    8f:34:81:e6:b1:0d:da:ff:60:0c:b9:9c:3b:0a:00:
                    85:8a:90:0b:d1:32:38:62:b2:ef
                Exponent: 65537 (0x10001)
        X509v3 extensions:
            X509v3 Basic Constraints: 
                CA:FALSE
            X509v3 Subject Key Identifier: 
                F0:E3:42:D3:46:D7:C5:97:34:AB:B9:9F:33:9E:B1:F0:1A:A4:9E:2C
            X509v3 Authority Key Identifier: 
                keyid:A7:CF:4B:FA:5F:12:C6:23:74:2E:9E:A3:95:90:75:8C:CC:26:76:96
                DirName:/C=US/ST=Indiana/L=Indianapolis/O=Software in the Public Interest/OU=hostmaster/CN=Certificate Authority/emailAddress=hostmaster@spi-inc.org
                serial:03

    Signature Algorithm: sha1WithRSAEncryption
         05:02:4c:5f:a4:8d:4d:25:2a:6e:63:4e:a1:30:a2:ea:7a:62:
         b4:5b:0b:2c:08:91:30:61:83:0b:cf:88:00:22:fa:cb:76:46:
         cc:92:61:4e:a3:f1:6c:24:69:e7:33:93:1c:75:4d:95:8f:aa:
         76:a3:c8:a1:c6:0c:34:f4:6f:72:a1:b9:f8:fb:8e:01:c5:cd:
         7b:a8:28:c7:f5:33:cb:b4:a8:f9:e1:fc:f5:07:9f:d7:50:85:
         71:bb:fb:a5:84:54:d0:a3:b8:81:1a:b8:b2:72:30:a0:9c:bc:
         5c:c1:2e:a5:28:25:5e:06:f3:76:4c:1f:92:4b:af:19:25:74:
         0d:b0:9e:27:75:df:4d:c1:ce:3f:41:b8:04:0a:99:46:d0:21:
         eb:8d:14:ad:a1:08:3d:d8:d0:71:73:06:5a:c9:69:80:f7:58:
         a5:b9:cf:a0:bc:9f:33:dd:a6:d9:f1:2b:87:57:99:4b:80:46:
         f7:6d:88:42:b9:c1:8a:fb:0b:07:82:6d:c0:48:89:df:22:cb:
         8d:99:1e:9a:73:c3:5a:17:ae:82:4b:75:fe:c4:1f:e4:6a:a2:
         0a:ce:36:07:44:6d:6b:22:ad:3c:fd:01:eb:22:0c:5d:e6:6d:
         a8:3c:d2:da:80:d0:dc:87:70:55:96:fb:dc:72:1b:e3:10:9b:
         7c:62:02:8e:92:ea:10:dc:05:78:c4:81:8b:86:05:b6:0f:24:
         47:14:e0:23:50:08:d1:a2:12:bb:df:45:04:0b:27:c3:cb:99:
         95:48:40:08:0a:97:aa:db:c9:64:f3:2f:97:0d:17:3a:a3:d0:
         f6:08:12:85:41:93:d2:37:a2:98:ef:7e:84:cc:38:de:64:8a:
         32:9a:a0:f7:ea:cc:6a:c0:a2:62:c5:ab:ea:f6:10:c8:d5:50:
         07:86:d8:a2:46:0b:77:3c:6c:cc:b4:e1:ea:4d:89:d2:c6:9d:
         1f:5a:3e:73:e4:55:06:48:bb:52:bf:80:64:8b:c0:1b:90:99:
         ea:1f:28:1b:83:b2:78:c3:d1:c9:3b:ec:71:f5:53:78:75:00:
         89:df:d6:5f:18:9e:7e:61:77:ea:d0:68:90:ea:17:60:d3:d3:
         a4:cf:20:cd:91:3e:02:a8:dd:cf:11:a3:1e:1d:65:5d:a7:0a:
         ac:fd:bd:4e:d9:e2:5e:78:0d:85:79:a9:91:34:5a:49:f4:88:
         5b:8b:c5:a3:cb:e4:0a:c4:b9:52:4a:e4:b6:bf:a2:3d:a6:2b:
         8a:0e:91:5f:2e:15:0c:2a:b5:b1:e8:79:2b:d6:4e:d1:bd:de:
         52:30:89:25:2b:52:f0:91:6c:48:b7:75:3a:89:e6:a3:fb:90:
         73:dd:59:e8:5b:b7:fd:19
-----BEGIN CERTIFICATE-----
MIIFvDCCA6SgAwIBAgIBdDANBgkqhkiG9w0BAQUFADBRMQ8wDQYDVQQKEwZEZWJp
YW4xFjAUBgNVBAMTDWNhLmRlYmlhbi5vcmcxJjAkBgkqhkiG9w0BCQEWF2RlYmlh
bi1hZG1pbkBkZWJpYW4ub3JnMB4XDTE0MDQwOTE1MTI1NFoXDTE1MDQwOTE1MTI1
NFowVDEPMA0GA1UEChMGRGViaWFuMRkwFwYDVQQDExBnb2JieS5kZWJpYW4ub3Jn
MSYwJAYJKoZIhvcNAQkBFhdkZWJpYW4tYWRtaW5AZGViaWFuLm9yZzCCAaIwDQYJ
KoZIhvcNAQEBBQADggGPADCCAYoCggGBAOIIQap5nFOD3X7yHVZBpmNUxV48lzW0
UEdT2VzcPD2aeCvG3ZBaJl3Weu0tbEbB9UU54OymCvBqbUPBUHg4Nv0efv9S9v67
7cmZuNFnPBsWCbuh4Au+TWFPK84uTx3a9bI0LWnv1rPl76zXpCEa16bAO+dzkA1q
kXuXGaatZQBfiERbJ2X/5KYdxPSiw32o08tkkNMgkWa1GAf5HgdpeDRMeo6KzDdI
HM/MkDKbRwo2ph/QOBOfVcdsXV2xxXbMPDPeYLl4rK16idtUjVIefYVpcPH2Veoo
BHC0x9UxZLjHpN2cCVWvYlYKfZ7Eggc++P+X6kVK4F1DFidLwrKkxAhoBzqy4XbE
qDgH6jJvlK3TYA7xThJqnS98wfu3/EbMlxAAgKSxrz+4OmN2R+7cv/ot8g8c6zfZ
eXARKidKuFRa+F22cIheE0Cvxo/KAQm+6L3JrXpTkTgNIrM84S65+KtTUFf2EEw5
jzSB5rEN2v9gDLmcOwoAhYqQC9EyOGKy7wIDAQABo4IBGjCCARYwCQYDVR0TBAIw
ADAdBgNVHQ4EFgQU8ONC00bXxZc0q7mfM56x8BqkniwwgekGA1UdIwSB4TCB3oAU
p89L+l8SxiN0Lp6jlZB1jMwmdpahgcKkgb8wgbwxCzAJBgNVBAYTAlVTMRAwDgYD
VQQIEwdJbmRpYW5hMRUwEwYDVQQHEwxJbmRpYW5hcG9saXMxKDAmBgNVBAoTH1Nv
ZnR3YXJlIGluIHRoZSBQdWJsaWMgSW50ZXJlc3QxEzARBgNVBAsTCmhvc3RtYXN0
ZXIxHjAcBgNVBAMTFUNlcnRpZmljYXRlIEF1dGhvcml0eTElMCMGCSqGSIb3DQEJ
ARYWaG9zdG1hc3RlckBzcGktaW5jLm9yZ4IBAzANBgkqhkiG9w0BAQUFAAOCAgEA
BQJMX6SNTSUqbmNOoTCi6npitFsLLAiRMGGDC8+IACL6y3ZGzJJhTqPxbCRp5zOT
HHVNlY+qdqPIocYMNPRvcqG5+PuOAcXNe6gox/Uzy7So+eH89Qef11CFcbv7pYRU
0KO4gRq4snIwoJy8XMEupSglXgbzdkwfkkuvGSV0DbCeJ3XfTcHOP0G4BAqZRtAh
640UraEIPdjQcXMGWslpgPdYpbnPoLyfM92m2fErh1eZS4BG922IQrnBivsLB4Jt
wEiJ3yLLjZkemnPDWheugkt1/sQf5GqiCs42B0RtayKtPP0B6yIMXeZtqDzS2oDQ
3IdwVZb73HIb4xCbfGICjpLqENwFeMSBi4YFtg8kRxTgI1AI0aISu99FBAsnw8uZ
lUhACAqXqtvJZPMvlw0XOqPQ9ggShUGT0jeimO9+hMw43mSKMpqg9+rMasCiYsWr
6vYQyNVQB4bYokYLdzxszLTh6k2J0sadH1o+c+RVBki7Ur+AZIvAG5CZ6h8oG4Oy
eMPRyTvscfVTeHUAid/WXxiefmF36tBokOoXYNPTpM8gzZE+AqjdzxGjHh1lXacK
rP29TtniXngNhXmpkTRaSfSIW4vFo8vkCsS5Ukrktr+iPaYrig6RXy4VDCq1seh5
K9ZO0b3eUjCJJStS8JFsSLd1Oonmo/uQc91Z6Fu3/Rk=
-----END CERTIFICATE-----
