Certificate:
    Data:
        Version: 3 (0x2)
        Serial Number:
            eb:d3:cc:5f:03:06:2c:4a:a1:89:8c:db:1b:bd:e7:f5
    Signature Algorithm: sha256WithRSAEncryption
        Issuer: C=FR, ST=Paris, L=Paris, O=Gandi, CN=Gandi Standard SSL CA 2
        Validity
            Not Before: Jul 13 00:00:00 2015 GMT
            Not After : Jul 22 23:59:59 2016 GMT
        Subject: OU=Domain Control Validated, OU=Gandi Standard SSL, CN=lintian.debian.org
        Subject Public Key Info:
            Public Key Algorithm: rsaEncryption
                Public-Key: (3072 bit)
                Modulus:
                    00:bc:78:46:64:be:a9:14:42:a8:05:60:19:72:33:
                    5b:ab:80:0c:33:45:a7:14:e8:ad:88:57:e3:98:0e:
                    86:55:36:0f:10:7e:6d:24:59:55:3e:44:d7:42:a2:
                    c8:47:1d:45:a7:50:93:74:bd:11:52:0f:11:28:3b:
                    5b:b4:07:a9:8d:55:86:23:a3:4c:d3:f1:d9:90:e4:
                    47:22:b0:a8:40:5b:10:98:30:ae:02:d6:ca:c5:c3:
                    98:c7:36:18:e4:3e:c1:6f:4d:6f:77:0d:7e:00:6a:
                    93:40:e6:ed:b8:64:05:b9:2a:09:28:71:f7:19:2e:
                    3a:fd:fa:92:66:b1:63:70:04:37:ab:9f:55:3f:04:
                    0a:35:5a:20:0b:94:58:fd:1d:91:09:9b:2b:c8:9a:
                    eb:17:2b:b0:db:93:d8:67:14:29:a0:fa:b1:b6:45:
                    8e:24:1a:f0:72:ea:14:b2:16:43:df:d5:71:43:88:
                    c3:9a:2e:01:ed:c4:f3:5e:bd:fd:dc:9e:d2:c0:40:
                    f4:68:78:06:1f:76:e1:b4:b3:91:71:e1:db:74:fb:
                    6b:49:97:5f:63:39:51:fb:00:3e:0d:31:2d:3f:0a:
                    42:16:4d:e9:40:9c:26:19:a1:7b:4f:2a:64:9d:60:
                    a7:53:76:8b:e6:0d:4d:23:f5:ab:cb:d9:63:7e:bc:
                    46:0a:06:4b:da:2b:b1:0f:90:ef:75:db:a4:01:18:
                    c6:2b:9d:17:e9:11:46:d4:31:06:2b:bf:2a:6f:66:
                    28:b8:9f:c1:85:c5:6c:86:07:5f:b2:c4:66:bf:e3:
                    6a:ab:24:48:59:3d:fc:2f:06:7a:8e:f1:51:de:36:
                    1d:09:31:de:6b:e6:cb:9a:76:7b:db:fe:77:5a:c1:
                    2b:96:74:57:7e:85:86:8f:cd:85:e5:03:f2:4f:1a:
                    35:fc:70:02:4e:eb:ab:d9:44:15:18:a8:90:52:d7:
                    f8:c2:32:6a:47:aa:dc:82:ee:ad:91:07:8c:c6:02:
                    19:3d:a4:86:d6:c1:25:b1:e6:97
                Exponent: 65537 (0x10001)
        X509v3 extensions:
            X509v3 Authority Key Identifier: 
                keyid:B3:90:A7:D8:C9:AF:4E:CD:61:3C:9F:7C:AD:5D:7F:41:FD:69:30:EA

            X509v3 Subject Key Identifier: 
                A5:FF:CA:DA:D3:4E:6E:EF:84:05:29:D1:D2:BB:48:90:80:23:0E:03
            X509v3 Key Usage: critical
                Digital Signature, Key Encipherment
            X509v3 Basic Constraints: critical
                CA:FALSE
            X509v3 Extended Key Usage: 
                TLS Web Server Authentication, TLS Web Client Authentication
            X509v3 Certificate Policies: 
                Policy: 1.3.6.1.4.1.6449.1.2.2.26
                  CPS: https://cps.usertrust.com
                Policy: 2.23.140.1.2.1

            X509v3 CRL Distribution Points: 

                Full Name:
                  URI:http://crl.usertrust.com/GandiStandardSSLCA2.crl

            Authority Information Access: 
                CA Issuers - URI:http://crt.usertrust.com/GandiStandardSSLCA2.crt
                OCSP - URI:http://ocsp.usertrust.com

            X509v3 Subject Alternative Name: 
                DNS:lintian.debian.org, DNS:www.lintian.debian.org
    Signature Algorithm: sha256WithRSAEncryption
         5e:19:86:c5:6e:0b:7d:e9:b9:26:a8:a6:b0:fb:09:ef:31:29:
         fd:90:13:51:df:01:d1:0e:32:b4:27:93:0e:9f:71:39:4c:99:
         37:c0:de:99:31:93:52:fb:86:ff:c7:34:1c:36:6a:0c:36:20:
         a8:0e:80:95:8a:79:01:f2:00:86:e5:a9:f8:75:c7:e7:c1:43:
         40:71:10:62:59:53:13:9c:ab:93:a7:f9:64:b3:1c:87:5c:b2:
         7d:8b:8d:39:ec:26:7e:c1:46:71:fa:7b:32:0b:04:51:2b:b0:
         ea:c2:f3:99:7a:91:52:cf:5a:2c:6b:3f:d1:8a:49:4c:90:ad:
         21:6a:75:fc:d9:d5:9d:32:6c:a1:c3:3e:33:96:1a:d3:ae:ba:
         51:7e:39:83:36:63:13:30:cf:e5:3b:4c:b7:9b:9c:76:68:c9:
         61:f7:a0:45:d7:b2:9b:2a:5e:dc:62:43:64:42:c4:19:d4:a1:
         82:99:ab:a2:c6:14:ff:15:75:2c:fe:2c:32:80:73:a7:93:bd:
         e7:d2:e6:06:23:71:ff:2a:9d:9f:ec:46:df:bb:91:f6:aa:07:
         fe:06:7d:e4:d6:b3:60:83:22:ce:4d:72:24:ce:19:13:24:7e:
         87:66:a2:05:06:bc:31:2e:81:a2:09:f2:bc:72:fd:66:fb:9a:
         b7:5b:13:6f
-----BEGIN CERTIFICATE-----
MIIFhjCCBG6gAwIBAgIRAOvTzF8DBixKoYmM2xu95/UwDQYJKoZIhvcNAQELBQAw
XzELMAkGA1UEBhMCRlIxDjAMBgNVBAgTBVBhcmlzMQ4wDAYDVQQHEwVQYXJpczEO
MAwGA1UEChMFR2FuZGkxIDAeBgNVBAMTF0dhbmRpIFN0YW5kYXJkIFNTTCBDQSAy
MB4XDTE1MDcxMzAwMDAwMFoXDTE2MDcyMjIzNTk1OVowXTEhMB8GA1UECxMYRG9t
YWluIENvbnRyb2wgVmFsaWRhdGVkMRswGQYDVQQLExJHYW5kaSBTdGFuZGFyZCBT
U0wxGzAZBgNVBAMTEmxpbnRpYW4uZGViaWFuLm9yZzCCAaIwDQYJKoZIhvcNAQEB
BQADggGPADCCAYoCggGBALx4RmS+qRRCqAVgGXIzW6uADDNFpxTorYhX45gOhlU2
DxB+bSRZVT5E10KiyEcdRadQk3S9EVIPESg7W7QHqY1VhiOjTNPx2ZDkRyKwqEBb
EJgwrgLWysXDmMc2GOQ+wW9Nb3cNfgBqk0Dm7bhkBbkqCShx9xkuOv36kmaxY3AE
N6ufVT8ECjVaIAuUWP0dkQmbK8ia6xcrsNuT2GcUKaD6sbZFjiQa8HLqFLIWQ9/V
cUOIw5ouAe3E8169/dye0sBA9Gh4Bh924bSzkXHh23T7a0mXX2M5UfsAPg0xLT8K
QhZN6UCcJhmhe08qZJ1gp1N2i+YNTSP1q8vZY368RgoGS9orsQ+Q73XbpAEYxiud
F+kRRtQxBiu/Km9mKLifwYXFbIYHX7LEZr/jaqskSFk9/C8Geo7xUd42HQkx3mvm
y5p2e9v+d1rBK5Z0V36Fho/NheUD8k8aNfxwAk7rq9lEFRiokFLX+MIyakeq3ILu
rZEHjMYCGT2khtbBJbHmlwIDAQABo4IBvTCCAbkwHwYDVR0jBBgwFoAUs5Cn2Mmv
Ts1hPJ98rV1/Qf1pMOowHQYDVR0OBBYEFKX/ytrTTm7vhAUp0dK7SJCAIw4DMA4G
A1UdDwEB/wQEAwIFoDAMBgNVHRMBAf8EAjAAMB0GA1UdJQQWMBQGCCsGAQUFBwMB
BggrBgEFBQcDAjBLBgNVHSAERDBCMDYGCysGAQQBsjEBAgIaMCcwJQYIKwYBBQUH
AgEWGWh0dHBzOi8vY3BzLnVzZXJ0cnVzdC5jb20wCAYGZ4EMAQIBMEEGA1UdHwQ6
MDgwNqA0oDKGMGh0dHA6Ly9jcmwudXNlcnRydXN0LmNvbS9HYW5kaVN0YW5kYXJk
U1NMQ0EyLmNybDBzBggrBgEFBQcBAQRnMGUwPAYIKwYBBQUHMAKGMGh0dHA6Ly9j
cnQudXNlcnRydXN0LmNvbS9HYW5kaVN0YW5kYXJkU1NMQ0EyLmNydDAlBggrBgEF
BQcwAYYZaHR0cDovL29jc3AudXNlcnRydXN0LmNvbTA1BgNVHREELjAsghJsaW50
aWFuLmRlYmlhbi5vcmeCFnd3dy5saW50aWFuLmRlYmlhbi5vcmcwDQYJKoZIhvcN
AQELBQADggEBAF4ZhsVuC33puSaoprD7Ce8xKf2QE1HfAdEOMrQnkw6fcTlMmTfA
3pkxk1L7hv/HNBw2agw2IKgOgJWKeQHyAIblqfh1x+fBQ0BxEGJZUxOcq5On+WSz
HIdcsn2LjTnsJn7BRnH6ezILBFErsOrC85l6kVLPWixrP9GKSUyQrSFqdfzZ1Z0y
bKHDPjOWGtOuulF+OYM2YxMwz+U7TLebnHZoyWH3oEXXspsqXtxiQ2RCxBnUoYKZ
q6LGFP8VdSz+LDKAc6eTvefS5gYjcf8qnZ/sRt+7kfaqB/4GfeTWs2CDIs5NciTO
GRMkfodmogUGvDEugaIJ8rxy/Wb7mrdbE28=
-----END CERTIFICATE-----
