Certificate:
    Data:
        Version: 3 (0x2)
        Serial Number:
            9f:e7:f2:29:64:f3:f9:98:42:d2:af:6b:ca:54:e7:e6
    Signature Algorithm: sha256WithRSAEncryption
        Issuer: C=FR, ST=Paris, L=Paris, O=Gandi, CN=Gandi Standard SSL CA 2
        Validity
            Not Before: Dec 16 00:00:00 2014 GMT
            Not After : Dec 30 23:59:59 2015 GMT
        Subject: OU=Domain Control Validated, OU=Gandi Standard SSL, CN=lists.debian.org
        Subject Public Key Info:
            Public Key Algorithm: rsaEncryption
                Public-Key: (3072 bit)
                Modulus:
                    00:c5:79:01:0f:20:72:4e:cb:76:ea:bb:65:d9:98:
                    6c:4d:cb:2f:73:51:d8:a5:f6:ad:f3:2f:a1:24:5d:
                    50:3b:f8:61:31:46:a1:19:ab:8e:b9:e6:34:19:48:
                    ea:72:d8:9f:69:8a:fe:e9:5e:90:6b:49:ac:88:16:
                    19:d0:75:3c:86:56:3c:a3:c8:51:03:e5:74:1d:71:
                    b7:4a:b5:a4:ca:ff:29:b0:18:4e:34:21:5b:57:20:
                    e3:0c:78:2d:61:d1:b2:f1:4a:d2:7f:6c:37:59:c1:
                    6e:15:2a:f8:69:50:29:e6:5d:b2:22:1c:96:08:1f:
                    01:d5:8a:b3:53:ae:e4:3b:1e:d4:31:33:44:c5:d3:
                    a9:b1:f2:1c:10:26:3c:ed:e8:6d:2d:85:ad:06:2c:
                    f7:4d:b4:82:a4:c4:c5:5c:4e:bb:08:ba:a6:c1:42:
                    e0:c3:e6:e8:de:42:43:d7:dd:e8:ae:e9:c9:bd:56:
                    db:d8:21:a5:f1:c8:2d:35:99:15:6a:cc:a7:7c:35:
                    d8:fe:25:41:78:40:a4:b6:b0:55:ae:a9:53:8e:5c:
                    51:21:23:41:89:d6:f2:61:e8:0e:34:89:7d:72:0d:
                    26:3a:f1:1c:9d:27:09:cc:f6:89:7d:15:3c:27:84:
                    eb:d8:01:5c:35:a8:ad:fa:54:c9:7f:ef:42:b0:bc:
                    ff:7a:20:f4:0b:00:84:48:50:c4:fe:53:ae:bd:d9:
                    da:e8:da:c4:81:e4:a7:2b:8d:16:5a:9f:92:39:c6:
                    67:bd:b8:a0:10:02:e7:eb:9c:db:67:20:76:3b:6d:
                    ec:d1:59:d1:33:f8:4a:dc:a2:31:0e:99:d4:ac:fd:
                    d2:b7:40:a2:11:26:0a:12:08:4a:33:ad:0b:a8:e8:
                    87:63:53:9d:9d:89:0f:66:da:6c:a2:a7:bf:40:d4:
                    5b:b3:f5:2d:b9:73:cd:c7:3a:2f:41:94:58:92:a8:
                    6c:23:bf:85:44:de:1c:c1:62:69:0b:ab:4f:8c:b5:
                    86:98:7a:2f:42:fd:d7:09:57:bd
                Exponent: 65537 (0x10001)
        X509v3 extensions:
            X509v3 Authority Key Identifier: 
                keyid:B3:90:A7:D8:C9:AF:4E:CD:61:3C:9F:7C:AD:5D:7F:41:FD:69:30:EA

            X509v3 Subject Key Identifier: 
                D3:88:E4:8A:C4:E7:38:88:4F:8A:64:35:DD:6B:48:01:77:FC:D4:29
            X509v3 Key Usage: critical
                Digital Signature, Key Encipherment
            X509v3 Basic Constraints: critical
                CA:FALSE
            X509v3 Extended Key Usage: 
                TLS Web Server Authentication, TLS Web Client Authentication
            X509v3 Certificate Policies: 
                Policy: 1.3.6.1.4.1.6449.1.2.2.26
                  CPS: https://cps.usertrust.com
                Policy: 2.23.140.1.2.1

            X509v3 CRL Distribution Points: 

                Full Name:
                  URI:http://crl.usertrust.com/GandiStandardSSLCA2.crl

            Authority Information Access: 
                CA Issuers - URI:http://crt.usertrust.com/GandiStandardSSLCA2.crt
                OCSP - URI:http://ocsp.usertrust.com

            X509v3 Subject Alternative Name: 
                DNS:lists.debian.org, DNS:www.lists.debian.org
    Signature Algorithm: sha256WithRSAEncryption
         17:2c:43:89:f2:b5:9f:3a:87:e5:88:6e:12:b4:02:75:0d:fb:
         c0:63:f3:21:67:53:89:9f:49:27:a0:24:6e:31:44:c2:fb:25:
         fa:c6:a8:83:85:4b:65:85:30:84:8c:9b:1d:3e:e5:d8:8c:4a:
         dd:1b:47:8d:66:15:2c:9a:1f:89:c7:b6:c9:66:f2:82:e3:a0:
         9a:a6:ee:5a:db:66:dc:7f:e4:d2:98:fa:35:2d:93:81:17:ea:
         05:0d:9a:80:03:70:55:98:43:1e:d0:3c:7f:30:7a:e7:23:c2:
         0e:71:c2:15:eb:76:fc:01:f3:32:75:6d:d5:d9:e7:13:76:9c:
         d7:96:3e:46:27:d3:dd:a1:b0:c3:43:aa:74:ac:5a:e3:25:e2:
         f9:ec:40:b4:2e:90:e1:7e:65:a0:7d:33:b2:32:c3:36:10:76:
         06:a0:a2:0d:ae:6a:56:4c:e8:16:cd:5b:cc:7f:09:12:49:d8:
         76:fd:3a:97:55:3a:6f:00:ce:59:68:96:0d:06:ea:c3:96:ad:
         9d:8e:eb:9a:94:05:90:bb:fd:03:eb:61:69:5e:ce:97:e3:80:
         f3:c3:d8:0b:87:87:13:85:2e:0a:17:ee:f9:aa:f5:be:7f:ab:
         98:da:94:f1:4f:a4:4d:97:b5:a3:39:7e:55:ec:9a:4e:6b:ad:
         d0:83:b0:6a
-----BEGIN CERTIFICATE-----
MIIFgDCCBGigAwIBAgIRAJ/n8ilk8/mYQtKva8pU5+YwDQYJKoZIhvcNAQELBQAw
XzELMAkGA1UEBhMCRlIxDjAMBgNVBAgTBVBhcmlzMQ4wDAYDVQQHEwVQYXJpczEO
MAwGA1UEChMFR2FuZGkxIDAeBgNVBAMTF0dhbmRpIFN0YW5kYXJkIFNTTCBDQSAy
MB4XDTE0MTIxNjAwMDAwMFoXDTE1MTIzMDIzNTk1OVowWzEhMB8GA1UECxMYRG9t
YWluIENvbnRyb2wgVmFsaWRhdGVkMRswGQYDVQQLExJHYW5kaSBTdGFuZGFyZCBT
U0wxGTAXBgNVBAMTEGxpc3RzLmRlYmlhbi5vcmcwggGiMA0GCSqGSIb3DQEBAQUA
A4IBjwAwggGKAoIBgQDFeQEPIHJOy3bqu2XZmGxNyy9zUdil9q3zL6EkXVA7+GEx
RqEZq4655jQZSOpy2J9piv7pXpBrSayIFhnQdTyGVjyjyFED5XQdcbdKtaTK/ymw
GE40IVtXIOMMeC1h0bLxStJ/bDdZwW4VKvhpUCnmXbIiHJYIHwHVirNTruQ7HtQx
M0TF06mx8hwQJjzt6G0tha0GLPdNtIKkxMVcTrsIuqbBQuDD5ujeQkPX3eiu6cm9
VtvYIaXxyC01mRVqzKd8Ndj+JUF4QKS2sFWuqVOOXFEhI0GJ1vJh6A40iX1yDSY6
8RydJwnM9ol9FTwnhOvYAVw1qK36VMl/70KwvP96IPQLAIRIUMT+U6692dro2sSB
5KcrjRZan5I5xme9uKAQAufrnNtnIHY7bezRWdEz+ErcojEOmdSs/dK3QKIRJgoS
CEozrQuo6IdjU52diQ9m2myip79A1Fuz9S25c83HOi9BlFiSqGwjv4VE3hzBYmkL
q0+MtYaYei9C/dcJV70CAwEAAaOCAbkwggG1MB8GA1UdIwQYMBaAFLOQp9jJr07N
YTyffK1df0H9aTDqMB0GA1UdDgQWBBTTiOSKxOc4iE+KZDXda0gBd/zUKTAOBgNV
HQ8BAf8EBAMCBaAwDAYDVR0TAQH/BAIwADAdBgNVHSUEFjAUBggrBgEFBQcDAQYI
KwYBBQUHAwIwSwYDVR0gBEQwQjA2BgsrBgEEAbIxAQICGjAnMCUGCCsGAQUFBwIB
FhlodHRwczovL2Nwcy51c2VydHJ1c3QuY29tMAgGBmeBDAECATBBBgNVHR8EOjA4
MDagNKAyhjBodHRwOi8vY3JsLnVzZXJ0cnVzdC5jb20vR2FuZGlTdGFuZGFyZFNT
TENBMi5jcmwwcwYIKwYBBQUHAQEEZzBlMDwGCCsGAQUFBzAChjBodHRwOi8vY3J0
LnVzZXJ0cnVzdC5jb20vR2FuZGlTdGFuZGFyZFNTTENBMi5jcnQwJQYIKwYBBQUH
MAGGGWh0dHA6Ly9vY3NwLnVzZXJ0cnVzdC5jb20wMQYDVR0RBCowKIIQbGlzdHMu
ZGViaWFuLm9yZ4IUd3d3Lmxpc3RzLmRlYmlhbi5vcmcwDQYJKoZIhvcNAQELBQAD
ggEBABcsQ4nytZ86h+WIbhK0AnUN+8Bj8yFnU4mfSSegJG4xRML7JfrGqIOFS2WF
MISMmx0+5diMSt0bR41mFSyaH4nHtslm8oLjoJqm7lrbZtx/5NKY+jUtk4EX6gUN
moADcFWYQx7QPH8weucjwg5xwhXrdvwB8zJ1bdXZ5xN2nNeWPkYn092hsMNDqnSs
WuMl4vnsQLQukOF+ZaB9M7IywzYQdgagog2ualZM6BbNW8x/CRJJ2Hb9OpdVOm8A
zllolg0G6sOWrZ2O65qUBZC7/QPrYWlezpfjgPPD2AuHhxOFLgoX7vmq9b5/q5ja
lPFPpE2XtaM5flXsmk5rrdCDsGo=
-----END CERTIFICATE-----
