Certificate:
    Data:
        Version: 3 (0x2)
        Serial Number:
            f1:47:ee:22:65:32:8d:a7:b1:71:ce:4f:6d:fd:d4:46
    Signature Algorithm: sha1WithRSAEncryption
        Issuer: C=FR, O=GANDI SAS, CN=Gandi Standard SSL CA
        Validity
            Not Before: Dec 30 00:00:00 2013 GMT
            Not After : Dec 30 23:59:59 2014 GMT
        Subject: OU=Domain Control Validated, OU=Gandi Standard SSL, CN=lists.debian.org
        Subject Public Key Info:
            Public Key Algorithm: rsaEncryption
                Public-Key: (2048 bit)
                Modulus:
                    00:ae:63:61:5c:7c:38:05:e6:9a:a5:45:c0:32:a2:
                    14:33:76:27:c4:6e:7d:76:72:04:6c:b3:2f:de:b4:
                    85:a5:ee:d3:9f:0a:af:a3:60:7b:33:66:0e:40:82:
                    06:50:a2:08:9e:b2:30:9e:9f:22:1b:83:af:1d:fd:
                    1b:33:af:02:d7:07:1f:d5:86:04:ed:0e:62:e4:07:
                    f4:81:4b:50:30:aa:8b:bf:cf:0f:b5:85:5b:4c:8e:
                    d3:5b:87:c6:14:c3:2d:34:1c:e5:b6:ea:0e:ca:fa:
                    1b:64:83:e5:6f:0c:2a:31:6f:a6:72:5e:79:db:a0:
                    79:f2:90:27:b5:0c:f9:76:ad:b2:a1:3f:8b:ef:a7:
                    5b:cd:f5:24:0d:51:45:66:33:e6:5c:10:d0:13:fc:
                    7c:4b:14:92:3f:54:c3:fb:2e:c5:e8:12:fd:2b:73:
                    c7:45:c2:d4:7b:1f:d9:19:39:e0:57:e9:8b:a4:09:
                    65:71:36:e5:c3:e9:55:dd:e2:af:c1:9a:0d:91:0a:
                    3f:05:b7:87:ce:f3:4b:96:0f:49:f1:7e:fe:11:1a:
                    7c:f7:73:3c:a5:d4:53:9e:eb:88:5c:5d:af:5f:3a:
                    43:95:07:ff:7a:03:e4:d2:3d:f1:99:d6:96:d0:7d:
                    e4:07:32:33:0a:9a:9d:ab:a0:b1:ff:49:e9:1f:e2:
                    28:8f
                Exponent: 65537 (0x10001)
        X509v3 extensions:
            X509v3 Authority Key Identifier: 
                keyid:B6:A8:FF:A2:A8:2F:D0:A6:CD:4B:B1:68:F3:E7:50:10:31:A7:79:21

            X509v3 Subject Key Identifier: 
                13:0C:33:BA:58:C2:C8:49:AB:49:3B:E2:E3:68:44:04:CA:4F:53:B6
            X509v3 Key Usage: critical
                Digital Signature, Key Encipherment
            X509v3 Basic Constraints: critical
                CA:FALSE
            X509v3 Extended Key Usage: 
                TLS Web Server Authentication, TLS Web Client Authentication
            X509v3 Certificate Policies: 
                Policy: 1.3.6.1.4.1.6449.1.2.2.26
                  CPS: http://www.gandi.net/contracts/fr/ssl/cps/pdf/
                Policy: 2.23.140.1.2.1

            X509v3 CRL Distribution Points: 

                Full Name:
                  URI:http://crl.gandi.net/GandiStandardSSLCA.crl

            Authority Information Access: 
                CA Issuers - URI:http://crt.gandi.net/GandiStandardSSLCA.crt
                OCSP - URI:http://ocsp.gandi.net

            X509v3 Subject Alternative Name: 
                DNS:lists.debian.org, DNS:www.lists.debian.org
    Signature Algorithm: sha1WithRSAEncryption
         6a:d1:d4:e8:c1:56:ab:75:ea:10:6f:3d:bb:83:fd:4c:6e:9b:
         7d:46:ff:e6:e0:ae:2c:ec:db:b2:3f:32:97:88:95:d7:4e:21:
         01:15:f9:28:84:bd:10:e1:59:55:7a:c5:b8:2c:a5:18:3d:bc:
         79:6a:bb:e0:d9:cf:5c:50:ac:73:d0:ac:6f:61:b4:4d:56:2d:
         3b:18:5f:eb:8b:07:3a:6c:60:85:2c:83:63:2c:5d:fa:bc:99:
         87:bc:92:40:e9:d3:18:bf:0f:13:37:3e:d4:b0:30:c2:c7:7c:
         e3:d1:9e:15:b6:12:ee:d2:18:fa:f4:c6:26:b2:c1:ba:2e:c4:
         92:cd:83:2b:f4:38:43:41:f7:c9:87:df:a5:c9:f6:41:d6:52:
         1e:91:55:31:fd:31:8c:ae:91:88:b4:ec:eb:63:55:ab:15:c5:
         4b:57:a0:79:bd:75:a6:60:ad:49:1e:ab:6e:b9:36:d7:b8:eb:
         ae:f3:39:21:4b:f6:12:ee:c3:9d:ac:b6:3f:63:89:96:e6:ae:
         df:12:4e:74:b3:78:1b:03:75:36:19:60:c7:59:e0:9e:4e:51:
         57:79:3e:c6:12:2e:da:52:fa:08:86:ef:56:7c:09:28:6a:b7:
         30:51:19:81:78:2d:88:3f:72:6c:cd:d3:91:88:30:e3:2f:aa:
         ae:da:57:05
-----BEGIN CERTIFICATE-----
MIIE6TCCA9GgAwIBAgIRAPFH7iJlMo2nsXHOT2391EYwDQYJKoZIhvcNAQEFBQAw
QTELMAkGA1UEBhMCRlIxEjAQBgNVBAoTCUdBTkRJIFNBUzEeMBwGA1UEAxMVR2Fu
ZGkgU3RhbmRhcmQgU1NMIENBMB4XDTEzMTIzMDAwMDAwMFoXDTE0MTIzMDIzNTk1
OVowWzEhMB8GA1UECxMYRG9tYWluIENvbnRyb2wgVmFsaWRhdGVkMRswGQYDVQQL
ExJHYW5kaSBTdGFuZGFyZCBTU0wxGTAXBgNVBAMTEGxpc3RzLmRlYmlhbi5vcmcw
ggEiMA0GCSqGSIb3DQEBAQUAA4IBDwAwggEKAoIBAQCuY2FcfDgF5pqlRcAyohQz
difEbn12cgRssy/etIWl7tOfCq+jYHszZg5AggZQogiesjCenyIbg68d/RszrwLX
Bx/VhgTtDmLkB/SBS1Awqou/zw+1hVtMjtNbh8YUwy00HOW26g7K+htkg+VvDCox
b6ZyXnnboHnykCe1DPl2rbKhP4vvp1vN9SQNUUVmM+ZcENAT/HxLFJI/VMP7LsXo
Ev0rc8dFwtR7H9kZOeBX6YukCWVxNuXD6VXd4q/Bmg2RCj8Ft4fO80uWD0nxfv4R
Gnz3czyl1FOe64hcXa9fOkOVB/96A+TSPfGZ1pbQfeQHMjMKmp2roLH/Sekf4iiP
AgMBAAGjggHAMIIBvDAfBgNVHSMEGDAWgBS2qP+iqC/Qps1LsWjz51AQMad5ITAd
BgNVHQ4EFgQUEwwzuljCyEmrSTvi42hEBMpPU7YwDgYDVR0PAQH/BAQDAgWgMAwG
A1UdEwEB/wQCMAAwHQYDVR0lBBYwFAYIKwYBBQUHAwEGCCsGAQUFBwMCMGAGA1Ud
IARZMFcwSwYLKwYBBAGyMQECAhowPDA6BggrBgEFBQcCARYuaHR0cDovL3d3dy5n
YW5kaS5uZXQvY29udHJhY3RzL2ZyL3NzbC9jcHMvcGRmLzAIBgZngQwBAgEwPAYD
VR0fBDUwMzAxoC+gLYYraHR0cDovL2NybC5nYW5kaS5uZXQvR2FuZGlTdGFuZGFy
ZFNTTENBLmNybDBqBggrBgEFBQcBAQReMFwwNwYIKwYBBQUHMAKGK2h0dHA6Ly9j
cnQuZ2FuZGkubmV0L0dhbmRpU3RhbmRhcmRTU0xDQS5jcnQwIQYIKwYBBQUHMAGG
FWh0dHA6Ly9vY3NwLmdhbmRpLm5ldDAxBgNVHREEKjAoghBsaXN0cy5kZWJpYW4u
b3JnghR3d3cubGlzdHMuZGViaWFuLm9yZzANBgkqhkiG9w0BAQUFAAOCAQEAatHU
6MFWq3XqEG89u4P9TG6bfUb/5uCuLOzbsj8yl4iV104hARX5KIS9EOFZVXrFuCyl
GD28eWq74NnPXFCsc9Csb2G0TVYtOxhf64sHOmxghSyDYyxd+ryZh7ySQOnTGL8P
Ezc+1LAwwsd849GeFbYS7tIY+vTGJrLBui7Eks2DK/Q4Q0H3yYffpcn2QdZSHpFV
Mf0xjK6RiLTs62NVqxXFS1egeb11pmCtSR6rbrk217jrrvM5IUv2Eu7Dnay2P2OJ
luau3xJOdLN4GwN1Nhlgx1ngnk5RV3k+xhIu2lL6CIbvVnwJKGq3MFEZgXgtiD9y
bM3TkYgw4y+qrtpXBQ==
-----END CERTIFICATE-----
