Certificate:
    Data:
        Version: 3 (0x2)
        Serial Number:
            ec:63:5e:53:ff:5e:65:7e:b4:75:d6:f1:d6:32:19:ec
    Signature Algorithm: sha256WithRSAEncryption
        Issuer: C=FR, ST=Paris, L=Paris, O=Gandi, CN=Gandi Standard SSL CA 2
        Validity
            Not Before: Dec 17 00:00:00 2014 GMT
            Not After : Jan  1 23:59:59 2016 GMT
        Subject: OU=Domain Control Validated, OU=Gandi Standard SSL, CN=munin.debian.org
        Subject Public Key Info:
            Public Key Algorithm: rsaEncryption
                Public-Key: (3072 bit)
                Modulus:
                    00:ad:44:54:d7:90:e4:eb:64:c4:27:3c:b1:8f:ef:
                    2f:28:3e:c5:07:b9:48:36:72:d4:1e:76:3e:81:e3:
                    6a:74:2a:fa:e9:e3:c6:0d:5b:46:7a:dd:a8:9b:31:
                    5a:38:e4:fa:72:52:10:29:04:9f:b9:ae:53:38:95:
                    0e:70:3b:12:09:2c:ec:b9:e1:d0:b8:2b:07:84:4d:
                    62:27:f2:13:24:9f:10:38:73:98:7b:ee:74:77:ea:
                    86:2d:98:99:e5:2f:ad:9e:d1:a7:b3:9c:ce:de:a6:
                    36:28:a3:6b:f5:16:60:52:f2:af:7a:ec:55:04:8c:
                    bb:13:80:d8:2a:ca:41:40:8e:26:8b:85:56:25:97:
                    eb:d0:83:68:f6:3d:f8:f2:03:e2:bc:5a:25:cf:ac:
                    eb:1a:6b:98:46:25:b3:ec:f0:2d:05:67:07:de:89:
                    62:2d:22:7d:e8:65:d8:2b:ec:63:20:06:9f:3d:bb:
                    fe:8b:7a:99:c9:eb:69:1e:e1:dc:31:54:b0:8c:50:
                    3e:9b:aa:f7:a7:52:f5:37:0d:be:8a:e3:11:41:9d:
                    4b:05:7d:63:a6:bd:fd:90:9b:63:be:45:56:8b:11:
                    79:c4:3b:82:43:49:54:d1:cd:f1:fe:92:bd:f7:83:
                    90:3e:7b:3c:3b:46:7f:70:cf:e0:5b:b3:c0:3d:3f:
                    41:32:6a:5b:48:47:52:89:c7:a1:8d:00:cc:ad:8b:
                    e7:fb:97:36:d4:96:0f:31:66:44:b8:fc:67:b4:e3:
                    30:64:37:b1:9b:ec:81:b0:a9:25:79:12:0e:d8:ec:
                    5d:04:9a:6b:91:ef:d6:7a:07:f7:fd:94:fa:83:9b:
                    d6:1a:e9:50:6f:38:08:ab:f3:06:df:e9:d3:15:42:
                    e6:8f:e2:6d:54:9f:c7:dd:d4:2d:70:39:b9:b2:29:
                    fd:a5:0e:aa:ae:5c:ea:a9:fd:95:73:27:5a:00:08:
                    12:d0:c0:94:50:4a:f8:0b:f5:7d:cb:d6:9a:90:00:
                    01:75:63:53:81:b4:f8:25:5e:45
                Exponent: 65537 (0x10001)
        X509v3 extensions:
            X509v3 Authority Key Identifier: 
                keyid:B3:90:A7:D8:C9:AF:4E:CD:61:3C:9F:7C:AD:5D:7F:41:FD:69:30:EA

            X509v3 Subject Key Identifier: 
                F2:10:87:60:72:B8:D3:A5:A1:69:80:47:EE:52:B2:3B:18:4D:89:DC
            X509v3 Key Usage: critical
                Digital Signature, Key Encipherment
            X509v3 Basic Constraints: critical
                CA:FALSE
            X509v3 Extended Key Usage: 
                TLS Web Server Authentication, TLS Web Client Authentication
            X509v3 Certificate Policies: 
                Policy: 1.3.6.1.4.1.6449.1.2.2.26
                  CPS: https://cps.usertrust.com
                Policy: 2.23.140.1.2.1

            X509v3 CRL Distribution Points: 

                Full Name:
                  URI:http://crl.usertrust.com/GandiStandardSSLCA2.crl

            Authority Information Access: 
                CA Issuers - URI:http://crt.usertrust.com/GandiStandardSSLCA2.crt
                OCSP - URI:http://ocsp.usertrust.com

            X509v3 Subject Alternative Name: 
                DNS:munin.debian.org, DNS:www.munin.debian.org
    Signature Algorithm: sha256WithRSAEncryption
         7d:56:ac:56:dc:79:97:43:7f:0e:c7:62:5b:50:b8:fc:16:7d:
         3b:e9:7d:07:4d:49:3d:4f:98:22:e2:38:b6:33:10:df:5d:09:
         40:4f:60:25:66:aa:25:47:79:a2:05:0f:14:98:d1:a4:4c:9f:
         b6:2f:c3:b9:a4:96:c1:6a:fe:50:6c:a8:9a:47:1e:04:3e:8c:
         c5:3b:bc:5f:f3:c4:c9:66:8c:0d:b6:4c:fa:fc:b8:70:8c:c4:
         c3:3f:0d:71:db:58:55:e0:83:57:c4:41:7d:59:6e:c2:c3:cc:
         df:c4:88:84:49:7e:f3:dc:b4:d0:3c:a0:97:55:bb:c6:d6:3d:
         0d:7b:73:d3:1d:f4:e4:69:5c:19:e3:60:4f:c4:ab:60:10:40:
         cc:d2:43:5c:d0:51:c8:c1:7e:18:3b:90:f7:c9:2a:ec:e3:fa:
         57:42:21:4c:bd:d7:87:6d:3b:ff:fa:21:d2:73:d6:6b:1a:05:
         13:3a:be:9a:5c:b0:9d:29:ec:1b:eb:f6:3b:20:ac:28:f0:53:
         fa:87:d7:23:5c:a2:c1:b4:d8:85:66:61:cf:04:1e:2f:19:7e:
         e5:ee:ae:c2:69:8b:5d:00:82:f6:c0:32:b6:98:56:0d:19:3b:
         dc:e7:4f:74:a5:dc:f6:1c:91:58:de:0f:26:22:4d:7c:04:80:
         5b:17:a1:20
-----BEGIN CERTIFICATE-----
MIIFgDCCBGigAwIBAgIRAOxjXlP/XmV+tHXW8dYyGewwDQYJKoZIhvcNAQELBQAw
XzELMAkGA1UEBhMCRlIxDjAMBgNVBAgTBVBhcmlzMQ4wDAYDVQQHEwVQYXJpczEO
MAwGA1UEChMFR2FuZGkxIDAeBgNVBAMTF0dhbmRpIFN0YW5kYXJkIFNTTCBDQSAy
MB4XDTE0MTIxNzAwMDAwMFoXDTE2MDEwMTIzNTk1OVowWzEhMB8GA1UECxMYRG9t
YWluIENvbnRyb2wgVmFsaWRhdGVkMRswGQYDVQQLExJHYW5kaSBTdGFuZGFyZCBT
U0wxGTAXBgNVBAMTEG11bmluLmRlYmlhbi5vcmcwggGiMA0GCSqGSIb3DQEBAQUA
A4IBjwAwggGKAoIBgQCtRFTXkOTrZMQnPLGP7y8oPsUHuUg2ctQedj6B42p0Kvrp
48YNW0Z63aibMVo45PpyUhApBJ+5rlM4lQ5wOxIJLOy54dC4KweETWIn8hMknxA4
c5h77nR36oYtmJnlL62e0aeznM7epjYoo2v1FmBS8q967FUEjLsTgNgqykFAjiaL
hVYll+vQg2j2PfjyA+K8WiXPrOsaa5hGJbPs8C0FZwfeiWItIn3oZdgr7GMgBp89
u/6LepnJ62ke4dwxVLCMUD6bqvenUvU3Db6K4xFBnUsFfWOmvf2Qm2O+RVaLEXnE
O4JDSVTRzfH+kr33g5A+ezw7Rn9wz+Bbs8A9P0EyaltIR1KJx6GNAMyti+f7lzbU
lg8xZkS4/Ge04zBkN7Gb7IGwqSV5Eg7Y7F0EmmuR79Z6B/f9lPqDm9Ya6VBvOAir
8wbf6dMVQuaP4m1Un8fd1C1wObmyKf2lDqquXOqp/ZVzJ1oACBLQwJRQSvgL9X3L
1pqQAAF1Y1OBtPglXkUCAwEAAaOCAbkwggG1MB8GA1UdIwQYMBaAFLOQp9jJr07N
YTyffK1df0H9aTDqMB0GA1UdDgQWBBTyEIdgcrjTpaFpgEfuUrI7GE2J3DAOBgNV
HQ8BAf8EBAMCBaAwDAYDVR0TAQH/BAIwADAdBgNVHSUEFjAUBggrBgEFBQcDAQYI
KwYBBQUHAwIwSwYDVR0gBEQwQjA2BgsrBgEEAbIxAQICGjAnMCUGCCsGAQUFBwIB
FhlodHRwczovL2Nwcy51c2VydHJ1c3QuY29tMAgGBmeBDAECATBBBgNVHR8EOjA4
MDagNKAyhjBodHRwOi8vY3JsLnVzZXJ0cnVzdC5jb20vR2FuZGlTdGFuZGFyZFNT
TENBMi5jcmwwcwYIKwYBBQUHAQEEZzBlMDwGCCsGAQUFBzAChjBodHRwOi8vY3J0
LnVzZXJ0cnVzdC5jb20vR2FuZGlTdGFuZGFyZFNTTENBMi5jcnQwJQYIKwYBBQUH
MAGGGWh0dHA6Ly9vY3NwLnVzZXJ0cnVzdC5jb20wMQYDVR0RBCowKIIQbXVuaW4u
ZGViaWFuLm9yZ4IUd3d3Lm11bmluLmRlYmlhbi5vcmcwDQYJKoZIhvcNAQELBQAD
ggEBAH1WrFbceZdDfw7HYltQuPwWfTvpfQdNST1PmCLiOLYzEN9dCUBPYCVmqiVH
eaIFDxSY0aRMn7Yvw7mklsFq/lBsqJpHHgQ+jMU7vF/zxMlmjA22TPr8uHCMxMM/
DXHbWFXgg1fEQX1ZbsLDzN/EiIRJfvPctNA8oJdVu8bWPQ17c9Md9ORpXBnjYE/E
q2AQQMzSQ1zQUcjBfhg7kPfJKuzj+ldCIUy914dtO//6IdJz1msaBRM6vppcsJ0p
7Bvr9jsgrCjwU/qH1yNcosG02IVmYc8EHi8ZfuXursJpi10AgvbAMraYVg0ZO9zn
T3Sl3PYckVjeDyYiTXwEgFsXoSA=
-----END CERTIFICATE-----
