Certificate:
    Data:
        Version: 3 (0x2)
        Serial Number:
            3e:67:a1:0f:67:28:19:d8:06:65:c9:bd:08:0b:5d:57
    Signature Algorithm: sha1WithRSAEncryption
        Issuer: C=FR, O=GANDI SAS, CN=Gandi Standard SSL CA
        Validity
            Not Before: Jan  1 00:00:00 2014 GMT
            Not After : Jan  1 23:59:59 2015 GMT
        Subject: OU=Domain Control Validated, OU=Gandi Standard SSL, CN=munin.debian.org
        Subject Public Key Info:
            Public Key Algorithm: rsaEncryption
                Public-Key: (2048 bit)
                Modulus:
                    00:c4:07:85:c8:f7:13:f3:6a:0c:0c:b0:3c:44:f6:
                    e0:1d:cb:4c:82:0f:86:e9:3d:b2:83:13:f9:9e:e7:
                    a7:34:6f:2a:7b:30:f8:86:46:04:6c:f2:cc:88:2c:
                    14:63:06:5d:eb:b6:7d:9e:a6:ae:2a:af:e5:e1:37:
                    45:bc:1b:c5:48:1e:d6:d1:7f:f7:e2:05:81:83:4a:
                    b6:60:ee:d6:d1:f8:c6:43:f9:5d:37:91:6e:c6:fa:
                    d3:64:fb:fa:9c:5e:dc:97:4b:dd:81:25:9a:57:5e:
                    8c:ef:f1:a7:63:c0:c2:0a:6c:72:26:40:f7:2a:41:
                    4f:2f:17:6f:8e:a4:05:b6:2a:12:4e:ce:04:d9:3a:
                    21:fe:05:35:72:02:10:32:40:10:c1:b0:92:04:1c:
                    b8:08:50:42:1c:4e:65:b0:d9:f5:6f:ea:13:43:35:
                    5f:f1:14:25:31:e4:80:7f:88:af:e4:3b:d2:fa:42:
                    7d:8f:68:82:42:2a:4e:4b:47:1f:0f:c4:2f:52:4a:
                    af:21:c0:95:87:2c:8f:57:56:b9:c3:b2:2f:06:0e:
                    f0:c9:25:c2:7c:f3:5f:8e:30:39:07:66:51:a0:7c:
                    9b:b4:d3:a5:6c:10:32:a5:d9:fb:09:b6:89:bf:67:
                    82:e8:e6:6a:58:fe:e5:39:12:1c:56:d9:c2:65:8d:
                    32:59
                Exponent: 65537 (0x10001)
        X509v3 extensions:
            X509v3 Authority Key Identifier: 
                keyid:B6:A8:FF:A2:A8:2F:D0:A6:CD:4B:B1:68:F3:E7:50:10:31:A7:79:21

            X509v3 Subject Key Identifier: 
                D1:F0:F8:D2:1A:61:0D:30:DC:A2:70:59:22:A4:28:27:68:04:84:7C
            X509v3 Key Usage: critical
                Digital Signature, Key Encipherment
            X509v3 Basic Constraints: critical
                CA:FALSE
            X509v3 Extended Key Usage: 
                TLS Web Server Authentication, TLS Web Client Authentication
            X509v3 Certificate Policies: 
                Policy: 1.3.6.1.4.1.6449.1.2.2.26
                  CPS: http://www.gandi.net/contracts/fr/ssl/cps/pdf/
                Policy: 2.23.140.1.2.1

            X509v3 CRL Distribution Points: 

                Full Name:
                  URI:http://crl.gandi.net/GandiStandardSSLCA.crl

            Authority Information Access: 
                CA Issuers - URI:http://crt.gandi.net/GandiStandardSSLCA.crt
                OCSP - URI:http://ocsp.gandi.net

            X509v3 Subject Alternative Name: 
                DNS:munin.debian.org, DNS:www.munin.debian.org
    Signature Algorithm: sha1WithRSAEncryption
         90:70:43:1f:31:f1:fc:60:d1:64:17:62:e1:b5:86:16:96:e2:
         81:c1:b4:f6:78:17:6b:16:65:ad:37:56:b8:b5:ba:0f:24:5c:
         82:72:05:c7:7e:02:66:b8:20:33:b8:6c:54:4b:33:57:5c:3f:
         8c:ea:c4:06:b4:e0:4b:83:a8:5d:b2:f2:46:76:d2:93:06:13:
         0e:64:ce:c2:e9:6e:41:e7:1c:78:32:6b:25:d4:5d:f5:86:2b:
         4d:07:32:78:07:95:ef:84:e4:04:38:45:5e:ca:46:b2:df:33:
         b4:13:22:01:e0:50:29:64:91:23:2c:e7:d5:58:42:ab:ea:2e:
         af:9a:a4:2c:42:e0:9e:b5:cf:cf:73:31:ee:25:19:66:9e:75:
         6f:1c:05:d2:0b:ab:ab:a2:45:46:08:a9:bc:50:39:94:51:d5:
         eb:2b:f9:8a:2e:ee:4d:e2:02:d2:1e:71:42:f4:d7:01:cd:af:
         46:9b:6f:75:53:8d:a8:98:6a:e6:07:91:c3:ed:87:33:02:70:
         43:4e:e8:17:bd:dc:82:05:34:ff:bb:2f:a2:e7:27:ca:e9:f1:
         68:3c:64:78:61:72:21:9e:a1:56:87:b7:12:e4:10:b6:7a:13:
         cd:0b:b8:71:80:8e:02:72:61:6e:8c:7c:69:4f:4d:41:38:5b:
         46:d0:87:cd
-----BEGIN CERTIFICATE-----
MIIE6DCCA9CgAwIBAgIQPmehD2coGdgGZcm9CAtdVzANBgkqhkiG9w0BAQUFADBB
MQswCQYDVQQGEwJGUjESMBAGA1UEChMJR0FOREkgU0FTMR4wHAYDVQQDExVHYW5k
aSBTdGFuZGFyZCBTU0wgQ0EwHhcNMTQwMTAxMDAwMDAwWhcNMTUwMTAxMjM1OTU5
WjBbMSEwHwYDVQQLExhEb21haW4gQ29udHJvbCBWYWxpZGF0ZWQxGzAZBgNVBAsT
EkdhbmRpIFN0YW5kYXJkIFNTTDEZMBcGA1UEAxMQbXVuaW4uZGViaWFuLm9yZzCC
ASIwDQYJKoZIhvcNAQEBBQADggEPADCCAQoCggEBAMQHhcj3E/NqDAywPET24B3L
TIIPhuk9soMT+Z7npzRvKnsw+IZGBGzyzIgsFGMGXeu2fZ6mriqv5eE3RbwbxUge
1tF/9+IFgYNKtmDu1tH4xkP5XTeRbsb602T7+pxe3JdL3YElmldejO/xp2PAwgps
ciZA9ypBTy8Xb46kBbYqEk7OBNk6If4FNXICEDJAEMGwkgQcuAhQQhxOZbDZ9W/q
E0M1X/EUJTHkgH+Ir+Q70vpCfY9ogkIqTktHHw/EL1JKryHAlYcsj1dWucOyLwYO
8MklwnzzX44wOQdmUaB8m7TTpWwQMqXZ+wm2ib9ngujmalj+5TkSHFbZwmWNMlkC
AwEAAaOCAcAwggG8MB8GA1UdIwQYMBaAFLao/6KoL9CmzUuxaPPnUBAxp3khMB0G
A1UdDgQWBBTR8PjSGmENMNyicFkipCgnaASEfDAOBgNVHQ8BAf8EBAMCBaAwDAYD
VR0TAQH/BAIwADAdBgNVHSUEFjAUBggrBgEFBQcDAQYIKwYBBQUHAwIwYAYDVR0g
BFkwVzBLBgsrBgEEAbIxAQICGjA8MDoGCCsGAQUFBwIBFi5odHRwOi8vd3d3Lmdh
bmRpLm5ldC9jb250cmFjdHMvZnIvc3NsL2Nwcy9wZGYvMAgGBmeBDAECATA8BgNV
HR8ENTAzMDGgL6AthitodHRwOi8vY3JsLmdhbmRpLm5ldC9HYW5kaVN0YW5kYXJk
U1NMQ0EuY3JsMGoGCCsGAQUFBwEBBF4wXDA3BggrBgEFBQcwAoYraHR0cDovL2Ny
dC5nYW5kaS5uZXQvR2FuZGlTdGFuZGFyZFNTTENBLmNydDAhBggrBgEFBQcwAYYV
aHR0cDovL29jc3AuZ2FuZGkubmV0MDEGA1UdEQQqMCiCEG11bmluLmRlYmlhbi5v
cmeCFHd3dy5tdW5pbi5kZWJpYW4ub3JnMA0GCSqGSIb3DQEBBQUAA4IBAQCQcEMf
MfH8YNFkF2LhtYYWluKBwbT2eBdrFmWtN1a4tboPJFyCcgXHfgJmuCAzuGxUSzNX
XD+M6sQGtOBLg6hdsvJGdtKTBhMOZM7C6W5B5xx4Mmsl1F31hitNBzJ4B5XvhOQE
OEVeykay3zO0EyIB4FApZJEjLOfVWEKr6i6vmqQsQuCetc/PczHuJRlmnnVvHAXS
C6urokVGCKm8UDmUUdXrK/mKLu5N4gLSHnFC9NcBza9Gm291U42omGrmB5HD7Ycz
AnBDTugXvdyCBTT/uy+i5yfK6fFoPGR4YXIhnqFWh7cS5BC2ehPNC7hxgI4CcmFu
jHxpT01BOFtG0IfN
-----END CERTIFICATE-----
