Certificate:
    Data:
        Version: 3 (0x2)
        Serial Number: 96 (0x60)
        Signature Algorithm: sha1WithRSAEncryption
        Issuer: O=Debian, CN=ca.debian.org/emailAddress=debian-admin@debian.org
        Validity
            Not Before: Feb 20 19:44:41 2013 GMT
            Not After : Feb 20 19:44:41 2014 GMT
        Subject: O=Debian, CN=munin.debian.org/emailAddress=debian-admin@debian.org
        Subject Public Key Info:
            Public Key Algorithm: rsaEncryption
            RSA Public Key: (2048 bit)
                Modulus (2048 bit):
                    00:c4:07:85:c8:f7:13:f3:6a:0c:0c:b0:3c:44:f6:
                    e0:1d:cb:4c:82:0f:86:e9:3d:b2:83:13:f9:9e:e7:
                    a7:34:6f:2a:7b:30:f8:86:46:04:6c:f2:cc:88:2c:
                    14:63:06:5d:eb:b6:7d:9e:a6:ae:2a:af:e5:e1:37:
                    45:bc:1b:c5:48:1e:d6:d1:7f:f7:e2:05:81:83:4a:
                    b6:60:ee:d6:d1:f8:c6:43:f9:5d:37:91:6e:c6:fa:
                    d3:64:fb:fa:9c:5e:dc:97:4b:dd:81:25:9a:57:5e:
                    8c:ef:f1:a7:63:c0:c2:0a:6c:72:26:40:f7:2a:41:
                    4f:2f:17:6f:8e:a4:05:b6:2a:12:4e:ce:04:d9:3a:
                    21:fe:05:35:72:02:10:32:40:10:c1:b0:92:04:1c:
                    b8:08:50:42:1c:4e:65:b0:d9:f5:6f:ea:13:43:35:
                    5f:f1:14:25:31:e4:80:7f:88:af:e4:3b:d2:fa:42:
                    7d:8f:68:82:42:2a:4e:4b:47:1f:0f:c4:2f:52:4a:
                    af:21:c0:95:87:2c:8f:57:56:b9:c3:b2:2f:06:0e:
                    f0:c9:25:c2:7c:f3:5f:8e:30:39:07:66:51:a0:7c:
                    9b:b4:d3:a5:6c:10:32:a5:d9:fb:09:b6:89:bf:67:
                    82:e8:e6:6a:58:fe:e5:39:12:1c:56:d9:c2:65:8d:
                    32:59
                Exponent: 65537 (0x10001)
        X509v3 extensions:
            X509v3 Basic Constraints: 
                CA:FALSE
            X509v3 Subject Key Identifier: 
                D1:F0:F8:D2:1A:61:0D:30:DC:A2:70:59:22:A4:28:27:68:04:84:7C
            X509v3 Authority Key Identifier: 
                keyid:A7:CF:4B:FA:5F:12:C6:23:74:2E:9E:A3:95:90:75:8C:CC:26:76:96
                DirName:/C=US/ST=Indiana/L=Indianapolis/O=Software in the Public Interest/OU=hostmaster/CN=Certificate Authority/emailAddress=hostmaster@spi-inc.org
                serial:03

    Signature Algorithm: sha1WithRSAEncryption
        6e:67:77:95:fb:26:9c:54:16:83:4e:bd:01:7c:cc:91:b3:1a:
        0c:6d:36:ac:2e:09:63:4b:08:cb:82:a6:77:34:61:21:ed:d7:
        23:3f:2a:f4:1b:52:60:64:a8:44:11:fb:5f:05:d7:22:9c:86:
        67:15:ea:8b:67:d8:c9:87:45:4a:41:1e:a0:38:74:fc:0f:59:
        2f:48:5e:bf:76:0d:0b:e4:b4:c0:fc:86:be:62:58:6d:55:5d:
        e8:fa:8f:42:8e:e5:53:ec:a1:7d:5d:7e:87:76:88:cb:67:21:
        9d:1b:7d:2f:33:ff:2a:18:67:b7:07:cf:be:ac:b5:a7:e0:40:
        60:87:dc:28:e4:51:4d:6f:a4:94:e9:ea:82:1a:90:c7:1c:7a:
        fd:d3:53:ce:df:c2:0f:a5:58:42:54:fe:89:c7:ed:ee:0f:5d:
        53:3d:89:1a:fe:90:7d:7b:b5:dc:22:81:6b:ed:c5:c2:9c:2c:
        c0:4c:0e:91:f4:e3:65:9a:81:11:f6:7a:bc:68:44:16:dd:ae:
        d6:cc:1b:bc:da:38:3f:ce:51:e1:10:35:0f:11:4b:18:63:c1:
        d1:a9:96:09:86:fd:8b:58:b5:56:b5:7c:a2:fa:48:84:d8:51:
        80:9f:36:8f:94:98:86:c1:34:e6:f3:e5:d2:a9:d1:83:db:c3:
        4c:45:ec:1a:12:99:10:ce:a6:bf:d4:aa:36:81:e2:14:e1:45:
        74:94:c5:85:61:17:0c:16:cb:46:e1:a2:70:24:db:c5:40:58:
        28:a4:d9:70:29:36:b9:8b:e0:f1:99:dd:3d:04:3c:95:16:d6:
        7e:52:f7:e3:3b:e8:b0:da:0b:27:91:c9:67:7c:d9:c5:ee:de:
        ea:e1:e2:57:ee:f6:5e:a1:c9:87:0c:a3:77:88:89:6f:fb:8a:
        5c:ce:ac:8e:6a:1d:60:6f:6a:ae:89:18:7c:66:6e:0a:20:1a:
        8f:91:8d:50:ed:84:10:d5:dd:85:9c:9e:fd:4a:e4:a9:38:01:
        de:bf:0c:df:cf:18:7e:2e:f6:c4:ee:a5:4b:4e:26:cc:99:be:
        de:3b:3a:6d:9d:4c:85:67:1e:97:e9:bf:50:9e:5c:15:3b:87:
        7a:63:a8:a9:7e:15:d8:8e:6c:1d:56:40:56:c7:4f:64:49:6a:
        63:5f:1f:d9:d2:64:e2:44:7f:80:b2:95:fb:fc:ee:a5:02:28:
        62:a6:5e:fd:94:6e:8d:48:74:ce:9b:9f:e4:ba:d7:4b:bd:a1:
        99:2b:42:e0:56:fe:b0:69:24:88:61:24:00:74:c8:f8:97:c9:
        3f:37:72:39:f3:d1:88:7d:f0:1f:4b:66:e1:fc:21:d2:6b:3f:
        1e:a9:67:42:78:f8:fd:f0
-----BEGIN CERTIFICATE-----
MIIFPDCCAySgAwIBAgIBYDANBgkqhkiG9w0BAQUFADBRMQ8wDQYDVQQKEwZEZWJp
YW4xFjAUBgNVBAMTDWNhLmRlYmlhbi5vcmcxJjAkBgkqhkiG9w0BCQEWF2RlYmlh
bi1hZG1pbkBkZWJpYW4ub3JnMB4XDTEzMDIyMDE5NDQ0MVoXDTE0MDIyMDE5NDQ0
MVowVDEPMA0GA1UEChMGRGViaWFuMRkwFwYDVQQDExBtdW5pbi5kZWJpYW4ub3Jn
MSYwJAYJKoZIhvcNAQkBFhdkZWJpYW4tYWRtaW5AZGViaWFuLm9yZzCCASIwDQYJ
KoZIhvcNAQEBBQADggEPADCCAQoCggEBAMQHhcj3E/NqDAywPET24B3LTIIPhuk9
soMT+Z7npzRvKnsw+IZGBGzyzIgsFGMGXeu2fZ6mriqv5eE3RbwbxUge1tF/9+IF
gYNKtmDu1tH4xkP5XTeRbsb602T7+pxe3JdL3YElmldejO/xp2PAwgpsciZA9ypB
Ty8Xb46kBbYqEk7OBNk6If4FNXICEDJAEMGwkgQcuAhQQhxOZbDZ9W/qE0M1X/EU
JTHkgH+Ir+Q70vpCfY9ogkIqTktHHw/EL1JKryHAlYcsj1dWucOyLwYO8Mklwnzz
X44wOQdmUaB8m7TTpWwQMqXZ+wm2ib9ngujmalj+5TkSHFbZwmWNMlkCAwEAAaOC
ARowggEWMAkGA1UdEwQCMAAwHQYDVR0OBBYEFNHw+NIaYQ0w3KJwWSKkKCdoBIR8
MIHpBgNVHSMEgeEwgd6AFKfPS/pfEsYjdC6eo5WQdYzMJnaWoYHCpIG/MIG8MQsw
CQYDVQQGEwJVUzEQMA4GA1UECBMHSW5kaWFuYTEVMBMGA1UEBxMMSW5kaWFuYXBv
bGlzMSgwJgYDVQQKEx9Tb2Z0d2FyZSBpbiB0aGUgUHVibGljIEludGVyZXN0MRMw
EQYDVQQLEwpob3N0bWFzdGVyMR4wHAYDVQQDExVDZXJ0aWZpY2F0ZSBBdXRob3Jp
dHkxJTAjBgkqhkiG9w0BCQEWFmhvc3RtYXN0ZXJAc3BpLWluYy5vcmeCAQMwDQYJ
KoZIhvcNAQEFBQADggIBAG5nd5X7JpxUFoNOvQF8zJGzGgxtNqwuCWNLCMuCpnc0
YSHt1yM/KvQbUmBkqEQR+18F1yKchmcV6otn2MmHRUpBHqA4dPwPWS9IXr92DQvk
tMD8hr5iWG1VXej6j0KO5VPsoX1dfod2iMtnIZ0bfS8z/yoYZ7cHz76stafgQGCH
3CjkUU1vpJTp6oIakMccev3TU87fwg+lWEJU/onH7e4PXVM9iRr+kH17tdwigWvt
xcKcLMBMDpH042WagRH2erxoRBbdrtbMG7zaOD/OUeEQNQ8RSxhjwdGplgmG/YtY
tVa1fKL6SITYUYCfNo+UmIbBNObz5dKp0YPbw0xF7BoSmRDOpr/UqjaB4hThRXSU
xYVhFwwWy0bhonAk28VAWCik2XApNrmL4PGZ3T0EPJUW1n5S9+M76LDaCyeRyWd8
2cXu3urh4lfu9l6hyYcMo3eIiW/7ilzOrI5qHWBvaq6JGHxmbgogGo+RjVDthBDV
3YWcnv1K5Kk4Ad6/DN/PGH4u9sTupUtOJsyZvt47Om2dTIVnHpfpv1CeXBU7h3pj
qKl+FdiObB1WQFbHT2RJamNfH9nSZOJEf4Cylfv87qUCKGKmXv2Ubo1IdM6bn+S6
10u9oZkrQuBW/rBpJIhhJAB0yPiXyT83cjnz0Yh98B9LZuH8IdJrPx6pZ0J4+P3w
-----END CERTIFICATE-----
