Certificate:
    Data:
        Version: 3 (0x2)
        Serial Number:
            02:56:89:bd:ea:d3:38:3d:1a:49:44:af:ea:82:20:5d
    Signature Algorithm: sha256WithRSAEncryption
        Issuer: C=FR, ST=Paris, L=Paris, O=Gandi, CN=Gandi Standard SSL CA 2
        Validity
            Not Before: Dec 17 00:00:00 2014 GMT
            Not After : Jan  1 23:59:59 2016 GMT
        Subject: OU=Domain Control Validated, OU=Gandi Standard SSL, CN=nagios.debian.org
        Subject Public Key Info:
            Public Key Algorithm: rsaEncryption
                Public-Key: (3072 bit)
                Modulus:
                    00:f6:87:c1:2b:63:cf:7f:a2:2e:5e:2e:6e:61:c5:
                    93:a4:ac:b3:49:82:be:78:f7:8a:bf:3f:58:fd:c6:
                    7d:65:58:9b:b5:53:90:57:f1:3d:40:27:b5:ad:0a:
                    6e:ec:b0:96:7e:cd:ce:8e:86:f0:19:62:15:60:df:
                    d4:68:38:f6:92:25:43:36:1d:f5:9d:4b:20:04:52:
                    0b:3a:1e:d3:ef:29:fc:97:d6:e8:5d:98:62:0c:4a:
                    8d:74:d9:33:4c:6f:0c:43:95:ed:bb:90:88:ea:e1:
                    99:76:8f:a1:00:41:62:01:78:60:a5:69:65:4b:a9:
                    e3:a1:c8:b7:fc:c5:6c:c5:a7:f5:31:df:62:aa:ab:
                    52:eb:17:ad:d1:38:66:54:fd:ee:56:6e:0e:7e:bb:
                    5e:5b:94:78:e1:dc:70:fa:6e:3b:cc:92:f2:fd:4e:
                    2d:08:4a:d8:9f:5b:3c:58:54:a6:ac:fb:ef:52:8a:
                    e5:3d:9a:72:28:2d:9e:92:df:29:f0:be:79:b4:d2:
                    89:7c:73:2d:33:57:74:66:0d:35:df:93:1a:7e:f2:
                    59:ad:8b:81:b4:fb:5e:a1:f2:b8:8c:1b:86:99:00:
                    3a:e0:43:7c:41:11:18:ff:34:40:f1:14:c0:cf:31:
                    8b:5a:6b:5f:44:9e:8b:9a:d1:cf:50:1c:18:61:b2:
                    cd:1f:5e:a2:f5:83:44:7d:4c:2a:b4:1d:cb:4c:28:
                    37:f2:c1:d0:3a:12:67:85:58:0f:d8:70:0c:e5:99:
                    07:81:75:4a:8c:24:17:93:a0:6b:08:eb:26:7c:5c:
                    41:a3:50:91:b5:79:53:63:c3:3f:b9:6f:d1:36:45:
                    b6:8a:e9:2a:ea:5f:d7:2f:37:0f:2d:dd:bd:1f:b0:
                    e6:5e:c9:0c:b2:57:fe:42:f8:c2:17:6c:12:a4:ec:
                    b5:e2:60:db:ca:c7:82:e7:3c:38:1d:d3:e0:e2:0f:
                    b0:dc:1f:4b:73:e7:1c:88:b7:fe:9b:f0:14:f6:34:
                    10:18:50:8c:54:5f:f6:04:6f:19
                Exponent: 65537 (0x10001)
        X509v3 extensions:
            X509v3 Authority Key Identifier: 
                keyid:B3:90:A7:D8:C9:AF:4E:CD:61:3C:9F:7C:AD:5D:7F:41:FD:69:30:EA

            X509v3 Subject Key Identifier: 
                E7:37:33:C0:4E:90:E6:DB:38:C3:85:47:49:5A:66:75:07:87:07:E0
            X509v3 Key Usage: critical
                Digital Signature, Key Encipherment
            X509v3 Basic Constraints: critical
                CA:FALSE
            X509v3 Extended Key Usage: 
                TLS Web Server Authentication, TLS Web Client Authentication
            X509v3 Certificate Policies: 
                Policy: 1.3.6.1.4.1.6449.1.2.2.26
                  CPS: https://cps.usertrust.com
                Policy: 2.23.140.1.2.1

            X509v3 CRL Distribution Points: 

                Full Name:
                  URI:http://crl.usertrust.com/GandiStandardSSLCA2.crl

            Authority Information Access: 
                CA Issuers - URI:http://crt.usertrust.com/GandiStandardSSLCA2.crt
                OCSP - URI:http://ocsp.usertrust.com

            X509v3 Subject Alternative Name: 
                DNS:nagios.debian.org, DNS:www.nagios.debian.org
    Signature Algorithm: sha256WithRSAEncryption
         34:ac:92:c1:6a:14:b4:fe:c1:7f:38:76:93:7f:29:50:0a:97:
         63:ee:c7:53:cc:c2:f5:59:b6:c0:1d:3c:7e:60:64:12:41:78:
         3f:d8:cc:d2:de:a4:17:1b:c1:8e:8f:28:77:e7:1f:5f:28:a3:
         07:ba:56:ee:f3:d6:bb:4b:2f:9a:a3:8d:9c:73:61:0e:36:1d:
         f6:fc:c7:2a:a2:38:99:70:9e:f6:08:b9:89:6e:ba:0a:1e:c3:
         da:67:f9:5e:20:45:3c:11:fd:e0:0f:f1:27:f5:ce:f2:c6:df:
         8d:11:63:db:e2:16:fa:68:9f:66:7b:e3:1e:bf:6e:49:cf:a2:
         d8:63:fb:4f:d9:c5:8e:ba:39:fc:a0:dc:b7:c8:a8:08:36:10:
         67:83:96:9b:66:d8:62:5f:c0:33:b8:19:0a:c5:5c:71:74:8e:
         92:b8:eb:72:fd:63:54:18:f7:04:c7:1b:7a:c5:fc:29:98:8b:
         0b:a4:17:8b:0a:fe:82:ef:34:20:4d:85:b8:70:e7:9d:55:41:
         3b:57:d1:9b:b3:9d:5e:b1:28:a8:4e:19:80:bb:64:0a:76:1d:
         7e:59:6a:9f:e4:70:59:a1:87:c7:e0:65:10:e1:18:85:71:ed:
         d7:fb:e4:cb:58:c1:6d:4e:d2:c0:33:ed:cc:46:43:99:b4:cb:
         7e:73:8d:6a
-----BEGIN CERTIFICATE-----
MIIFgjCCBGqgAwIBAgIQAlaJverTOD0aSUSv6oIgXTANBgkqhkiG9w0BAQsFADBf
MQswCQYDVQQGEwJGUjEOMAwGA1UECBMFUGFyaXMxDjAMBgNVBAcTBVBhcmlzMQ4w
DAYDVQQKEwVHYW5kaTEgMB4GA1UEAxMXR2FuZGkgU3RhbmRhcmQgU1NMIENBIDIw
HhcNMTQxMjE3MDAwMDAwWhcNMTYwMTAxMjM1OTU5WjBcMSEwHwYDVQQLExhEb21h
aW4gQ29udHJvbCBWYWxpZGF0ZWQxGzAZBgNVBAsTEkdhbmRpIFN0YW5kYXJkIFNT
TDEaMBgGA1UEAxMRbmFnaW9zLmRlYmlhbi5vcmcwggGiMA0GCSqGSIb3DQEBAQUA
A4IBjwAwggGKAoIBgQD2h8ErY89/oi5eLm5hxZOkrLNJgr5494q/P1j9xn1lWJu1
U5BX8T1AJ7WtCm7ssJZ+zc6OhvAZYhVg39RoOPaSJUM2HfWdSyAEUgs6HtPvKfyX
1uhdmGIMSo102TNMbwxDle27kIjq4Zl2j6EAQWIBeGClaWVLqeOhyLf8xWzFp/Ux
32Kqq1LrF63ROGZU/e5Wbg5+u15blHjh3HD6bjvMkvL9Ti0IStifWzxYVKas++9S
iuU9mnIoLZ6S3ynwvnm00ol8cy0zV3RmDTXfkxp+8lmti4G0+16h8riMG4aZADrg
Q3xBERj/NEDxFMDPMYtaa19Enoua0c9QHBhhss0fXqL1g0R9TCq0HctMKDfywdA6
EmeFWA/YcAzlmQeBdUqMJBeToGsI6yZ8XEGjUJG1eVNjwz+5b9E2RbaK6SrqX9cv
Nw8t3b0fsOZeyQyyV/5C+MIXbBKk7LXiYNvKx4LnPDgd0+DiD7DcH0tz5xyIt/6b
8BT2NBAYUIxUX/YEbxkCAwEAAaOCAbswggG3MB8GA1UdIwQYMBaAFLOQp9jJr07N
YTyffK1df0H9aTDqMB0GA1UdDgQWBBTnNzPATpDm2zjDhUdJWmZ1B4cH4DAOBgNV
HQ8BAf8EBAMCBaAwDAYDVR0TAQH/BAIwADAdBgNVHSUEFjAUBggrBgEFBQcDAQYI
KwYBBQUHAwIwSwYDVR0gBEQwQjA2BgsrBgEEAbIxAQICGjAnMCUGCCsGAQUFBwIB
FhlodHRwczovL2Nwcy51c2VydHJ1c3QuY29tMAgGBmeBDAECATBBBgNVHR8EOjA4
MDagNKAyhjBodHRwOi8vY3JsLnVzZXJ0cnVzdC5jb20vR2FuZGlTdGFuZGFyZFNT
TENBMi5jcmwwcwYIKwYBBQUHAQEEZzBlMDwGCCsGAQUFBzAChjBodHRwOi8vY3J0
LnVzZXJ0cnVzdC5jb20vR2FuZGlTdGFuZGFyZFNTTENBMi5jcnQwJQYIKwYBBQUH
MAGGGWh0dHA6Ly9vY3NwLnVzZXJ0cnVzdC5jb20wMwYDVR0RBCwwKoIRbmFnaW9z
LmRlYmlhbi5vcmeCFXd3dy5uYWdpb3MuZGViaWFuLm9yZzANBgkqhkiG9w0BAQsF
AAOCAQEANKySwWoUtP7Bfzh2k38pUAqXY+7HU8zC9Vm2wB08fmBkEkF4P9jM0t6k
FxvBjo8od+cfXyijB7pW7vPWu0svmqONnHNhDjYd9vzHKqI4mXCe9gi5iW66Ch7D
2mf5XiBFPBH94A/xJ/XO8sbfjRFj2+IW+mifZnvjHr9uSc+i2GP7T9nFjro5/KDc
t8ioCDYQZ4OWm2bYYl/AM7gZCsVccXSOkrjrcv1jVBj3BMcbesX8KZiLC6QXiwr+
gu80IE2FuHDnnVVBO1fRm7OdXrEoqE4ZgLtkCnYdfllqn+RwWaGHx+BlEOEYhXHt
1/vky1jBbU7SwDPtzEZDmbTLfnONag==
-----END CERTIFICATE-----
