Certificate:
    Data:
        Version: 3 (0x2)
        Serial Number:
            3d:8f:31:4f:73:11:a7:07:4a:25:44:09:d1:0e:91:cf
    Signature Algorithm: sha256WithRSAEncryption
        Issuer: C=FR, ST=Paris, L=Paris, O=Gandi, CN=Gandi Standard SSL CA 2
        Validity
            Not Before: Dec 17 00:00:00 2014 GMT
            Not After : Dec 31 23:59:59 2015 GMT
        Subject: OU=Domain Control Validated, OU=Gandi Standard SSL, CN=nm.debian.org
        Subject Public Key Info:
            Public Key Algorithm: rsaEncryption
                Public-Key: (3072 bit)
                Modulus:
                    00:ac:af:9a:d3:85:e3:d3:d6:9e:d4:41:d3:ee:46:
                    d8:0b:94:73:41:7a:43:82:0d:7b:ed:f1:d9:51:42:
                    dd:e3:91:c2:28:25:d0:e1:6c:ed:91:95:0a:36:a4:
                    09:f2:9b:c6:0d:14:c3:c5:f7:72:30:1e:4f:4c:97:
                    7b:31:81:a1:5d:80:24:76:20:2b:81:79:d4:d0:51:
                    95:10:f4:24:a8:1c:d9:08:76:1e:9e:a6:db:51:c2:
                    c4:66:27:45:64:7e:28:e0:8b:d2:e0:96:7c:08:da:
                    47:c2:7f:d9:49:7f:33:39:80:c8:0c:c0:4e:d3:68:
                    ec:7f:44:0a:a2:15:92:80:6b:3c:da:38:c0:e0:1a:
                    86:b8:7b:7a:86:84:43:55:68:fa:32:af:60:0a:01:
                    09:d4:07:47:f3:0c:90:85:f4:95:72:42:5c:7d:a7:
                    c4:3f:06:a2:44:80:d0:d1:24:0a:b8:c3:81:5a:1b:
                    25:fb:e1:55:6b:43:c6:3e:16:b5:de:dc:4e:98:f2:
                    1c:a4:0c:7a:51:6d:7f:76:99:c6:70:90:53:33:6e:
                    09:80:bd:f3:0d:e4:ce:2c:25:e5:5f:34:48:ed:64:
                    e6:fd:25:f2:ba:15:1c:f0:e6:12:b2:ef:31:fd:0d:
                    bd:ee:d8:1b:ef:d4:8f:1d:c6:2a:73:0d:77:30:8f:
                    9e:dc:52:6d:85:c0:c9:6f:ec:ef:d1:fe:54:54:1d:
                    69:3b:51:95:2c:d3:f2:db:66:80:73:7d:0d:b9:ec:
                    4b:45:db:41:d3:d2:a1:90:35:e9:50:20:40:84:b2:
                    a8:6b:94:1a:9e:70:8f:14:2c:96:32:c4:d3:07:61:
                    10:89:82:b1:34:00:0d:33:ae:d3:a3:74:10:86:87:
                    4b:ab:bc:a3:16:46:3d:64:83:38:aa:66:02:07:a6:
                    87:1b:f0:28:7b:aa:79:a0:14:3f:5a:90:91:54:ed:
                    f5:48:07:bb:3e:38:36:31:59:17:d7:25:dd:67:b1:
                    a1:97:d3:33:41:c1:c0:40:c5:71
                Exponent: 65537 (0x10001)
        X509v3 extensions:
            X509v3 Authority Key Identifier: 
                keyid:B3:90:A7:D8:C9:AF:4E:CD:61:3C:9F:7C:AD:5D:7F:41:FD:69:30:EA

            X509v3 Subject Key Identifier: 
                A3:2A:D5:D0:07:FA:55:4D:59:5B:DB:95:C5:42:B2:44:FC:20:2C:A5
            X509v3 Key Usage: critical
                Digital Signature, Key Encipherment
            X509v3 Basic Constraints: critical
                CA:FALSE
            X509v3 Extended Key Usage: 
                TLS Web Server Authentication, TLS Web Client Authentication
            X509v3 Certificate Policies: 
                Policy: 1.3.6.1.4.1.6449.1.2.2.26
                  CPS: https://cps.usertrust.com
                Policy: 2.23.140.1.2.1

            X509v3 CRL Distribution Points: 

                Full Name:
                  URI:http://crl.usertrust.com/GandiStandardSSLCA2.crl

            Authority Information Access: 
                CA Issuers - URI:http://crt.usertrust.com/GandiStandardSSLCA2.crt
                OCSP - URI:http://ocsp.usertrust.com

            X509v3 Subject Alternative Name: 
                DNS:nm.debian.org, DNS:www.nm.debian.org
    Signature Algorithm: sha256WithRSAEncryption
         55:e8:52:d6:ba:aa:ab:00:da:6a:fb:c0:6f:69:80:84:4c:8c:
         c4:ac:5b:bf:36:e9:50:d6:f8:39:6b:1c:2f:a1:68:00:b4:29:
         cd:f2:39:27:d3:b5:a9:98:ce:e0:05:a5:7c:85:5c:d5:9e:6f:
         c1:75:d3:69:8e:76:78:9e:80:a3:d2:93:f9:53:37:c4:a3:62:
         61:a7:2e:13:09:d1:e0:55:4c:5a:4a:59:9d:83:59:14:d3:97:
         42:f3:07:f9:7d:2e:b9:1b:b7:6d:ed:8a:03:60:26:4f:19:69:
         eb:65:23:40:ba:88:b1:77:4a:de:8d:1c:64:70:94:23:bd:3d:
         c4:ee:5a:6f:c9:87:08:a5:ee:df:2f:f0:6e:19:80:35:82:79:
         96:76:67:09:2e:a7:b8:7d:eb:08:c9:3d:50:ee:b9:40:da:2f:
         4e:68:2b:80:4b:37:fd:a4:0a:a6:cb:5f:6e:2c:3d:b6:09:ed:
         b5:6a:c0:16:4a:e9:2b:16:a2:2f:0c:38:f4:92:df:f9:c6:b1:
         65:39:cf:4a:94:34:b3:52:90:96:91:21:e2:bd:d0:ba:2e:1a:
         e0:a0:f0:e4:e5:04:db:f7:51:4b:bf:79:63:31:7c:e2:30:b6:
         61:a7:f8:99:4c:fe:99:08:86:ef:95:af:11:6e:8e:90:31:bb:
         98:c0:de:0f
-----BEGIN CERTIFICATE-----
MIIFdjCCBF6gAwIBAgIQPY8xT3MRpwdKJUQJ0Q6RzzANBgkqhkiG9w0BAQsFADBf
MQswCQYDVQQGEwJGUjEOMAwGA1UECBMFUGFyaXMxDjAMBgNVBAcTBVBhcmlzMQ4w
DAYDVQQKEwVHYW5kaTEgMB4GA1UEAxMXR2FuZGkgU3RhbmRhcmQgU1NMIENBIDIw
HhcNMTQxMjE3MDAwMDAwWhcNMTUxMjMxMjM1OTU5WjBYMSEwHwYDVQQLExhEb21h
aW4gQ29udHJvbCBWYWxpZGF0ZWQxGzAZBgNVBAsTEkdhbmRpIFN0YW5kYXJkIFNT
TDEWMBQGA1UEAxMNbm0uZGViaWFuLm9yZzCCAaIwDQYJKoZIhvcNAQEBBQADggGP
ADCCAYoCggGBAKyvmtOF49PWntRB0+5G2AuUc0F6Q4INe+3x2VFC3eORwigl0OFs
7ZGVCjakCfKbxg0Uw8X3cjAeT0yXezGBoV2AJHYgK4F51NBRlRD0JKgc2Qh2Hp6m
21HCxGYnRWR+KOCL0uCWfAjaR8J/2Ul/MzmAyAzATtNo7H9ECqIVkoBrPNo4wOAa
hrh7eoaEQ1Vo+jKvYAoBCdQHR/MMkIX0lXJCXH2nxD8GokSA0NEkCrjDgVobJfvh
VWtDxj4Wtd7cTpjyHKQMelFtf3aZxnCQUzNuCYC98w3kziwl5V80SO1k5v0l8roV
HPDmErLvMf0Nve7YG+/Ujx3GKnMNdzCPntxSbYXAyW/s79H+VFQdaTtRlSzT8ttm
gHN9DbnsS0XbQdPSoZA16VAgQISyqGuUGp5wjxQsljLE0wdhEImCsTQADTOu06N0
EIaHS6u8oxZGPWSDOKpmAgemhxvwKHuqeaAUP1qQkVTt9UgHuz44NjFZF9cl3Wex
oZfTM0HBwEDFcQIDAQABo4IBszCCAa8wHwYDVR0jBBgwFoAUs5Cn2MmvTs1hPJ98
rV1/Qf1pMOowHQYDVR0OBBYEFKMq1dAH+lVNWVvblcVCskT8ICylMA4GA1UdDwEB
/wQEAwIFoDAMBgNVHRMBAf8EAjAAMB0GA1UdJQQWMBQGCCsGAQUFBwMBBggrBgEF
BQcDAjBLBgNVHSAERDBCMDYGCysGAQQBsjEBAgIaMCcwJQYIKwYBBQUHAgEWGWh0
dHBzOi8vY3BzLnVzZXJ0cnVzdC5jb20wCAYGZ4EMAQIBMEEGA1UdHwQ6MDgwNqA0
oDKGMGh0dHA6Ly9jcmwudXNlcnRydXN0LmNvbS9HYW5kaVN0YW5kYXJkU1NMQ0Ey
LmNybDBzBggrBgEFBQcBAQRnMGUwPAYIKwYBBQUHMAKGMGh0dHA6Ly9jcnQudXNl
cnRydXN0LmNvbS9HYW5kaVN0YW5kYXJkU1NMQ0EyLmNydDAlBggrBgEFBQcwAYYZ
aHR0cDovL29jc3AudXNlcnRydXN0LmNvbTArBgNVHREEJDAigg1ubS5kZWJpYW4u
b3JnghF3d3cubm0uZGViaWFuLm9yZzANBgkqhkiG9w0BAQsFAAOCAQEAVehS1rqq
qwDaavvAb2mAhEyMxKxbvzbpUNb4OWscL6FoALQpzfI5J9O1qZjO4AWlfIVc1Z5v
wXXTaY52eJ6Ao9KT+VM3xKNiYacuEwnR4FVMWkpZnYNZFNOXQvMH+X0uuRu3be2K
A2AmTxlp62UjQLqIsXdK3o0cZHCUI709xO5ab8mHCKXu3y/wbhmANYJ5lnZnCS6n
uH3rCMk9UO65QNovTmgrgEs3/aQKpstfbiw9tgnttWrAFkrpKxaiLww49JLf+cax
ZTnPSpQ0s1KQlpEh4r3Qui4a4KDw5OUE2/dRS795YzF84jC2Yaf4mUz+mQiG75Wv
EW6OkDG7mMDeDw==
-----END CERTIFICATE-----
