Certificate:
    Data:
        Version: 3 (0x2)
        Serial Number:
            7b:db:ac:61:6f:49:12:77:be:8f:6b:ba:a1:d7:c6:95
    Signature Algorithm: sha1WithRSAEncryption
        Issuer: C=FR, O=GANDI SAS, CN=Gandi Standard SSL CA
        Validity
            Not Before: Dec 31 00:00:00 2013 GMT
            Not After : Dec 31 23:59:59 2014 GMT
        Subject: OU=Domain Control Validated, OU=Gandi Standard SSL, CN=nm.debian.org
        Subject Public Key Info:
            Public Key Algorithm: rsaEncryption
                Public-Key: (2048 bit)
                Modulus:
                    00:f2:3d:69:93:be:91:6b:60:1d:d4:96:73:f0:0f:
                    7a:13:c6:94:25:9d:4c:ac:68:5f:ea:2a:22:24:90:
                    84:c4:78:9b:5e:7c:4f:c9:20:84:48:80:dc:7f:ba:
                    9e:9e:b5:38:17:89:2b:53:d2:b4:9d:05:2a:fc:47:
                    18:62:7b:83:00:e5:57:fe:13:f4:8a:38:a6:07:c7:
                    4e:5c:e0:76:7d:a3:45:a8:e3:ee:57:9b:52:6b:7f:
                    80:02:f3:2f:4f:65:96:d4:89:be:5f:4b:0d:4c:8a:
                    81:dc:33:85:8a:72:39:87:9a:5d:24:c6:cd:61:bf:
                    95:ab:fd:32:ed:e2:4e:f8:79:88:db:cc:df:8a:5b:
                    44:28:9d:94:57:f6:a1:45:f1:a8:ee:80:9a:e1:99:
                    1d:28:45:95:61:69:9f:5f:ac:8d:87:a0:20:9b:5a:
                    c5:1e:dc:79:17:71:52:eb:24:4c:ac:49:6f:e8:0c:
                    20:96:1e:3f:a7:46:fe:d0:84:e9:1f:fb:b5:63:cf:
                    5e:be:4f:08:74:bb:33:f8:6a:d2:1e:af:ad:f2:e2:
                    46:71:69:34:2a:db:04:f9:c8:53:67:09:16:18:a5:
                    b1:90:5f:a2:69:0d:fb:83:ee:4f:0a:81:f6:fe:73:
                    38:e6:da:27:86:92:d3:1c:e0:05:98:31:93:56:39:
                    cc:61
                Exponent: 65537 (0x10001)
        X509v3 extensions:
            X509v3 Authority Key Identifier: 
                keyid:B6:A8:FF:A2:A8:2F:D0:A6:CD:4B:B1:68:F3:E7:50:10:31:A7:79:21

            X509v3 Subject Key Identifier: 
                60:17:AC:0E:7A:FC:4A:92:0A:B8:C9:AA:C0:94:DD:6A:2B:40:F8:5B
            X509v3 Key Usage: critical
                Digital Signature, Key Encipherment
            X509v3 Basic Constraints: critical
                CA:FALSE
            X509v3 Extended Key Usage: 
                TLS Web Server Authentication, TLS Web Client Authentication
            X509v3 Certificate Policies: 
                Policy: 1.3.6.1.4.1.6449.1.2.2.26
                  CPS: http://www.gandi.net/contracts/fr/ssl/cps/pdf/
                Policy: 2.23.140.1.2.1

            X509v3 CRL Distribution Points: 

                Full Name:
                  URI:http://crl.gandi.net/GandiStandardSSLCA.crl

            Authority Information Access: 
                CA Issuers - URI:http://crt.gandi.net/GandiStandardSSLCA.crt
                OCSP - URI:http://ocsp.gandi.net

            X509v3 Subject Alternative Name: 
                DNS:nm.debian.org, DNS:www.nm.debian.org
    Signature Algorithm: sha1WithRSAEncryption
         a6:43:5e:b8:b5:a0:fa:7a:32:f6:d1:11:0e:89:cf:ee:f6:4f:
         22:81:09:d5:0d:62:45:68:f5:35:67:de:d6:d0:88:10:96:b5:
         bb:4d:ff:f8:78:f9:1c:6b:56:5c:6e:9a:29:3d:27:55:e3:17:
         99:7e:ea:82:cb:54:84:45:4a:68:3f:77:54:b0:a5:e1:98:21:
         6e:f9:f1:24:e6:32:9d:46:5a:52:a7:24:3d:f2:14:b0:8d:f2:
         10:36:40:55:23:8a:5f:ce:bb:1b:ad:a4:a3:5a:93:20:bc:99:
         53:b7:a4:c8:51:82:91:bc:f6:23:3d:d1:5b:2d:38:e5:94:08:
         e4:90:b0:bb:2b:44:82:d5:59:61:f6:4f:74:6e:f8:44:bd:be:
         45:24:4a:c1:f2:dd:4f:c6:99:2d:5b:63:da:77:30:80:d0:72:
         c0:8b:e7:b3:3f:27:9c:24:5a:22:12:77:e7:ab:b8:fc:48:54:
         fa:a5:e5:2d:9a:d1:cf:63:a5:c9:a2:e5:20:26:36:e5:8f:e5:
         c8:a9:08:60:1b:aa:c0:bd:3b:53:01:ba:b8:a8:0d:fd:74:0c:
         7f:f5:de:7e:f9:51:99:c8:bb:52:95:d7:b3:61:79:c3:7d:7c:
         26:07:ec:a2:90:59:af:05:22:5e:68:f6:e2:7e:90:d7:fb:8e:
         2f:64:99:89
-----BEGIN CERTIFICATE-----
MIIE3zCCA8egAwIBAgIQe9usYW9JEne+j2u6odfGlTANBgkqhkiG9w0BAQUFADBB
MQswCQYDVQQGEwJGUjESMBAGA1UEChMJR0FOREkgU0FTMR4wHAYDVQQDExVHYW5k
aSBTdGFuZGFyZCBTU0wgQ0EwHhcNMTMxMjMxMDAwMDAwWhcNMTQxMjMxMjM1OTU5
WjBYMSEwHwYDVQQLExhEb21haW4gQ29udHJvbCBWYWxpZGF0ZWQxGzAZBgNVBAsT
EkdhbmRpIFN0YW5kYXJkIFNTTDEWMBQGA1UEAxMNbm0uZGViaWFuLm9yZzCCASIw
DQYJKoZIhvcNAQEBBQADggEPADCCAQoCggEBAPI9aZO+kWtgHdSWc/APehPGlCWd
TKxoX+oqIiSQhMR4m158T8kghEiA3H+6np61OBeJK1PStJ0FKvxHGGJ7gwDlV/4T
9Io4pgfHTlzgdn2jRajj7lebUmt/gALzL09lltSJvl9LDUyKgdwzhYpyOYeaXSTG
zWG/lav9Mu3iTvh5iNvM34pbRCidlFf2oUXxqO6AmuGZHShFlWFpn1+sjYegIJta
xR7ceRdxUuskTKxJb+gMIJYeP6dG/tCE6R/7tWPPXr5PCHS7M/hq0h6vrfLiRnFp
NCrbBPnIU2cJFhilsZBfomkN+4PuTwqB9v5zOObaJ4aS0xzgBZgxk1Y5zGECAwEA
AaOCAbowggG2MB8GA1UdIwQYMBaAFLao/6KoL9CmzUuxaPPnUBAxp3khMB0GA1Ud
DgQWBBRgF6wOevxKkgq4yarAlN1qK0D4WzAOBgNVHQ8BAf8EBAMCBaAwDAYDVR0T
AQH/BAIwADAdBgNVHSUEFjAUBggrBgEFBQcDAQYIKwYBBQUHAwIwYAYDVR0gBFkw
VzBLBgsrBgEEAbIxAQICGjA8MDoGCCsGAQUFBwIBFi5odHRwOi8vd3d3LmdhbmRp
Lm5ldC9jb250cmFjdHMvZnIvc3NsL2Nwcy9wZGYvMAgGBmeBDAECATA8BgNVHR8E
NTAzMDGgL6AthitodHRwOi8vY3JsLmdhbmRpLm5ldC9HYW5kaVN0YW5kYXJkU1NM
Q0EuY3JsMGoGCCsGAQUFBwEBBF4wXDA3BggrBgEFBQcwAoYraHR0cDovL2NydC5n
YW5kaS5uZXQvR2FuZGlTdGFuZGFyZFNTTENBLmNydDAhBggrBgEFBQcwAYYVaHR0
cDovL29jc3AuZ2FuZGkubmV0MCsGA1UdEQQkMCKCDW5tLmRlYmlhbi5vcmeCEXd3
dy5ubS5kZWJpYW4ub3JnMA0GCSqGSIb3DQEBBQUAA4IBAQCmQ164taD6ejL20REO
ic/u9k8igQnVDWJFaPU1Z97W0IgQlrW7Tf/4ePkca1ZcbpopPSdV4xeZfuqCy1SE
RUpoP3dUsKXhmCFu+fEk5jKdRlpSpyQ98hSwjfIQNkBVI4pfzrsbraSjWpMgvJlT
t6TIUYKRvPYjPdFbLTjllAjkkLC7K0SC1Vlh9k90bvhEvb5FJErB8t1PxpktW2Pa
dzCA0HLAi+ezPyecJFoiEnfnq7j8SFT6peUtmtHPY6XJouUgJjblj+XIqQhgG6rA
vTtTAbq4qA39dAx/9d5++VGZyLtSldezYXnDfXwmB+yikFmvBSJeaPbifpDX+44v
ZJmJ
-----END CERTIFICATE-----
