Certificate:
    Data:
        Version: 3 (0x2)
        Serial Number:
            6e:66:f3:bf:fa:81:51:fa:2d:d7:19:93:b5:98:6e:b0
    Signature Algorithm: sha256WithRSAEncryption
        Issuer: C=FR, ST=Paris, L=Paris, O=Gandi, CN=Gandi Standard SSL CA 2
        Validity
            Not Before: Dec 11 00:00:00 2015 GMT
            Not After : Jan 20 23:59:59 2017 GMT
        Subject: OU=Domain Control Validated, OU=Gandi Standard SSL, CN=nm.debian.org
        Subject Public Key Info:
            Public Key Algorithm: rsaEncryption
                Public-Key: (3072 bit)
                Modulus:
                    00:ac:af:9a:d3:85:e3:d3:d6:9e:d4:41:d3:ee:46:
                    d8:0b:94:73:41:7a:43:82:0d:7b:ed:f1:d9:51:42:
                    dd:e3:91:c2:28:25:d0:e1:6c:ed:91:95:0a:36:a4:
                    09:f2:9b:c6:0d:14:c3:c5:f7:72:30:1e:4f:4c:97:
                    7b:31:81:a1:5d:80:24:76:20:2b:81:79:d4:d0:51:
                    95:10:f4:24:a8:1c:d9:08:76:1e:9e:a6:db:51:c2:
                    c4:66:27:45:64:7e:28:e0:8b:d2:e0:96:7c:08:da:
                    47:c2:7f:d9:49:7f:33:39:80:c8:0c:c0:4e:d3:68:
                    ec:7f:44:0a:a2:15:92:80:6b:3c:da:38:c0:e0:1a:
                    86:b8:7b:7a:86:84:43:55:68:fa:32:af:60:0a:01:
                    09:d4:07:47:f3:0c:90:85:f4:95:72:42:5c:7d:a7:
                    c4:3f:06:a2:44:80:d0:d1:24:0a:b8:c3:81:5a:1b:
                    25:fb:e1:55:6b:43:c6:3e:16:b5:de:dc:4e:98:f2:
                    1c:a4:0c:7a:51:6d:7f:76:99:c6:70:90:53:33:6e:
                    09:80:bd:f3:0d:e4:ce:2c:25:e5:5f:34:48:ed:64:
                    e6:fd:25:f2:ba:15:1c:f0:e6:12:b2:ef:31:fd:0d:
                    bd:ee:d8:1b:ef:d4:8f:1d:c6:2a:73:0d:77:30:8f:
                    9e:dc:52:6d:85:c0:c9:6f:ec:ef:d1:fe:54:54:1d:
                    69:3b:51:95:2c:d3:f2:db:66:80:73:7d:0d:b9:ec:
                    4b:45:db:41:d3:d2:a1:90:35:e9:50:20:40:84:b2:
                    a8:6b:94:1a:9e:70:8f:14:2c:96:32:c4:d3:07:61:
                    10:89:82:b1:34:00:0d:33:ae:d3:a3:74:10:86:87:
                    4b:ab:bc:a3:16:46:3d:64:83:38:aa:66:02:07:a6:
                    87:1b:f0:28:7b:aa:79:a0:14:3f:5a:90:91:54:ed:
                    f5:48:07:bb:3e:38:36:31:59:17:d7:25:dd:67:b1:
                    a1:97:d3:33:41:c1:c0:40:c5:71
                Exponent: 65537 (0x10001)
        X509v3 extensions:
            X509v3 Authority Key Identifier: 
                keyid:B3:90:A7:D8:C9:AF:4E:CD:61:3C:9F:7C:AD:5D:7F:41:FD:69:30:EA

            X509v3 Subject Key Identifier: 
                A3:2A:D5:D0:07:FA:55:4D:59:5B:DB:95:C5:42:B2:44:FC:20:2C:A5
            X509v3 Key Usage: critical
                Digital Signature, Key Encipherment
            X509v3 Basic Constraints: critical
                CA:FALSE
            X509v3 Extended Key Usage: 
                TLS Web Server Authentication, TLS Web Client Authentication
            X509v3 Certificate Policies: 
                Policy: 1.3.6.1.4.1.6449.1.2.2.26
                  CPS: https://cps.usertrust.com
                Policy: 2.23.140.1.2.1

            X509v3 CRL Distribution Points: 

                Full Name:
                  URI:http://crl.usertrust.com/GandiStandardSSLCA2.crl

            Authority Information Access: 
                CA Issuers - URI:http://crt.usertrust.com/GandiStandardSSLCA2.crt
                OCSP - URI:http://ocsp.usertrust.com

            X509v3 Subject Alternative Name: 
                DNS:nm.debian.org, DNS:www.nm.debian.org
    Signature Algorithm: sha256WithRSAEncryption
         7d:0f:b6:24:01:f5:c1:89:76:68:2d:f0:e2:94:5c:6b:4e:00:
         8c:c7:66:69:9f:34:c0:5a:15:e7:91:ca:dc:d2:2b:cd:ea:0d:
         49:20:35:3b:62:73:7f:73:68:ec:39:36:ae:9c:a7:28:a0:23:
         42:6b:65:69:8f:d7:e8:f6:fa:f2:d5:f6:4e:d0:20:6f:87:b1:
         6a:15:b9:95:e9:c9:14:bb:e2:0b:3c:24:76:84:6f:a2:ee:83:
         47:a6:a4:94:4c:75:fc:fd:cf:f6:23:8f:a3:f0:3f:4d:9d:ae:
         c7:69:fe:44:10:b5:bf:60:ff:10:34:20:68:44:7c:d0:70:8d:
         e1:99:9a:f1:99:47:5f:60:b6:50:b9:15:92:3b:f8:ed:a9:15:
         53:58:cb:02:83:b7:99:08:e3:9b:7e:53:e2:7b:86:79:c3:68:
         58:38:61:3f:61:f0:51:29:23:09:cb:b3:3e:d7:c0:1e:04:33:
         38:03:e0:79:54:26:f2:3e:fa:a1:f3:01:15:55:75:4d:9a:8f:
         c2:76:42:6d:db:46:b3:1c:df:ee:12:26:8c:ff:23:a0:aa:66:
         85:20:05:51:29:e3:6d:b5:53:3a:3a:c3:21:da:6a:a4:4c:c9:
         09:e6:8c:38:98:2f:ee:f5:89:04:21:ee:c4:82:02:a4:d5:18:
         bb:ac:de:58
-----BEGIN CERTIFICATE-----
MIIFdjCCBF6gAwIBAgIQbmbzv/qBUfot1xmTtZhusDANBgkqhkiG9w0BAQsFADBf
MQswCQYDVQQGEwJGUjEOMAwGA1UECBMFUGFyaXMxDjAMBgNVBAcTBVBhcmlzMQ4w
DAYDVQQKEwVHYW5kaTEgMB4GA1UEAxMXR2FuZGkgU3RhbmRhcmQgU1NMIENBIDIw
HhcNMTUxMjExMDAwMDAwWhcNMTcwMTIwMjM1OTU5WjBYMSEwHwYDVQQLExhEb21h
aW4gQ29udHJvbCBWYWxpZGF0ZWQxGzAZBgNVBAsTEkdhbmRpIFN0YW5kYXJkIFNT
TDEWMBQGA1UEAxMNbm0uZGViaWFuLm9yZzCCAaIwDQYJKoZIhvcNAQEBBQADggGP
ADCCAYoCggGBAKyvmtOF49PWntRB0+5G2AuUc0F6Q4INe+3x2VFC3eORwigl0OFs
7ZGVCjakCfKbxg0Uw8X3cjAeT0yXezGBoV2AJHYgK4F51NBRlRD0JKgc2Qh2Hp6m
21HCxGYnRWR+KOCL0uCWfAjaR8J/2Ul/MzmAyAzATtNo7H9ECqIVkoBrPNo4wOAa
hrh7eoaEQ1Vo+jKvYAoBCdQHR/MMkIX0lXJCXH2nxD8GokSA0NEkCrjDgVobJfvh
VWtDxj4Wtd7cTpjyHKQMelFtf3aZxnCQUzNuCYC98w3kziwl5V80SO1k5v0l8roV
HPDmErLvMf0Nve7YG+/Ujx3GKnMNdzCPntxSbYXAyW/s79H+VFQdaTtRlSzT8ttm
gHN9DbnsS0XbQdPSoZA16VAgQISyqGuUGp5wjxQsljLE0wdhEImCsTQADTOu06N0
EIaHS6u8oxZGPWSDOKpmAgemhxvwKHuqeaAUP1qQkVTt9UgHuz44NjFZF9cl3Wex
oZfTM0HBwEDFcQIDAQABo4IBszCCAa8wHwYDVR0jBBgwFoAUs5Cn2MmvTs1hPJ98
rV1/Qf1pMOowHQYDVR0OBBYEFKMq1dAH+lVNWVvblcVCskT8ICylMA4GA1UdDwEB
/wQEAwIFoDAMBgNVHRMBAf8EAjAAMB0GA1UdJQQWMBQGCCsGAQUFBwMBBggrBgEF
BQcDAjBLBgNVHSAERDBCMDYGCysGAQQBsjEBAgIaMCcwJQYIKwYBBQUHAgEWGWh0
dHBzOi8vY3BzLnVzZXJ0cnVzdC5jb20wCAYGZ4EMAQIBMEEGA1UdHwQ6MDgwNqA0
oDKGMGh0dHA6Ly9jcmwudXNlcnRydXN0LmNvbS9HYW5kaVN0YW5kYXJkU1NMQ0Ey
LmNybDBzBggrBgEFBQcBAQRnMGUwPAYIKwYBBQUHMAKGMGh0dHA6Ly9jcnQudXNl
cnRydXN0LmNvbS9HYW5kaVN0YW5kYXJkU1NMQ0EyLmNydDAlBggrBgEFBQcwAYYZ
aHR0cDovL29jc3AudXNlcnRydXN0LmNvbTArBgNVHREEJDAigg1ubS5kZWJpYW4u
b3JnghF3d3cubm0uZGViaWFuLm9yZzANBgkqhkiG9w0BAQsFAAOCAQEAfQ+2JAH1
wYl2aC3w4pRca04AjMdmaZ80wFoV55HK3NIrzeoNSSA1O2Jzf3No7Dk2rpynKKAj
QmtlaY/X6Pb68tX2TtAgb4exahW5lenJFLviCzwkdoRvou6DR6aklEx1/P3P9iOP
o/A/TZ2ux2n+RBC1v2D/EDQgaER80HCN4Zma8ZlHX2C2ULkVkjv47akVU1jLAoO3
mQjjm35T4nuGecNoWDhhP2HwUSkjCcuzPtfAHgQzOAPgeVQm8j76ofMBFVV1TZqP
wnZCbdtGsxzf7hImjP8joKpmhSAFUSnjbbVTOjrDIdpqpEzJCeaMOJgv7vWJBCHu
xIICpNUYu6zeWA==
-----END CERTIFICATE-----
