Certificate:
    Data:
        Version: 3 (0x2)
        Serial Number:
            89:0f:32:6e:3a:6e:39:fd:83:37:bb:4e:e1:54:0b:91
    Signature Algorithm: sha1WithRSAEncryption
        Issuer: C=FR, O=GANDI SAS, CN=Gandi Standard SSL CA
        Validity
            Not Before: Dec 31 00:00:00 2013 GMT
            Not After : Dec 31 23:59:59 2014 GMT
        Subject: OU=Domain Control Validated, OU=Gandi Standard SSL, CN=nm.debian.org
        Subject Public Key Info:
            Public Key Algorithm: rsaEncryption
                Public-Key: (3072 bit)
                Modulus:
                    00:ac:af:9a:d3:85:e3:d3:d6:9e:d4:41:d3:ee:46:
                    d8:0b:94:73:41:7a:43:82:0d:7b:ed:f1:d9:51:42:
                    dd:e3:91:c2:28:25:d0:e1:6c:ed:91:95:0a:36:a4:
                    09:f2:9b:c6:0d:14:c3:c5:f7:72:30:1e:4f:4c:97:
                    7b:31:81:a1:5d:80:24:76:20:2b:81:79:d4:d0:51:
                    95:10:f4:24:a8:1c:d9:08:76:1e:9e:a6:db:51:c2:
                    c4:66:27:45:64:7e:28:e0:8b:d2:e0:96:7c:08:da:
                    47:c2:7f:d9:49:7f:33:39:80:c8:0c:c0:4e:d3:68:
                    ec:7f:44:0a:a2:15:92:80:6b:3c:da:38:c0:e0:1a:
                    86:b8:7b:7a:86:84:43:55:68:fa:32:af:60:0a:01:
                    09:d4:07:47:f3:0c:90:85:f4:95:72:42:5c:7d:a7:
                    c4:3f:06:a2:44:80:d0:d1:24:0a:b8:c3:81:5a:1b:
                    25:fb:e1:55:6b:43:c6:3e:16:b5:de:dc:4e:98:f2:
                    1c:a4:0c:7a:51:6d:7f:76:99:c6:70:90:53:33:6e:
                    09:80:bd:f3:0d:e4:ce:2c:25:e5:5f:34:48:ed:64:
                    e6:fd:25:f2:ba:15:1c:f0:e6:12:b2:ef:31:fd:0d:
                    bd:ee:d8:1b:ef:d4:8f:1d:c6:2a:73:0d:77:30:8f:
                    9e:dc:52:6d:85:c0:c9:6f:ec:ef:d1:fe:54:54:1d:
                    69:3b:51:95:2c:d3:f2:db:66:80:73:7d:0d:b9:ec:
                    4b:45:db:41:d3:d2:a1:90:35:e9:50:20:40:84:b2:
                    a8:6b:94:1a:9e:70:8f:14:2c:96:32:c4:d3:07:61:
                    10:89:82:b1:34:00:0d:33:ae:d3:a3:74:10:86:87:
                    4b:ab:bc:a3:16:46:3d:64:83:38:aa:66:02:07:a6:
                    87:1b:f0:28:7b:aa:79:a0:14:3f:5a:90:91:54:ed:
                    f5:48:07:bb:3e:38:36:31:59:17:d7:25:dd:67:b1:
                    a1:97:d3:33:41:c1:c0:40:c5:71
                Exponent: 65537 (0x10001)
        X509v3 extensions:
            X509v3 Authority Key Identifier: 
                keyid:B6:A8:FF:A2:A8:2F:D0:A6:CD:4B:B1:68:F3:E7:50:10:31:A7:79:21

            X509v3 Subject Key Identifier: 
                A3:2A:D5:D0:07:FA:55:4D:59:5B:DB:95:C5:42:B2:44:FC:20:2C:A5
            X509v3 Key Usage: critical
                Digital Signature, Key Encipherment
            X509v3 Basic Constraints: critical
                CA:FALSE
            X509v3 Extended Key Usage: 
                TLS Web Server Authentication, TLS Web Client Authentication
            X509v3 Certificate Policies: 
                Policy: 1.3.6.1.4.1.6449.1.2.2.26
                  CPS: http://www.gandi.net/contracts/fr/ssl/cps/pdf/
                Policy: 2.23.140.1.2.1

            X509v3 CRL Distribution Points: 

                Full Name:
                  URI:http://crl.gandi.net/GandiStandardSSLCA.crl

            Authority Information Access: 
                CA Issuers - URI:http://crt.gandi.net/GandiStandardSSLCA.crt
                OCSP - URI:http://ocsp.gandi.net

            X509v3 Subject Alternative Name: 
                DNS:nm.debian.org, DNS:www.nm.debian.org
    Signature Algorithm: sha1WithRSAEncryption
         b5:e6:83:24:d8:b7:59:7d:be:7f:5d:a2:de:a1:da:9a:9e:50:
         e4:a5:8d:87:36:b8:0c:44:5f:0e:1d:d0:ad:00:e5:df:a8:2b:
         51:d6:dd:69:8b:8a:45:86:16:6b:57:c4:9e:91:44:0c:84:48:
         71:b2:fb:fc:a7:ab:23:08:6e:4a:1c:30:88:56:5a:83:60:af:
         71:97:a9:97:78:82:4f:d0:14:8f:39:6a:24:f2:81:68:e4:6d:
         f1:14:65:0e:39:05:25:88:40:10:b2:d5:88:fd:65:d7:50:98:
         17:0d:60:3b:c5:c1:ad:3b:ac:95:ca:06:28:dd:95:22:2e:67:
         8d:38:52:79:b5:51:60:8d:db:11:fc:86:ba:70:b3:a7:5f:ae:
         ff:00:c9:80:52:ca:7e:89:f5:71:c0:b3:c4:4e:fc:bf:92:80:
         e1:51:d4:7c:9c:e1:2e:71:80:c9:27:13:45:e3:17:b8:22:3e:
         2a:8e:c8:88:ea:3d:02:89:56:5e:8e:7c:04:a2:53:9d:48:79:
         46:78:ea:14:8d:b2:0e:fc:70:1e:a7:29:49:d7:82:a6:69:6a:
         53:af:1f:43:8d:1b:bc:1d:7c:aa:13:16:39:6e:43:0d:ab:ac:
         9b:c4:f6:62:a3:f6:28:15:a4:c6:01:dc:bc:25:b5:b3:c7:ff:
         49:94:dc:0d
-----BEGIN CERTIFICATE-----
MIIFYDCCBEigAwIBAgIRAIkPMm46bjn9gze7TuFUC5EwDQYJKoZIhvcNAQEFBQAw
QTELMAkGA1UEBhMCRlIxEjAQBgNVBAoTCUdBTkRJIFNBUzEeMBwGA1UEAxMVR2Fu
ZGkgU3RhbmRhcmQgU1NMIENBMB4XDTEzMTIzMTAwMDAwMFoXDTE0MTIzMTIzNTk1
OVowWDEhMB8GA1UECxMYRG9tYWluIENvbnRyb2wgVmFsaWRhdGVkMRswGQYDVQQL
ExJHYW5kaSBTdGFuZGFyZCBTU0wxFjAUBgNVBAMTDW5tLmRlYmlhbi5vcmcwggGi
MA0GCSqGSIb3DQEBAQUAA4IBjwAwggGKAoIBgQCsr5rThePT1p7UQdPuRtgLlHNB
ekOCDXvt8dlRQt3jkcIoJdDhbO2RlQo2pAnym8YNFMPF93IwHk9Ml3sxgaFdgCR2
ICuBedTQUZUQ9CSoHNkIdh6epttRwsRmJ0Vkfijgi9LglnwI2kfCf9lJfzM5gMgM
wE7TaOx/RAqiFZKAazzaOMDgGoa4e3qGhENVaPoyr2AKAQnUB0fzDJCF9JVyQlx9
p8Q/BqJEgNDRJAq4w4FaGyX74VVrQ8Y+FrXe3E6Y8hykDHpRbX92mcZwkFMzbgmA
vfMN5M4sJeVfNEjtZOb9JfK6FRzw5hKy7zH9Db3u2Bvv1I8dxipzDXcwj57cUm2F
wMlv7O/R/lRUHWk7UZUs0/LbZoBzfQ257EtF20HT0qGQNelQIECEsqhrlBqecI8U
LJYyxNMHYRCJgrE0AA0zrtOjdBCGh0urvKMWRj1kgziqZgIHpocb8Ch7qnmgFD9a
kJFU7fVIB7s+ODYxWRfXJd1nsaGX0zNBwcBAxXECAwEAAaOCAbowggG2MB8GA1Ud
IwQYMBaAFLao/6KoL9CmzUuxaPPnUBAxp3khMB0GA1UdDgQWBBSjKtXQB/pVTVlb
25XFQrJE/CAspTAOBgNVHQ8BAf8EBAMCBaAwDAYDVR0TAQH/BAIwADAdBgNVHSUE
FjAUBggrBgEFBQcDAQYIKwYBBQUHAwIwYAYDVR0gBFkwVzBLBgsrBgEEAbIxAQIC
GjA8MDoGCCsGAQUFBwIBFi5odHRwOi8vd3d3LmdhbmRpLm5ldC9jb250cmFjdHMv
ZnIvc3NsL2Nwcy9wZGYvMAgGBmeBDAECATA8BgNVHR8ENTAzMDGgL6AthitodHRw
Oi8vY3JsLmdhbmRpLm5ldC9HYW5kaVN0YW5kYXJkU1NMQ0EuY3JsMGoGCCsGAQUF
BwEBBF4wXDA3BggrBgEFBQcwAoYraHR0cDovL2NydC5nYW5kaS5uZXQvR2FuZGlT
dGFuZGFyZFNTTENBLmNydDAhBggrBgEFBQcwAYYVaHR0cDovL29jc3AuZ2FuZGku
bmV0MCsGA1UdEQQkMCKCDW5tLmRlYmlhbi5vcmeCEXd3dy5ubS5kZWJpYW4ub3Jn
MA0GCSqGSIb3DQEBBQUAA4IBAQC15oMk2LdZfb5/XaLeodqanlDkpY2HNrgMRF8O
HdCtAOXfqCtR1t1pi4pFhhZrV8SekUQMhEhxsvv8p6sjCG5KHDCIVlqDYK9xl6mX
eIJP0BSPOWok8oFo5G3xFGUOOQUliEAQstWI/WXXUJgXDWA7xcGtO6yVygYo3ZUi
LmeNOFJ5tVFgjdsR/Ia6cLOnX67/AMmAUsp+ifVxwLPETvy/koDhUdR8nOEucYDJ
JxNF4xe4Ij4qjsiI6j0CiVZejnwEolOdSHlGeOoUjbIO/HAepylJ14KmaWpTrx9D
jRu8HXyqExY5bkMNq6ybxPZio/YoFaTGAdy8JbWzx/9JlNwN
-----END CERTIFICATE-----
