Certificate:
    Data:
        Version: 3 (0x2)
        Serial Number: 123 (0x7b)
    Signature Algorithm: sha1WithRSAEncryption
        Issuer: O=Debian, CN=ca.debian.org/emailAddress=debian-admin@debian.org
        Validity
            Not Before: Jul  2 18:42:39 2015 GMT
            Not After : Jul  1 18:42:39 2016 GMT
        Subject: O=Debian, CN=openstack.bm.debian.org/emailAddress=debian-admin@debian.org
        Subject Public Key Info:
            Public Key Algorithm: rsaEncryption
                Public-Key: (3072 bit)
                Modulus:
                    00:b6:fc:f3:2d:d2:c7:f8:11:de:67:e2:b7:56:8a:
                    5c:6c:6c:15:9a:81:e5:ff:56:81:61:61:7a:07:0c:
                    09:e2:00:ac:60:81:c8:da:83:a4:6c:f1:ff:d0:09:
                    48:0d:fd:84:c5:1d:4e:9b:f1:08:b6:b5:3a:16:30:
                    d1:f5:d4:8d:58:52:d2:a8:d7:6a:a8:6f:2a:7f:74:
                    56:37:33:b6:27:53:a4:0d:cf:16:bc:d7:60:ef:d1:
                    97:c7:5a:83:7b:3c:71:c3:fd:27:3f:7a:92:bb:44:
                    77:21:8f:42:75:e1:c7:12:0e:39:ea:4e:48:e8:8e:
                    41:26:ef:80:07:d1:bd:2b:ba:81:41:55:8b:05:84:
                    4e:c6:47:76:33:8e:e0:b0:89:eb:78:5f:7d:d8:59:
                    bc:e0:dc:27:75:12:27:53:79:e6:04:f4:bd:9d:79:
                    83:73:59:e1:21:50:e9:35:1d:cf:bd:0f:8d:bc:69:
                    f6:72:99:b4:e2:e8:a6:73:2f:39:63:94:4e:a3:8c:
                    3b:ad:df:ac:ef:0b:b4:03:d8:0a:6c:52:77:35:a9:
                    78:e5:cc:96:61:00:52:67:62:bb:6d:c9:5b:d1:ea:
                    69:aa:24:c5:14:21:72:9f:4a:4c:ae:84:a1:60:fe:
                    93:fe:aa:a7:a8:35:72:f1:11:22:d2:fa:3f:bf:0c:
                    0e:6c:08:a5:fa:16:fa:af:07:a1:cd:6d:4c:ee:09:
                    8a:34:b7:ab:3b:1d:c2:7c:41:c0:ba:f7:aa:54:74:
                    aa:1d:63:bd:69:ef:dd:be:88:3a:b3:86:f9:11:65:
                    b3:db:2d:05:6c:18:9f:e7:87:7a:f9:38:3f:f9:58:
                    cd:63:25:5b:1f:42:c0:c6:de:3c:df:34:78:78:cd:
                    ae:7f:f4:4e:08:74:61:da:a1:f9:ff:f9:82:e9:1b:
                    7a:f3:68:c2:46:f0:9a:8f:58:f8:85:be:cb:83:85:
                    9e:db:37:57:e1:e0:39:dd:2a:e2:79:38:a4:7d:b4:
                    d2:d9:55:6c:48:4d:87:6c:be:ab
                Exponent: 65537 (0x10001)
        X509v3 extensions:
            X509v3 Basic Constraints: 
                CA:FALSE
            X509v3 Subject Key Identifier: 
                62:0E:D1:41:4E:19:32:80:D0:52:5F:47:AF:FA:62:5F:02:CF:9A:BC
            X509v3 Authority Key Identifier: 
                keyid:A7:CF:4B:FA:5F:12:C6:23:74:2E:9E:A3:95:90:75:8C:CC:26:76:96
                DirName:/C=US/ST=Indiana/L=Indianapolis/O=Software in the Public Interest/OU=hostmaster/CN=Certificate Authority/emailAddress=hostmaster@spi-inc.org
                serial:03

    Signature Algorithm: sha1WithRSAEncryption
         33:90:9b:cc:18:f9:09:e2:6c:0c:39:8f:b6:ef:fb:3c:31:da:
         ec:56:46:75:9b:70:ec:6d:44:a8:c6:9f:91:e6:47:ef:8e:37:
         6b:e6:d3:f8:b3:63:fd:6f:5a:5b:ae:f9:98:23:02:f8:fc:06:
         2f:cb:e3:49:f3:e1:5b:bb:21:d4:c8:06:42:77:18:f6:4f:0c:
         d8:fe:1c:93:e0:bf:27:48:66:f8:d8:78:a5:f6:3e:38:62:5d:
         f5:b1:94:76:35:bf:27:dc:6a:42:37:6c:e8:d0:ff:02:b5:a3:
         58:89:9a:bd:c8:04:fc:03:9d:6c:ee:19:f9:35:a1:db:f8:34:
         86:dd:3f:ae:d0:62:31:84:38:24:e9:f6:c9:a3:83:3d:43:26:
         b6:75:f8:8b:c2:fe:25:a1:00:e7:b6:6f:c1:14:8c:27:81:e0:
         82:bf:2e:ae:df:65:38:81:3b:fd:4a:e6:67:8b:0a:da:0b:6f:
         06:66:ba:a0:81:18:26:2a:e7:ec:b9:38:53:e3:f1:16:29:d3:
         93:c5:26:09:f2:dc:19:db:e7:41:2d:f7:06:df:38:2e:d2:d2:
         dd:75:77:41:32:88:0c:c2:ed:39:98:2f:e8:75:a4:87:c1:ee:
         01:b5:a7:65:c9:08:a0:f8:fc:26:d4:90:cc:8e:97:21:ef:89:
         d1:00:1c:f5:cb:6b:47:7a:a8:46:90:fa:04:bc:67:a3:d3:72:
         4d:86:98:ee:d7:18:e1:05:6a:93:7e:be:72:9c:18:04:01:10:
         09:0a:e4:6b:e3:78:74:fe:41:d8:ae:e3:1a:b2:31:45:38:58:
         e9:8b:6f:84:63:d3:53:ca:a2:98:50:0c:88:b5:8a:fd:95:b5:
         4f:ab:2c:d0:a8:67:86:f6:8c:a0:20:03:39:2e:f8:82:4b:7d:
         64:d0:93:17:70:f0:2b:fd:5b:01:58:dc:a4:f7:b2:db:9c:2b:
         9d:de:00:0a:8a:33:b2:ab:de:cc:88:e7:33:d9:10:56:ba:0d:
         68:3b:49:71:88:87:cf:6e:75:7c:18:5c:77:4b:4e:d5:90:e7:
         ce:ef:a2:55:c9:ff:64:2a:15:a3:6f:3c:a4:3d:7d:22:80:ec:
         d2:44:4a:b3:b3:0a:1c:5c:17:ca:25:03:f8:4b:be:19:42:41:
         6c:09:17:b6:dc:0e:8a:47:6d:81:c4:1e:18:65:64:19:f9:d4:
         93:50:cd:54:4d:61:38:b1:e4:13:33:85:39:de:ac:31:c9:44:
         7e:79:cb:98:f2:c9:50:c2:dd:13:83:37:1e:7b:2e:d5:b2:9d:
         ef:b4:6a:28:cc:1d:9c:14:60:b6:09:a0:38:fe:e9:bb:da:d0:
         17:1f:37:5e:0d:39:81:be
-----BEGIN CERTIFICATE-----
MIIFwzCCA6ugAwIBAgIBezANBgkqhkiG9w0BAQUFADBRMQ8wDQYDVQQKEwZEZWJp
YW4xFjAUBgNVBAMTDWNhLmRlYmlhbi5vcmcxJjAkBgkqhkiG9w0BCQEWF2RlYmlh
bi1hZG1pbkBkZWJpYW4ub3JnMB4XDTE1MDcwMjE4NDIzOVoXDTE2MDcwMTE4NDIz
OVowWzEPMA0GA1UEChMGRGViaWFuMSAwHgYDVQQDExdvcGVuc3RhY2suYm0uZGVi
aWFuLm9yZzEmMCQGCSqGSIb3DQEJARYXZGViaWFuLWFkbWluQGRlYmlhbi5vcmcw
ggGiMA0GCSqGSIb3DQEBAQUAA4IBjwAwggGKAoIBgQC2/PMt0sf4Ed5n4rdWilxs
bBWageX/VoFhYXoHDAniAKxggcjag6Rs8f/QCUgN/YTFHU6b8Qi2tToWMNH11I1Y
UtKo12qobyp/dFY3M7YnU6QNzxa812Dv0ZfHWoN7PHHD/Sc/epK7RHchj0J14ccS
DjnqTkjojkEm74AH0b0ruoFBVYsFhE7GR3YzjuCwiet4X33YWbzg3Cd1EidTeeYE
9L2deYNzWeEhUOk1Hc+9D428afZymbTi6KZzLzljlE6jjDut36zvC7QD2ApsUnc1
qXjlzJZhAFJnYrttyVvR6mmqJMUUIXKfSkyuhKFg/pP+qqeoNXLxESLS+j+/DA5s
CKX6FvqvB6HNbUzuCYo0t6s7HcJ8QcC696pUdKodY71p792+iDqzhvkRZbPbLQVs
GJ/nh3r5OD/5WM1jJVsfQsDG3jzfNHh4za5/9E4IdGHaofn/+YLpG3rzaMJG8JqP
WPiFvsuDhZ7bN1fh4DndKuJ5OKR9tNLZVWxITYdsvqsCAwEAAaOCARowggEWMAkG
A1UdEwQCMAAwHQYDVR0OBBYEFGIO0UFOGTKA0FJfR6/6Yl8Cz5q8MIHpBgNVHSME
geEwgd6AFKfPS/pfEsYjdC6eo5WQdYzMJnaWoYHCpIG/MIG8MQswCQYDVQQGEwJV
UzEQMA4GA1UECBMHSW5kaWFuYTEVMBMGA1UEBxMMSW5kaWFuYXBvbGlzMSgwJgYD
VQQKEx9Tb2Z0d2FyZSBpbiB0aGUgUHVibGljIEludGVyZXN0MRMwEQYDVQQLEwpo
b3N0bWFzdGVyMR4wHAYDVQQDExVDZXJ0aWZpY2F0ZSBBdXRob3JpdHkxJTAjBgkq
hkiG9w0BCQEWFmhvc3RtYXN0ZXJAc3BpLWluYy5vcmeCAQMwDQYJKoZIhvcNAQEF
BQADggIBADOQm8wY+QnibAw5j7bv+zwx2uxWRnWbcOxtRKjGn5HmR++ON2vm0/iz
Y/1vWluu+ZgjAvj8Bi/L40nz4Vu7IdTIBkJ3GPZPDNj+HJPgvydIZvjYeKX2Pjhi
XfWxlHY1vyfcakI3bOjQ/wK1o1iJmr3IBPwDnWzuGfk1odv4NIbdP67QYjGEOCTp
9smjgz1DJrZ1+IvC/iWhAOe2b8EUjCeB4IK/Lq7fZTiBO/1K5meLCtoLbwZmuqCB
GCYq5+y5OFPj8RYp05PFJgny3Bnb50Et9wbfOC7S0t11d0EyiAzC7TmYL+h1pIfB
7gG1p2XJCKD4/CbUkMyOlyHvidEAHPXLa0d6qEaQ+gS8Z6PTck2GmO7XGOEFapN+
vnKcGAQBEAkK5GvjeHT+Qdiu4xqyMUU4WOmLb4Rj01PKophQDIi1iv2VtU+rLNCo
Z4b2jKAgAzku+IJLfWTQkxdw8Cv9WwFY3KT3stucK53eAAqKM7Kr3syI5zPZEFa6
DWg7SXGIh89udXwYXHdLTtWQ587volXJ/2QqFaNvPKQ9fSKA7NJESrOzChxcF8ol
A/hLvhlCQWwJF7bcDopHbYHEHhhlZBn51JNQzVRNYTix5BMzhTnerDHJRH55y5jy
yVDC3RODNx57LtWyne+0aijMHZwUYLYJoDj+6bva0BcfN14NOYG+
-----END CERTIFICATE-----
