Certificate:
    Data:
        Version: 3 (0x2)
        Serial Number:
            9a:59:d4:db:94:4c:0c:e6:25:3a:2a:e4:a3:a6:9a:a0
    Signature Algorithm: sha1WithRSAEncryption
        Issuer: C=FR, O=GANDI SAS, CN=Gandi Standard SSL CA
        Validity
            Not Before: Jul  2 00:00:00 2014 GMT
            Not After : Jul  2 23:59:59 2015 GMT
        Subject: OU=Domain Control Validated, OU=Gandi Standard SSL, CN=packages.qa.debian.org
        Subject Public Key Info:
            Public Key Algorithm: rsaEncryption
                Public-Key: (3072 bit)
                Modulus:
                    00:c5:5d:52:0c:04:8a:da:98:d3:75:d6:e7:b4:f6:
                    7c:5c:b8:cc:10:3a:24:db:97:df:1b:fe:8a:ad:80:
                    60:7c:a0:ab:60:ca:9b:0b:8e:5e:f8:8a:45:89:eb:
                    d8:e7:f1:0f:37:69:bc:7d:28:98:0a:96:06:e8:be:
                    76:20:bc:ea:0c:17:43:d2:24:2f:76:12:91:39:45:
                    87:67:94:d8:44:54:ff:aa:93:26:e6:40:8c:53:7a:
                    0a:30:9e:aa:c2:41:de:b9:24:11:c2:1b:92:df:ef:
                    d0:c6:33:41:8f:09:42:d6:2b:09:ed:59:8d:b5:d3:
                    25:f4:4a:40:64:d4:3f:cb:ea:e4:cc:0e:07:fc:a3:
                    3c:96:40:7c:2c:78:8b:57:2d:db:ca:61:64:19:c8:
                    7d:84:a1:be:09:ed:74:ca:4c:92:aa:44:4f:83:15:
                    af:3a:c6:68:f5:ed:44:d8:57:65:62:9d:e4:dd:43:
                    69:9f:60:0f:11:7d:eb:3d:41:c4:9d:c7:0c:57:c1:
                    54:19:fa:77:fb:a7:50:31:55:a5:3a:0e:3b:3d:4e:
                    e6:1b:c6:63:52:fc:bd:9c:a0:64:33:a7:95:1d:3b:
                    91:c0:18:b6:11:aa:1c:82:82:7f:30:c6:a4:3f:e4:
                    9d:a0:f6:6a:45:6c:87:99:d5:54:26:e9:31:71:2d:
                    39:75:53:3e:f1:83:f6:20:3a:cc:e7:7a:a6:da:2f:
                    9e:7b:8e:ba:b9:51:8f:e3:e4:73:1a:e2:06:e6:e1:
                    b4:35:dc:93:75:70:58:99:d7:ba:15:b2:a5:0f:83:
                    0c:76:f0:ef:b7:12:f9:0e:a9:bf:bf:7e:19:95:1a:
                    18:62:97:50:77:c4:b2:3e:31:29:a9:c0:67:95:a8:
                    29:f7:87:a4:20:f7:34:c3:0d:d9:c3:e5:56:6d:d2:
                    0d:cc:5b:62:8e:e2:ec:80:76:20:af:a0:b5:3d:6a:
                    08:62:21:14:2a:06:d5:9d:3c:95:90:1d:31:83:8e:
                    b4:21:c5:17:eb:56:58:8b:3d:83
                Exponent: 65537 (0x10001)
        X509v3 extensions:
            X509v3 Authority Key Identifier: 
                keyid:B6:A8:FF:A2:A8:2F:D0:A6:CD:4B:B1:68:F3:E7:50:10:31:A7:79:21

            X509v3 Subject Key Identifier: 
                82:3E:DF:28:FD:38:4F:4B:08:58:31:28:9C:17:DF:01:FA:99:B8:D4
            X509v3 Key Usage: critical
                Digital Signature, Key Encipherment
            X509v3 Basic Constraints: critical
                CA:FALSE
            X509v3 Extended Key Usage: 
                TLS Web Server Authentication, TLS Web Client Authentication
            X509v3 Certificate Policies: 
                Policy: 1.3.6.1.4.1.6449.1.2.2.26
                  CPS: http://www.gandi.net/contracts/fr/ssl/cps/pdf/
                Policy: 2.23.140.1.2.1

            X509v3 CRL Distribution Points: 

                Full Name:
                  URI:http://crl.gandi.net/GandiStandardSSLCA.crl

            Authority Information Access: 
                CA Issuers - URI:http://crt.gandi.net/GandiStandardSSLCA.crt
                OCSP - URI:http://ocsp.gandi.net

            X509v3 Subject Alternative Name: 
                DNS:packages.qa.debian.org, DNS:www.packages.qa.debian.org
    Signature Algorithm: sha1WithRSAEncryption
         29:21:ec:a3:34:68:6d:a4:22:07:a7:c8:ef:d2:cf:4d:25:6f:
         1a:b3:c1:1b:37:1f:ef:41:48:b0:6e:c2:01:f8:f6:b0:eb:19:
         fb:c0:f8:a9:45:61:f0:45:b4:db:8c:d6:80:4b:6d:cb:17:10:
         bb:e6:ff:47:d5:02:95:cf:95:f5:ea:91:9c:e9:b5:d4:93:e3:
         53:0c:d8:1b:54:cb:36:a7:60:3b:e9:78:8e:5e:29:68:f8:be:
         fd:04:28:93:87:b5:f5:37:69:60:2b:97:28:1a:83:6f:1a:cc:
         2e:12:34:7b:12:99:73:81:53:a9:1d:0d:01:6e:a3:a4:cb:d0:
         ee:d6:88:a3:32:c3:4f:b9:c3:45:71:db:b4:90:55:af:d2:4c:
         9e:c3:a5:28:38:aa:3d:8a:86:07:80:e0:8d:81:a1:c4:cf:05:
         3b:53:f9:7c:7a:b1:b5:f1:65:1f:89:86:6a:05:e1:04:1e:53:
         93:92:67:c5:8a:af:69:46:f8:03:22:55:dd:53:ad:f6:d2:41:
         e0:23:e0:23:be:55:5c:21:9a:8b:16:93:a9:63:f1:92:6b:46:
         3e:5c:05:04:fe:f0:55:5c:55:77:cc:7a:7e:ae:23:d2:36:d3:
         62:d0:4b:5f:cb:0b:a7:c2:46:56:2a:03:a9:4f:02:ce:94:30:
         43:53:58:3f
-----BEGIN CERTIFICATE-----
MIIFezCCBGOgAwIBAgIRAJpZ1NuUTAzmJToq5KOmmqAwDQYJKoZIhvcNAQEFBQAw
QTELMAkGA1UEBhMCRlIxEjAQBgNVBAoTCUdBTkRJIFNBUzEeMBwGA1UEAxMVR2Fu
ZGkgU3RhbmRhcmQgU1NMIENBMB4XDTE0MDcwMjAwMDAwMFoXDTE1MDcwMjIzNTk1
OVowYTEhMB8GA1UECxMYRG9tYWluIENvbnRyb2wgVmFsaWRhdGVkMRswGQYDVQQL
ExJHYW5kaSBTdGFuZGFyZCBTU0wxHzAdBgNVBAMTFnBhY2thZ2VzLnFhLmRlYmlh
bi5vcmcwggGiMA0GCSqGSIb3DQEBAQUAA4IBjwAwggGKAoIBgQDFXVIMBIramNN1
1ue09nxcuMwQOiTbl98b/oqtgGB8oKtgypsLjl74ikWJ69jn8Q83abx9KJgKlgbo
vnYgvOoMF0PSJC92EpE5RYdnlNhEVP+qkybmQIxTegownqrCQd65JBHCG5Lf79DG
M0GPCULWKwntWY210yX0SkBk1D/L6uTMDgf8ozyWQHwseItXLdvKYWQZyH2Eob4J
7XTKTJKqRE+DFa86xmj17UTYV2VineTdQ2mfYA8Rfes9QcSdxwxXwVQZ+nf7p1Ax
VaU6Djs9TuYbxmNS/L2coGQzp5UdO5HAGLYRqhyCgn8wxqQ/5J2g9mpFbIeZ1VQm
6TFxLTl1Uz7xg/YgOszneqbaL557jrq5UY/j5HMa4gbm4bQ13JN1cFiZ17oVsqUP
gwx28O+3EvkOqb+/fhmVGhhil1B3xLI+MSmpwGeVqCn3h6Qg9zTDDdnD5VZt0g3M
W2KO4uyAdiCvoLU9aghiIRQqBtWdPJWQHTGDjrQhxRfrVliLPYMCAwEAAaOCAcww
ggHIMB8GA1UdIwQYMBaAFLao/6KoL9CmzUuxaPPnUBAxp3khMB0GA1UdDgQWBBSC
Pt8o/ThPSwhYMSicF98B+pm41DAOBgNVHQ8BAf8EBAMCBaAwDAYDVR0TAQH/BAIw
ADAdBgNVHSUEFjAUBggrBgEFBQcDAQYIKwYBBQUHAwIwYAYDVR0gBFkwVzBLBgsr
BgEEAbIxAQICGjA8MDoGCCsGAQUFBwIBFi5odHRwOi8vd3d3LmdhbmRpLm5ldC9j
b250cmFjdHMvZnIvc3NsL2Nwcy9wZGYvMAgGBmeBDAECATA8BgNVHR8ENTAzMDGg
L6AthitodHRwOi8vY3JsLmdhbmRpLm5ldC9HYW5kaVN0YW5kYXJkU1NMQ0EuY3Js
MGoGCCsGAQUFBwEBBF4wXDA3BggrBgEFBQcwAoYraHR0cDovL2NydC5nYW5kaS5u
ZXQvR2FuZGlTdGFuZGFyZFNTTENBLmNydDAhBggrBgEFBQcwAYYVaHR0cDovL29j
c3AuZ2FuZGkubmV0MD0GA1UdEQQ2MDSCFnBhY2thZ2VzLnFhLmRlYmlhbi5vcmeC
Gnd3dy5wYWNrYWdlcy5xYS5kZWJpYW4ub3JnMA0GCSqGSIb3DQEBBQUAA4IBAQAp
IeyjNGhtpCIHp8jv0s9NJW8as8EbNx/vQUiwbsIB+Paw6xn7wPipRWHwRbTbjNaA
S23LFxC75v9H1QKVz5X16pGc6bXUk+NTDNgbVMs2p2A76XiOXilo+L79BCiTh7X1
N2lgK5coGoNvGswuEjR7EplzgVOpHQ0BbqOky9Du1oijMsNPucNFcdu0kFWv0kye
w6UoOKo9ioYHgOCNgaHEzwU7U/l8erG18WUfiYZqBeEEHlOTkmfFiq9pRvgDIlXd
U6320kHgI+AjvlVcIZqLFpOpY/GSa0Y+XAUE/vBVXFV3zHp+riPSNtNi0Etfywun
wkZWKgOpTwLOlDBDU1g/
-----END CERTIFICATE-----
