Certificate:
    Data:
        Version: 3 (0x2)
        Serial Number:
            d6:f4:0b:9a:d4:5f:ae:35:d3:c2:d1:c2:38:f6:79:61
    Signature Algorithm: sha256WithRSAEncryption
        Issuer: C=FR, ST=Paris, L=Paris, O=Gandi, CN=Gandi Standard SSL CA 2
        Validity
            Not Before: Jun 20 00:00:00 2015 GMT
            Not After : Jul  2 23:59:59 2016 GMT
        Subject: OU=Domain Control Validated, OU=Gandi Standard SSL, CN=packages.qa.debian.org
        Subject Public Key Info:
            Public Key Algorithm: rsaEncryption
                Public-Key: (3072 bit)
                Modulus:
                    00:c5:5d:52:0c:04:8a:da:98:d3:75:d6:e7:b4:f6:
                    7c:5c:b8:cc:10:3a:24:db:97:df:1b:fe:8a:ad:80:
                    60:7c:a0:ab:60:ca:9b:0b:8e:5e:f8:8a:45:89:eb:
                    d8:e7:f1:0f:37:69:bc:7d:28:98:0a:96:06:e8:be:
                    76:20:bc:ea:0c:17:43:d2:24:2f:76:12:91:39:45:
                    87:67:94:d8:44:54:ff:aa:93:26:e6:40:8c:53:7a:
                    0a:30:9e:aa:c2:41:de:b9:24:11:c2:1b:92:df:ef:
                    d0:c6:33:41:8f:09:42:d6:2b:09:ed:59:8d:b5:d3:
                    25:f4:4a:40:64:d4:3f:cb:ea:e4:cc:0e:07:fc:a3:
                    3c:96:40:7c:2c:78:8b:57:2d:db:ca:61:64:19:c8:
                    7d:84:a1:be:09:ed:74:ca:4c:92:aa:44:4f:83:15:
                    af:3a:c6:68:f5:ed:44:d8:57:65:62:9d:e4:dd:43:
                    69:9f:60:0f:11:7d:eb:3d:41:c4:9d:c7:0c:57:c1:
                    54:19:fa:77:fb:a7:50:31:55:a5:3a:0e:3b:3d:4e:
                    e6:1b:c6:63:52:fc:bd:9c:a0:64:33:a7:95:1d:3b:
                    91:c0:18:b6:11:aa:1c:82:82:7f:30:c6:a4:3f:e4:
                    9d:a0:f6:6a:45:6c:87:99:d5:54:26:e9:31:71:2d:
                    39:75:53:3e:f1:83:f6:20:3a:cc:e7:7a:a6:da:2f:
                    9e:7b:8e:ba:b9:51:8f:e3:e4:73:1a:e2:06:e6:e1:
                    b4:35:dc:93:75:70:58:99:d7:ba:15:b2:a5:0f:83:
                    0c:76:f0:ef:b7:12:f9:0e:a9:bf:bf:7e:19:95:1a:
                    18:62:97:50:77:c4:b2:3e:31:29:a9:c0:67:95:a8:
                    29:f7:87:a4:20:f7:34:c3:0d:d9:c3:e5:56:6d:d2:
                    0d:cc:5b:62:8e:e2:ec:80:76:20:af:a0:b5:3d:6a:
                    08:62:21:14:2a:06:d5:9d:3c:95:90:1d:31:83:8e:
                    b4:21:c5:17:eb:56:58:8b:3d:83
                Exponent: 65537 (0x10001)
        X509v3 extensions:
            X509v3 Authority Key Identifier: 
                keyid:B3:90:A7:D8:C9:AF:4E:CD:61:3C:9F:7C:AD:5D:7F:41:FD:69:30:EA

            X509v3 Subject Key Identifier: 
                82:3E:DF:28:FD:38:4F:4B:08:58:31:28:9C:17:DF:01:FA:99:B8:D4
            X509v3 Key Usage: critical
                Digital Signature, Key Encipherment
            X509v3 Basic Constraints: critical
                CA:FALSE
            X509v3 Extended Key Usage: 
                TLS Web Server Authentication, TLS Web Client Authentication
            X509v3 Certificate Policies: 
                Policy: 1.3.6.1.4.1.6449.1.2.2.26
                  CPS: https://cps.usertrust.com
                Policy: 2.23.140.1.2.1

            X509v3 CRL Distribution Points: 

                Full Name:
                  URI:http://crl.usertrust.com/GandiStandardSSLCA2.crl

            Authority Information Access: 
                CA Issuers - URI:http://crt.usertrust.com/GandiStandardSSLCA2.crt
                OCSP - URI:http://ocsp.usertrust.com

            X509v3 Subject Alternative Name: 
                DNS:packages.qa.debian.org, DNS:www.packages.qa.debian.org
    Signature Algorithm: sha256WithRSAEncryption
         7f:8f:da:55:d2:dc:63:a5:90:d6:60:e2:2e:22:ff:f7:eb:4e:
         be:5b:f1:4f:0c:8f:28:9d:cf:5e:be:25:5c:80:20:52:13:5e:
         6d:fd:a9:35:89:94:11:af:69:f4:49:5d:f1:ac:6c:23:1c:81:
         a4:8f:b2:75:11:c2:7d:e5:6b:2c:ed:04:be:4c:fb:c8:a5:f5:
         eb:f1:9d:b2:86:8b:55:ff:69:68:a1:5b:c1:92:28:3a:01:33:
         ef:5f:f8:a9:1d:71:6b:b1:d0:28:53:a9:48:86:fc:12:1b:80:
         92:5f:b7:10:e8:22:4c:2f:d0:4d:a3:42:d3:4f:32:96:df:5d:
         d5:79:db:7d:a6:36:96:9c:f6:f3:ef:49:6a:99:50:50:af:a8:
         16:52:bd:6a:52:82:c8:ab:43:fb:69:ac:4d:e9:73:68:5c:3c:
         75:3c:61:65:70:82:18:a6:29:67:db:02:2b:79:4b:f9:e4:d4:
         1b:c0:c7:33:f5:a6:57:5d:59:77:e1:d2:56:fe:bb:11:ee:f6:
         c2:13:7b:97:bb:be:6a:0a:04:e9:63:ef:51:7c:f1:8b:ed:dd:
         4b:6b:d3:3d:70:10:37:b8:59:ad:84:68:dc:97:f3:84:6a:52:
         b0:9b:31:7f:45:c3:14:a3:08:54:16:f1:45:83:e6:45:d0:81:
         c5:1a:06:17
-----BEGIN CERTIFICATE-----
MIIFkjCCBHqgAwIBAgIRANb0C5rUX64108LRwjj2eWEwDQYJKoZIhvcNAQELBQAw
XzELMAkGA1UEBhMCRlIxDjAMBgNVBAgTBVBhcmlzMQ4wDAYDVQQHEwVQYXJpczEO
MAwGA1UEChMFR2FuZGkxIDAeBgNVBAMTF0dhbmRpIFN0YW5kYXJkIFNTTCBDQSAy
MB4XDTE1MDYyMDAwMDAwMFoXDTE2MDcwMjIzNTk1OVowYTEhMB8GA1UECxMYRG9t
YWluIENvbnRyb2wgVmFsaWRhdGVkMRswGQYDVQQLExJHYW5kaSBTdGFuZGFyZCBT
U0wxHzAdBgNVBAMTFnBhY2thZ2VzLnFhLmRlYmlhbi5vcmcwggGiMA0GCSqGSIb3
DQEBAQUAA4IBjwAwggGKAoIBgQDFXVIMBIramNN11ue09nxcuMwQOiTbl98b/oqt
gGB8oKtgypsLjl74ikWJ69jn8Q83abx9KJgKlgbovnYgvOoMF0PSJC92EpE5RYdn
lNhEVP+qkybmQIxTegownqrCQd65JBHCG5Lf79DGM0GPCULWKwntWY210yX0SkBk
1D/L6uTMDgf8ozyWQHwseItXLdvKYWQZyH2Eob4J7XTKTJKqRE+DFa86xmj17UTY
V2VineTdQ2mfYA8Rfes9QcSdxwxXwVQZ+nf7p1AxVaU6Djs9TuYbxmNS/L2coGQz
p5UdO5HAGLYRqhyCgn8wxqQ/5J2g9mpFbIeZ1VQm6TFxLTl1Uz7xg/YgOszneqba
L557jrq5UY/j5HMa4gbm4bQ13JN1cFiZ17oVsqUPgwx28O+3EvkOqb+/fhmVGhhi
l1B3xLI+MSmpwGeVqCn3h6Qg9zTDDdnD5VZt0g3MW2KO4uyAdiCvoLU9aghiIRQq
BtWdPJWQHTGDjrQhxRfrVliLPYMCAwEAAaOCAcUwggHBMB8GA1UdIwQYMBaAFLOQ
p9jJr07NYTyffK1df0H9aTDqMB0GA1UdDgQWBBSCPt8o/ThPSwhYMSicF98B+pm4
1DAOBgNVHQ8BAf8EBAMCBaAwDAYDVR0TAQH/BAIwADAdBgNVHSUEFjAUBggrBgEF
BQcDAQYIKwYBBQUHAwIwSwYDVR0gBEQwQjA2BgsrBgEEAbIxAQICGjAnMCUGCCsG
AQUFBwIBFhlodHRwczovL2Nwcy51c2VydHJ1c3QuY29tMAgGBmeBDAECATBBBgNV
HR8EOjA4MDagNKAyhjBodHRwOi8vY3JsLnVzZXJ0cnVzdC5jb20vR2FuZGlTdGFu
ZGFyZFNTTENBMi5jcmwwcwYIKwYBBQUHAQEEZzBlMDwGCCsGAQUFBzAChjBodHRw
Oi8vY3J0LnVzZXJ0cnVzdC5jb20vR2FuZGlTdGFuZGFyZFNTTENBMi5jcnQwJQYI
KwYBBQUHMAGGGWh0dHA6Ly9vY3NwLnVzZXJ0cnVzdC5jb20wPQYDVR0RBDYwNIIW
cGFja2FnZXMucWEuZGViaWFuLm9yZ4Iad3d3LnBhY2thZ2VzLnFhLmRlYmlhbi5v
cmcwDQYJKoZIhvcNAQELBQADggEBAH+P2lXS3GOlkNZg4i4i//frTr5b8U8Mjyid
z16+JVyAIFITXm39qTWJlBGvafRJXfGsbCMcgaSPsnURwn3layztBL5M+8il9evx
nbKGi1X/aWihW8GSKDoBM+9f+KkdcWux0ChTqUiG/BIbgJJftxDoIkwv0E2jQtNP
MpbfXdV5232mNpac9vPvSWqZUFCvqBZSvWpSgsirQ/tprE3pc2hcPHU8YWVwghim
KWfbAit5S/nk1BvAxzP1plddWXfh0lb+uxHu9sITe5e7vmoKBOlj71F88Yvt3Utr
0z1wEDe4Wa2EaNyX84RqUrCbMX9FwxSjCFQW8UWD5kXQgcUaBhc=
-----END CERTIFICATE-----
