Certificate:
    Data:
        Version: 3 (0x2)
        Serial Number:
            db:a9:f0:68:bb:df:c8:82:9c:0b:bc:ea:b5:4a:8c:5e
    Signature Algorithm: sha1WithRSAEncryption
        Issuer: C=FR, O=GANDI SAS, CN=Gandi Standard SSL CA
        Validity
            Not Before: Feb 10 00:00:00 2014 GMT
            Not After : Feb 10 23:59:59 2015 GMT
        Subject: OU=Domain Control Validated, OU=Gandi Standard SSL, CN=packages.debian.org
        Subject Public Key Info:
            Public Key Algorithm: rsaEncryption
                Public-Key: (3072 bit)
                Modulus:
                    00:a2:fa:c4:d8:b0:0a:61:bf:f4:88:ba:c5:8a:c8:
                    07:b6:cb:62:92:a1:ae:68:c9:f5:c5:a8:01:34:e3:
                    97:db:f8:50:87:a9:e9:03:ec:6c:57:be:ad:eb:57:
                    8e:7d:c1:07:cc:e4:6a:6e:6e:83:5b:d9:03:11:2d:
                    2c:f7:a4:e4:3b:e2:97:65:c5:a2:13:65:81:6f:15:
                    b1:ca:b2:a0:20:c0:b5:d8:c9:49:2c:30:74:14:21:
                    1a:99:ef:6e:5d:99:64:75:e5:aa:69:7c:7a:08:81:
                    7a:ed:d0:1a:47:28:74:d3:fd:45:60:6c:0e:7e:24:
                    4b:48:0a:52:39:27:c0:23:3f:54:2f:b9:b8:dc:09:
                    06:ce:bd:bf:a0:bc:82:26:28:c6:73:01:f9:aa:d9:
                    ca:4a:35:4d:3a:54:14:43:b8:53:ec:f3:ce:cd:b3:
                    6c:df:9b:69:59:30:a3:b9:f3:d0:51:6e:8c:9a:60:
                    e8:07:82:64:04:7f:16:64:fe:8c:aa:59:d2:65:e2:
                    4a:39:97:e4:ee:8f:d1:f9:36:5c:75:32:13:4d:9d:
                    a1:c9:77:3b:8f:96:1e:77:38:39:90:18:c0:5f:80:
                    b4:ac:9d:90:61:19:f6:06:f6:96:ec:34:63:5b:df:
                    1f:4a:5a:54:63:c8:8a:60:3b:15:b3:a9:ae:bf:de:
                    97:5e:ad:67:99:13:82:b3:39:df:ba:f5:86:43:c1:
                    e1:32:68:2e:90:a2:d8:74:d7:ae:39:ab:ad:4a:06:
                    34:ac:ea:a9:3c:a4:07:5d:c9:21:e6:6b:f0:a6:1e:
                    1b:ce:f3:20:81:0c:32:e1:ac:11:8f:3e:65:ae:f2:
                    cd:c5:02:50:6e:39:69:9c:13:99:bd:c2:69:5b:4b:
                    f9:fd:9b:92:cf:99:61:57:d5:ae:b3:ad:f6:9f:ef:
                    f4:71:16:61:25:ac:48:35:32:c0:81:ec:c2:b6:e2:
                    25:e5:d8:94:a6:ec:cc:8c:12:be:f8:5f:34:11:89:
                    41:58:cd:59:c8:4d:ef:7c:5e:09
                Exponent: 65537 (0x10001)
        X509v3 extensions:
            X509v3 Authority Key Identifier: 
                keyid:B6:A8:FF:A2:A8:2F:D0:A6:CD:4B:B1:68:F3:E7:50:10:31:A7:79:21

            X509v3 Subject Key Identifier: 
                7E:60:78:43:69:9A:AE:C0:6E:74:4D:AA:7B:E8:9B:E1:49:AC:8B:7C
            X509v3 Key Usage: critical
                Digital Signature, Key Encipherment
            X509v3 Basic Constraints: critical
                CA:FALSE
            X509v3 Extended Key Usage: 
                TLS Web Server Authentication, TLS Web Client Authentication
            X509v3 Certificate Policies: 
                Policy: 1.3.6.1.4.1.6449.1.2.2.26
                  CPS: http://www.gandi.net/contracts/fr/ssl/cps/pdf/
                Policy: 2.23.140.1.2.1

            X509v3 CRL Distribution Points: 

                Full Name:
                  URI:http://crl.gandi.net/GandiStandardSSLCA.crl

            Authority Information Access: 
                CA Issuers - URI:http://crt.gandi.net/GandiStandardSSLCA.crt
                OCSP - URI:http://ocsp.gandi.net

            X509v3 Subject Alternative Name: 
                DNS:packages.debian.org, DNS:www.packages.debian.org
    Signature Algorithm: sha1WithRSAEncryption
         2d:ab:0f:66:67:c1:1a:24:23:d8:92:8a:86:82:9e:be:57:63:
         44:14:10:7a:69:33:74:71:48:ef:37:57:25:4f:20:bb:ff:93:
         60:bb:b7:f1:88:33:ff:b2:2f:0f:26:c8:59:aa:b5:3a:87:12:
         aa:f1:ee:90:2e:45:f2:1d:f7:d7:4c:59:02:37:81:76:33:a2:
         5c:54:71:1d:97:bb:26:79:c9:64:84:3e:4d:8d:70:d1:9c:ec:
         0c:01:2a:97:af:dd:45:cb:2b:69:c1:e1:33:97:84:e1:c9:e2:
         46:13:a6:06:f8:22:58:29:90:7b:9b:7f:ce:f7:bd:a6:2f:c2:
         86:e6:0d:38:78:9b:9e:20:10:e8:96:ad:77:a4:4c:a3:1b:59:
         5c:ef:c9:99:5c:a0:5a:9a:88:25:c2:a0:1d:f8:1f:ee:c1:d4:
         18:e1:1e:9b:15:01:f3:17:0f:63:fc:ec:d9:7f:28:73:94:a2:
         c1:46:9f:3a:5a:bd:ea:0b:e9:9e:6d:22:2e:74:cc:43:85:ec:
         61:30:d9:f4:45:38:12:36:56:6c:99:a2:b9:6a:15:a9:22:a6:
         2d:de:ab:49:05:eb:66:e9:57:99:32:90:70:49:04:f3:5f:85:
         08:5f:4e:93:d3:67:fd:87:7c:02:fc:2a:57:2d:a7:b5:23:16:
         a1:61:cc:2d
-----BEGIN CERTIFICATE-----
MIIFcjCCBFqgAwIBAgIRANup8Gi738iCnAu86rVKjF4wDQYJKoZIhvcNAQEFBQAw
QTELMAkGA1UEBhMCRlIxEjAQBgNVBAoTCUdBTkRJIFNBUzEeMBwGA1UEAxMVR2Fu
ZGkgU3RhbmRhcmQgU1NMIENBMB4XDTE0MDIxMDAwMDAwMFoXDTE1MDIxMDIzNTk1
OVowXjEhMB8GA1UECxMYRG9tYWluIENvbnRyb2wgVmFsaWRhdGVkMRswGQYDVQQL
ExJHYW5kaSBTdGFuZGFyZCBTU0wxHDAaBgNVBAMTE3BhY2thZ2VzLmRlYmlhbi5v
cmcwggGiMA0GCSqGSIb3DQEBAQUAA4IBjwAwggGKAoIBgQCi+sTYsAphv/SIusWK
yAe2y2KSoa5oyfXFqAE045fb+FCHqekD7GxXvq3rV459wQfM5GpuboNb2QMRLSz3
pOQ74pdlxaITZYFvFbHKsqAgwLXYyUksMHQUIRqZ725dmWR15appfHoIgXrt0BpH
KHTT/UVgbA5+JEtIClI5J8AjP1QvubjcCQbOvb+gvIImKMZzAfmq2cpKNU06VBRD
uFPs887Ns2zfm2lZMKO589BRboyaYOgHgmQEfxZk/oyqWdJl4ko5l+Tuj9H5Nlx1
MhNNnaHJdzuPlh53ODmQGMBfgLSsnZBhGfYG9pbsNGNb3x9KWlRjyIpgOxWzqa6/
3pderWeZE4KzOd+69YZDweEyaC6Qoth01645q61KBjSs6qk8pAddySHma/CmHhvO
8yCBDDLhrBGPPmWu8s3FAlBuOWmcE5m9wmlbS/n9m5LPmWFX1a6zrfaf7/RxFmEl
rEg1MsCB7MK24iXl2JSm7MyMEr74XzQRiUFYzVnITe98XgkCAwEAAaOCAcYwggHC
MB8GA1UdIwQYMBaAFLao/6KoL9CmzUuxaPPnUBAxp3khMB0GA1UdDgQWBBR+YHhD
aZquwG50Tap76JvhSayLfDAOBgNVHQ8BAf8EBAMCBaAwDAYDVR0TAQH/BAIwADAd
BgNVHSUEFjAUBggrBgEFBQcDAQYIKwYBBQUHAwIwYAYDVR0gBFkwVzBLBgsrBgEE
AbIxAQICGjA8MDoGCCsGAQUFBwIBFi5odHRwOi8vd3d3LmdhbmRpLm5ldC9jb250
cmFjdHMvZnIvc3NsL2Nwcy9wZGYvMAgGBmeBDAECATA8BgNVHR8ENTAzMDGgL6At
hitodHRwOi8vY3JsLmdhbmRpLm5ldC9HYW5kaVN0YW5kYXJkU1NMQ0EuY3JsMGoG
CCsGAQUFBwEBBF4wXDA3BggrBgEFBQcwAoYraHR0cDovL2NydC5nYW5kaS5uZXQv
R2FuZGlTdGFuZGFyZFNTTENBLmNydDAhBggrBgEFBQcwAYYVaHR0cDovL29jc3Au
Z2FuZGkubmV0MDcGA1UdEQQwMC6CE3BhY2thZ2VzLmRlYmlhbi5vcmeCF3d3dy5w
YWNrYWdlcy5kZWJpYW4ub3JnMA0GCSqGSIb3DQEBBQUAA4IBAQAtqw9mZ8EaJCPY
koqGgp6+V2NEFBB6aTN0cUjvN1clTyC7/5Ngu7fxiDP/si8PJshZqrU6hxKq8e6Q
LkXyHffXTFkCN4F2M6JcVHEdl7smeclkhD5NjXDRnOwMASqXr91FyytpweEzl4Th
yeJGE6YG+CJYKZB7m3/O972mL8KG5g04eJueIBDolq13pEyjG1lc78mZXKBamogl
wqAd+B/uwdQY4R6bFQHzFw9j/OzZfyhzlKLBRp86Wr3qC+mebSIudMxDhexhMNn0
RTgSNlZsmaK5ahWpIqYt3qtJBetm6VeZMpBwSQTzX4UIX06T02f9h3wC/CpXLae1
IxahYcwt
-----END CERTIFICATE-----
