Certificate:
    Data:
        Version: 3 (0x2)
        Serial Number:
            dd:94:31:6e:38:70:6a:29:4f:7a:61:0c:7a:c7:26:37
    Signature Algorithm: sha1WithRSAEncryption
        Issuer: C=FR, O=GANDI SAS, CN=Gandi Standard SSL CA
        Validity
            Not Before: Feb 14 00:00:00 2014 GMT
            Not After : Feb 14 23:59:59 2015 GMT
        Subject: OU=Domain Control Validated, OU=Gandi Standard SSL, CN=piuparts.debian.org
        Subject Public Key Info:
            Public Key Algorithm: rsaEncryption
                Public-Key: (3072 bit)
                Modulus:
                    00:ba:8c:a3:23:3c:be:33:25:5b:b0:0f:99:fc:34:
                    ed:21:b4:1a:9e:24:34:e4:3e:5b:54:cf:3f:51:13:
                    8a:b3:68:4c:2f:74:e4:ec:17:32:46:0e:83:5d:a2:
                    f4:82:52:e9:7f:32:e9:d0:a7:ca:6e:1c:1c:53:cd:
                    05:9b:3c:f5:2f:81:b3:c6:d3:ef:c4:a7:e3:16:35:
                    96:23:76:32:86:a8:11:f6:2e:c0:30:54:ec:48:a2:
                    95:c1:52:47:be:f2:2c:10:16:76:99:e3:66:90:90:
                    ac:1c:f2:b3:31:be:21:eb:9c:53:e2:b4:aa:b7:72:
                    1d:cd:4d:e5:76:f4:19:8a:71:e9:99:52:f6:c8:bd:
                    87:72:ed:04:5a:9c:af:e7:3d:46:4a:8a:e1:bb:f3:
                    6c:1d:d7:27:a7:ff:2d:8f:8b:ab:ef:69:6c:be:60:
                    ef:c5:fe:1d:ae:fd:03:c7:81:d3:c8:e1:be:c8:50:
                    95:b1:dc:cd:15:f4:2d:39:3d:ec:20:9e:44:33:1d:
                    90:73:2b:14:0a:69:a1:66:d3:41:2c:75:69:3e:f3:
                    93:52:0f:b2:53:46:eb:7a:03:85:00:de:8a:65:7f:
                    dc:7a:8c:f4:fd:2a:8f:66:d6:ad:78:d3:6e:0a:77:
                    37:7e:84:bf:63:40:1e:c3:0c:37:73:bb:e5:e8:06:
                    da:ba:fe:52:1b:5e:c2:62:af:a6:35:ea:75:1b:d6:
                    df:d5:22:67:5f:81:64:46:27:1e:c2:e9:a1:6c:ea:
                    af:19:80:16:3e:ca:1a:bd:a4:d9:89:ac:ee:42:e3:
                    2a:ea:55:eb:fb:a2:8d:92:ee:64:8f:9b:b8:fa:6e:
                    a6:e0:ba:f4:b1:c9:98:bf:0a:6f:6a:05:84:cc:a7:
                    ba:2e:be:2a:24:4a:78:08:2d:09:d3:85:e0:dc:6f:
                    43:96:11:82:5a:c4:a1:d3:8c:12:f8:06:79:66:0b:
                    5e:4f:24:06:35:3a:1f:c6:66:9c:15:c2:ab:fb:f5:
                    09:b4:68:4c:b6:87:af:8d:11:eb
                Exponent: 65537 (0x10001)
        X509v3 extensions:
            X509v3 Authority Key Identifier: 
                keyid:B6:A8:FF:A2:A8:2F:D0:A6:CD:4B:B1:68:F3:E7:50:10:31:A7:79:21

            X509v3 Subject Key Identifier: 
                8E:CB:0F:25:4A:9D:0E:C0:3B:87:7F:FD:D5:80:EC:7E:36:52:E0:86
            X509v3 Key Usage: critical
                Digital Signature, Key Encipherment
            X509v3 Basic Constraints: critical
                CA:FALSE
            X509v3 Extended Key Usage: 
                TLS Web Server Authentication, TLS Web Client Authentication
            X509v3 Certificate Policies: 
                Policy: 1.3.6.1.4.1.6449.1.2.2.26
                  CPS: http://www.gandi.net/contracts/fr/ssl/cps/pdf/
                Policy: 2.23.140.1.2.1

            X509v3 CRL Distribution Points: 

                Full Name:
                  URI:http://crl.gandi.net/GandiStandardSSLCA.crl

            Authority Information Access: 
                CA Issuers - URI:http://crt.gandi.net/GandiStandardSSLCA.crt
                OCSP - URI:http://ocsp.gandi.net

            X509v3 Subject Alternative Name: 
                DNS:piuparts.debian.org, DNS:www.piuparts.debian.org
    Signature Algorithm: sha1WithRSAEncryption
         29:cc:82:3d:08:ac:90:2c:e5:a5:a1:b7:39:72:bc:bd:10:76:
         9d:12:c8:08:f1:f2:ba:48:d5:d8:7b:4b:04:a1:bb:14:18:11:
         c0:c9:0f:f5:d2:eb:8a:d6:54:3e:f2:cf:b3:29:0f:2b:9c:09:
         d6:2b:89:0d:9d:e2:1f:c6:e2:1c:df:ca:d6:3d:63:fa:36:b5:
         68:d8:c5:57:d1:81:3d:ca:5b:9b:18:af:9a:b0:3e:53:f3:62:
         c4:4d:d6:c1:1c:5e:a0:4d:79:ac:eb:d1:3c:88:d0:35:3b:1a:
         41:ac:da:96:e5:00:37:ba:33:b1:f3:ba:11:bc:25:23:ab:67:
         66:14:03:8f:b4:d9:01:05:f4:ce:30:97:6c:c9:b8:f7:93:7c:
         9d:3f:b3:74:34:d1:6b:41:e4:f1:96:0c:b6:02:a5:12:e3:52:
         eb:65:11:ba:d9:42:dc:b4:f8:b9:fe:12:0d:a1:b6:84:2e:9d:
         83:8b:31:d2:b4:e3:8a:c2:bf:b0:ae:40:d3:98:ab:c5:c5:af:
         51:6f:a2:e9:60:d9:78:be:82:dd:53:33:fe:94:c7:55:0e:e3:
         b2:a6:35:54:cc:40:b6:4e:45:6f:09:8d:f2:50:e7:f0:f7:98:
         b1:37:31:f7:aa:22:44:19:0c:e4:f0:21:d5:bb:fe:2a:a5:1d:
         92:e7:66:85
-----BEGIN CERTIFICATE-----
MIIFcjCCBFqgAwIBAgIRAN2UMW44cGopT3phDHrHJjcwDQYJKoZIhvcNAQEFBQAw
QTELMAkGA1UEBhMCRlIxEjAQBgNVBAoTCUdBTkRJIFNBUzEeMBwGA1UEAxMVR2Fu
ZGkgU3RhbmRhcmQgU1NMIENBMB4XDTE0MDIxNDAwMDAwMFoXDTE1MDIxNDIzNTk1
OVowXjEhMB8GA1UECxMYRG9tYWluIENvbnRyb2wgVmFsaWRhdGVkMRswGQYDVQQL
ExJHYW5kaSBTdGFuZGFyZCBTU0wxHDAaBgNVBAMTE3BpdXBhcnRzLmRlYmlhbi5v
cmcwggGiMA0GCSqGSIb3DQEBAQUAA4IBjwAwggGKAoIBgQC6jKMjPL4zJVuwD5n8
NO0htBqeJDTkPltUzz9RE4qzaEwvdOTsFzJGDoNdovSCUul/MunQp8puHBxTzQWb
PPUvgbPG0+/Ep+MWNZYjdjKGqBH2LsAwVOxIopXBUke+8iwQFnaZ42aQkKwc8rMx
viHrnFPitKq3ch3NTeV29BmKcemZUvbIvYdy7QRanK/nPUZKiuG782wd1yen/y2P
i6vvaWy+YO/F/h2u/QPHgdPI4b7IUJWx3M0V9C05PewgnkQzHZBzKxQKaaFm00Es
dWk+85NSD7JTRut6A4UA3oplf9x6jPT9Ko9m1q14024Kdzd+hL9jQB7DDDdzu+Xo
Btq6/lIbXsJir6Y16nUb1t/VImdfgWRGJx7C6aFs6q8ZgBY+yhq9pNmJrO5C4yrq
Vev7oo2S7mSPm7j6bqbguvSxyZi/Cm9qBYTMp7ouviokSngILQnTheDcb0OWEYJa
xKHTjBL4BnlmC15PJAY1Oh/GZpwVwqv79Qm0aEy2h6+NEesCAwEAAaOCAcYwggHC
MB8GA1UdIwQYMBaAFLao/6KoL9CmzUuxaPPnUBAxp3khMB0GA1UdDgQWBBSOyw8l
Sp0OwDuHf/3VgOx+NlLghjAOBgNVHQ8BAf8EBAMCBaAwDAYDVR0TAQH/BAIwADAd
BgNVHSUEFjAUBggrBgEFBQcDAQYIKwYBBQUHAwIwYAYDVR0gBFkwVzBLBgsrBgEE
AbIxAQICGjA8MDoGCCsGAQUFBwIBFi5odHRwOi8vd3d3LmdhbmRpLm5ldC9jb250
cmFjdHMvZnIvc3NsL2Nwcy9wZGYvMAgGBmeBDAECATA8BgNVHR8ENTAzMDGgL6At
hitodHRwOi8vY3JsLmdhbmRpLm5ldC9HYW5kaVN0YW5kYXJkU1NMQ0EuY3JsMGoG
CCsGAQUFBwEBBF4wXDA3BggrBgEFBQcwAoYraHR0cDovL2NydC5nYW5kaS5uZXQv
R2FuZGlTdGFuZGFyZFNTTENBLmNydDAhBggrBgEFBQcwAYYVaHR0cDovL29jc3Au
Z2FuZGkubmV0MDcGA1UdEQQwMC6CE3BpdXBhcnRzLmRlYmlhbi5vcmeCF3d3dy5w
aXVwYXJ0cy5kZWJpYW4ub3JnMA0GCSqGSIb3DQEBBQUAA4IBAQApzII9CKyQLOWl
obc5cry9EHadEsgI8fK6SNXYe0sEobsUGBHAyQ/10uuK1lQ+8s+zKQ8rnAnWK4kN
neIfxuIc38rWPWP6NrVo2MVX0YE9ylubGK+asD5T82LETdbBHF6gTXms69E8iNA1
OxpBrNqW5QA3ujOx87oRvCUjq2dmFAOPtNkBBfTOMJdsybj3k3ydP7N0NNFrQeTx
lgy2AqUS41LrZRG62ULctPi5/hINobaELp2DizHStOOKwr+wrkDTmKvFxa9Rb6Lp
YNl4voLdUzP+lMdVDuOypjVUzEC2TkVvCY3yUOfw95ixNzH3qiJEGQzk8CHVu/4q
pR2S52aF
-----END CERTIFICATE-----
