Certificate:
    Data:
        Version: 3 (0x2)
        Serial Number:
            c9:4c:ec:a7:47:98:e5:90:21:cc:31:bd:00:3a:5c:04
    Signature Algorithm: sha1WithRSAEncryption
        Issuer: C=FR, O=GANDI SAS, CN=Gandi Standard SSL CA
        Validity
            Not Before: Feb 14 00:00:00 2014 GMT
            Not After : Feb 14 23:59:59 2015 GMT
        Subject: OU=Domain Control Validated, OU=Gandi Standard SSL, CN=piuparts.debian.org
        Subject Public Key Info:
            Public Key Algorithm: rsaEncryption
                Public-Key: (2048 bit)
                Modulus:
                    00:c3:f5:54:d4:95:fd:c4:c9:fa:11:97:2e:2c:43:
                    44:05:f0:b7:aa:b5:86:9a:45:f6:73:6d:96:99:db:
                    37:e5:97:a8:7c:94:93:eb:6f:c2:d1:8c:88:de:de:
                    bf:aa:f1:62:34:51:34:05:15:45:5f:5e:e5:72:9b:
                    2e:bc:8d:56:8d:0d:7f:7c:f7:75:3a:17:b0:7a:a7:
                    4f:6a:40:19:35:52:f6:ac:b1:08:06:b3:48:5d:cf:
                    1b:3c:64:fb:13:8d:c2:ba:18:43:4b:86:7c:1b:74:
                    f9:be:31:23:a2:61:49:63:d4:6e:50:3f:13:a8:2f:
                    17:49:b4:b1:d3:5e:c3:5f:b6:15:25:dd:e9:d3:1c:
                    2d:b4:cf:4d:96:40:4e:01:5b:99:29:2f:68:e7:ae:
                    31:83:a9:dd:44:92:35:97:c4:75:8f:e0:90:7a:b2:
                    c3:b1:32:07:b8:f2:68:50:9f:53:00:f3:12:8d:82:
                    40:81:82:e3:c8:48:e1:d0:29:70:aa:71:2d:7b:52:
                    5b:5d:40:d0:8f:29:a4:87:d2:15:4a:56:f7:fe:1b:
                    3d:c6:a7:f5:a6:fe:fd:43:18:2b:ea:35:09:51:b9:
                    3e:d1:39:86:09:98:25:db:08:ee:c4:32:9c:28:ec:
                    8e:7a:44:f6:b5:fa:1f:4b:c6:40:fb:6f:c1:b9:ff:
                    3c:65
                Exponent: 65537 (0x10001)
        X509v3 extensions:
            X509v3 Authority Key Identifier: 
                keyid:B6:A8:FF:A2:A8:2F:D0:A6:CD:4B:B1:68:F3:E7:50:10:31:A7:79:21

            X509v3 Subject Key Identifier: 
                81:9B:5E:45:0B:01:81:91:F7:95:F6:5A:23:A3:30:A5:74:4E:65:2D
            X509v3 Key Usage: critical
                Digital Signature, Key Encipherment
            X509v3 Basic Constraints: critical
                CA:FALSE
            X509v3 Extended Key Usage: 
                TLS Web Server Authentication, TLS Web Client Authentication
            X509v3 Certificate Policies: 
                Policy: 1.3.6.1.4.1.6449.1.2.2.26
                  CPS: http://www.gandi.net/contracts/fr/ssl/cps/pdf/
                Policy: 2.23.140.1.2.1

            X509v3 CRL Distribution Points: 

                Full Name:
                  URI:http://crl.gandi.net/GandiStandardSSLCA.crl

            Authority Information Access: 
                CA Issuers - URI:http://crt.gandi.net/GandiStandardSSLCA.crt
                OCSP - URI:http://ocsp.gandi.net

            X509v3 Subject Alternative Name: 
                DNS:piuparts.debian.org, DNS:www.piuparts.debian.org
    Signature Algorithm: sha1WithRSAEncryption
         00:fa:1e:96:83:a5:16:16:5d:ee:85:8f:42:8f:1f:0b:8e:e9:
         3d:eb:8b:2e:81:9c:13:2f:d0:4c:9b:b7:4e:b2:e0:c5:b0:f0:
         64:a9:8c:af:db:76:4a:15:5e:eb:58:be:e7:0b:73:c8:68:9d:
         db:03:e2:aa:81:d2:04:67:88:21:62:03:38:f8:f3:99:e3:7f:
         b6:93:35:89:d7:13:f0:78:58:f1:30:f2:21:89:bc:ee:ad:3d:
         1f:09:ff:1e:78:7e:ef:05:5e:3f:8f:f4:ec:f7:a4:67:85:6c:
         16:81:52:78:d9:6b:2c:93:cc:b4:76:66:90:78:4e:8d:f3:8c:
         05:33:d1:3b:f6:58:1d:d2:20:fe:08:56:77:b8:d0:99:07:ce:
         ff:bf:9e:a3:15:b3:dd:b0:21:9d:77:b0:a3:b5:2a:ee:a6:73:
         18:6b:28:45:80:30:26:25:03:dd:f3:71:5b:6b:56:81:22:46:
         77:f4:af:eb:f2:77:be:db:40:ec:c3:76:22:f7:e1:c0:82:54:
         3e:70:d9:c9:ca:0b:18:91:9b:01:31:4d:9d:5a:b7:19:81:cc:
         85:b9:bc:66:0a:1f:6c:93:72:a2:5f:c5:1d:f6:d6:90:85:dd:
         b0:86:20:4f:f8:29:fc:dc:22:92:7c:54:43:16:1a:39:64:c3:
         4b:fe:be:10
-----BEGIN CERTIFICATE-----
MIIE8jCCA9qgAwIBAgIRAMlM7KdHmOWQIcwxvQA6XAQwDQYJKoZIhvcNAQEFBQAw
QTELMAkGA1UEBhMCRlIxEjAQBgNVBAoTCUdBTkRJIFNBUzEeMBwGA1UEAxMVR2Fu
ZGkgU3RhbmRhcmQgU1NMIENBMB4XDTE0MDIxNDAwMDAwMFoXDTE1MDIxNDIzNTk1
OVowXjEhMB8GA1UECxMYRG9tYWluIENvbnRyb2wgVmFsaWRhdGVkMRswGQYDVQQL
ExJHYW5kaSBTdGFuZGFyZCBTU0wxHDAaBgNVBAMTE3BpdXBhcnRzLmRlYmlhbi5v
cmcwggEiMA0GCSqGSIb3DQEBAQUAA4IBDwAwggEKAoIBAQDD9VTUlf3EyfoRly4s
Q0QF8LeqtYaaRfZzbZaZ2zfll6h8lJPrb8LRjIje3r+q8WI0UTQFFUVfXuVymy68
jVaNDX9893U6F7B6p09qQBk1UvassQgGs0hdzxs8ZPsTjcK6GENLhnwbdPm+MSOi
YUlj1G5QPxOoLxdJtLHTXsNfthUl3enTHC20z02WQE4BW5kpL2jnrjGDqd1EkjWX
xHWP4JB6ssOxMge48mhQn1MA8xKNgkCBguPISOHQKXCqcS17UltdQNCPKaSH0hVK
Vvf+Gz3Gp/Wm/v1DGCvqNQlRuT7ROYYJmCXbCO7EMpwo7I56RPa1+h9LxkD7b8G5
/zxlAgMBAAGjggHGMIIBwjAfBgNVHSMEGDAWgBS2qP+iqC/Qps1LsWjz51AQMad5
ITAdBgNVHQ4EFgQUgZteRQsBgZH3lfZaI6MwpXROZS0wDgYDVR0PAQH/BAQDAgWg
MAwGA1UdEwEB/wQCMAAwHQYDVR0lBBYwFAYIKwYBBQUHAwEGCCsGAQUFBwMCMGAG
A1UdIARZMFcwSwYLKwYBBAGyMQECAhowPDA6BggrBgEFBQcCARYuaHR0cDovL3d3
dy5nYW5kaS5uZXQvY29udHJhY3RzL2ZyL3NzbC9jcHMvcGRmLzAIBgZngQwBAgEw
PAYDVR0fBDUwMzAxoC+gLYYraHR0cDovL2NybC5nYW5kaS5uZXQvR2FuZGlTdGFu
ZGFyZFNTTENBLmNybDBqBggrBgEFBQcBAQReMFwwNwYIKwYBBQUHMAKGK2h0dHA6
Ly9jcnQuZ2FuZGkubmV0L0dhbmRpU3RhbmRhcmRTU0xDQS5jcnQwIQYIKwYBBQUH
MAGGFWh0dHA6Ly9vY3NwLmdhbmRpLm5ldDA3BgNVHREEMDAughNwaXVwYXJ0cy5k
ZWJpYW4ub3Jnghd3d3cucGl1cGFydHMuZGViaWFuLm9yZzANBgkqhkiG9w0BAQUF
AAOCAQEAAPoeloOlFhZd7oWPQo8fC47pPeuLLoGcEy/QTJu3TrLgxbDwZKmMr9t2
ShVe61i+5wtzyGid2wPiqoHSBGeIIWIDOPjzmeN/tpM1idcT8HhY8TDyIYm87q09
Hwn/Hnh+7wVeP4/07PekZ4VsFoFSeNlrLJPMtHZmkHhOjfOMBTPRO/ZYHdIg/ghW
d7jQmQfO/7+eoxWz3bAhnXewo7Uq7qZzGGsoRYAwJiUD3fNxW2tWgSJGd/Sv6/J3
vttA7MN2IvfhwIJUPnDZycoLGJGbATFNnVq3GYHMhbm8ZgofbJNyol/FHfbWkIXd
sIYgT/gp/NwiknxUQxYaOWTDS/6+EA==
-----END CERTIFICATE-----
