Certificate:
    Data:
        Version: 3 (0x2)
        Serial Number: 122 (0x7a)
    Signature Algorithm: sha1WithRSAEncryption
        Issuer: O=Debian, CN=ca.debian.org/emailAddress=debian-admin@debian.org
        Validity
            Not Before: Apr  3 20:44:05 2015 GMT
            Not After : Apr  2 20:44:05 2016 GMT
        Subject: O=Debian, CN=puppet-dashboard.debian.org/emailAddress=debian-admin@debian.org
        Subject Public Key Info:
            Public Key Algorithm: rsaEncryption
                Public-Key: (3072 bit)
                Modulus:
                    00:bd:05:87:c8:82:be:a3:8c:78:3b:f1:de:f9:54:
                    a7:4e:53:55:72:5e:16:03:da:99:94:6d:90:44:20:
                    1c:19:8c:c0:09:76:33:3c:55:cc:4f:c8:d7:94:6d:
                    d4:6d:1b:a1:d4:50:5a:76:f2:0c:70:fe:55:ee:f1:
                    62:3b:45:19:a6:05:ea:ba:84:bd:09:0a:85:6e:8f:
                    e4:4f:a2:d8:3c:c1:cb:c0:ee:ba:4e:ba:20:5a:25:
                    70:d6:67:2f:41:a1:74:dc:06:cd:58:cb:b9:37:87:
                    d7:7a:35:97:5f:42:b8:ff:b9:e7:b9:ca:70:61:22:
                    66:b7:37:56:92:cd:b1:d8:b3:57:99:3f:4c:bd:b6:
                    45:82:04:65:92:43:f5:7e:04:29:c7:52:de:59:ac:
                    84:91:1b:a5:bc:a3:b6:f9:e4:17:ae:a3:89:d2:99:
                    c5:4b:8a:cc:bd:7f:a5:70:98:d3:5c:7e:5b:0d:f1:
                    27:37:f6:69:27:e5:72:f4:5b:3b:cf:dd:70:b5:17:
                    7d:b6:04:74:d1:d6:ce:36:99:69:84:80:17:73:ba:
                    9e:12:f6:45:0a:97:c7:17:62:5b:a3:96:fe:7a:41:
                    00:3f:38:2b:d3:44:0e:f5:38:cc:45:16:ec:07:a3:
                    62:06:3b:39:f9:0b:18:2a:9a:89:eb:64:ff:56:41:
                    2e:fc:9a:f1:b3:bd:21:79:fa:38:b6:90:c8:18:aa:
                    a6:71:24:58:af:bd:88:6f:d4:78:73:8b:a8:2f:66:
                    eb:92:d2:19:d3:99:59:ba:1e:f9:99:00:40:3b:42:
                    96:1a:8d:60:c9:36:06:15:d9:00:3e:e6:3d:e0:e4:
                    99:48:a7:f5:1c:db:56:c5:41:61:d7:8f:2a:8e:b8:
                    5a:dd:2a:95:92:29:5d:c8:e2:d5:56:a4:73:08:3d:
                    59:f9:6e:86:21:8d:a2:86:dd:04:f2:b1:8a:e2:e8:
                    db:04:91:0c:22:65:3b:e1:74:ca:98:a7:55:bc:7d:
                    1d:0c:72:3a:80:49:cd:55:17:b3
                Exponent: 65537 (0x10001)
        X509v3 extensions:
            X509v3 Basic Constraints: 
                CA:FALSE
            X509v3 Subject Key Identifier: 
                63:04:6B:05:71:52:6E:6D:E8:B6:06:64:83:31:23:0E:5C:EC:BE:52
            X509v3 Authority Key Identifier: 
                keyid:A7:CF:4B:FA:5F:12:C6:23:74:2E:9E:A3:95:90:75:8C:CC:26:76:96
                DirName:/C=US/ST=Indiana/L=Indianapolis/O=Software in the Public Interest/OU=hostmaster/CN=Certificate Authority/emailAddress=hostmaster@spi-inc.org
                serial:03

    Signature Algorithm: sha1WithRSAEncryption
         05:d8:fb:83:49:15:a3:e7:34:bc:aa:30:ff:5b:55:63:f5:df:
         0b:70:f9:7c:2b:78:a5:d5:dd:78:c0:9f:fd:1b:ed:33:6f:de:
         f0:10:f2:ca:0e:89:f8:03:9d:99:39:d0:a7:f6:ea:b3:9d:a3:
         ce:17:00:a4:7d:f4:e9:3f:4e:fc:9e:3b:38:45:2f:d5:8e:c1:
         e4:24:85:c6:5d:6c:8e:91:0d:54:65:6c:c2:b9:71:bc:8b:d3:
         34:75:5e:5e:17:06:2b:9d:71:d6:af:ad:fe:de:4d:ae:6a:7a:
         ff:f3:b7:39:ba:a5:2a:d0:4d:fd:c9:2e:a1:7b:f9:73:72:9d:
         64:2d:02:e7:b9:8e:1d:48:c8:8a:98:e9:25:1b:22:ad:a6:8f:
         59:f0:85:0f:9a:7a:f9:2e:b2:52:cb:5d:cb:1f:14:61:84:3a:
         37:51:d6:68:5b:e4:d5:f0:ad:f7:a6:ef:6f:bb:5a:99:33:27:
         3d:92:35:d3:86:71:2c:da:12:be:14:b2:88:d8:82:70:67:bd:
         6f:30:6d:b9:f7:ad:4c:1e:08:b8:b2:98:d0:71:db:b0:82:b0:
         13:04:30:e9:b0:54:d5:9c:f3:a3:b0:4a:99:2c:e2:cd:d7:db:
         f6:9d:89:17:4d:33:89:2b:93:4f:e3:e2:79:3a:28:99:86:9e:
         df:71:5b:c9:3c:cb:08:db:23:8a:84:32:5d:0b:4d:68:fd:61:
         ab:ff:8d:0d:1a:45:80:81:59:e8:8c:3d:39:a2:13:cd:d5:ce:
         ed:0c:69:bd:f9:17:e4:6f:b8:80:aa:c2:f6:33:e9:03:24:ae:
         39:dc:fa:6d:b7:37:a9:f9:ec:0f:ce:d7:69:4f:77:63:82:20:
         38:79:94:3a:92:03:62:71:08:d6:f7:20:d1:f1:1e:2f:ff:b5:
         55:d5:62:0c:12:90:5d:b5:87:80:0f:4a:82:a2:fd:73:d2:4e:
         ad:16:41:13:a4:55:44:04:39:1f:ba:1a:08:1c:2e:f4:82:35:
         a4:9f:b8:b0:c6:69:b3:1b:dd:a8:91:d7:09:1b:b1:e3:64:5b:
         3b:51:6a:1d:f1:9b:12:31:27:55:bc:1a:f9:8d:20:5a:c0:d7:
         93:55:e5:ea:54:95:f6:b7:83:22:a8:0e:d8:fe:64:37:bd:7d:
         de:12:30:68:52:43:5c:6f:a0:f3:f5:d2:89:9c:b3:ab:bc:a3:
         cb:c6:4e:2c:b4:bc:c3:8d:81:ce:4d:49:23:8e:a4:8f:08:d2:
         30:25:93:2c:b9:e9:a4:66:05:db:d7:f0:6e:b6:e6:03:b2:00:
         d3:87:ad:39:1e:74:3e:ee:ae:c8:11:3a:99:ad:94:f8:56:bc:
         60:f3:09:7f:dd:86:f4:66
-----BEGIN CERTIFICATE-----
MIIFxzCCA6+gAwIBAgIBejANBgkqhkiG9w0BAQUFADBRMQ8wDQYDVQQKEwZEZWJp
YW4xFjAUBgNVBAMTDWNhLmRlYmlhbi5vcmcxJjAkBgkqhkiG9w0BCQEWF2RlYmlh
bi1hZG1pbkBkZWJpYW4ub3JnMB4XDTE1MDQwMzIwNDQwNVoXDTE2MDQwMjIwNDQw
NVowXzEPMA0GA1UEChMGRGViaWFuMSQwIgYDVQQDExtwdXBwZXQtZGFzaGJvYXJk
LmRlYmlhbi5vcmcxJjAkBgkqhkiG9w0BCQEWF2RlYmlhbi1hZG1pbkBkZWJpYW4u
b3JnMIIBojANBgkqhkiG9w0BAQEFAAOCAY8AMIIBigKCAYEAvQWHyIK+o4x4O/He
+VSnTlNVcl4WA9qZlG2QRCAcGYzACXYzPFXMT8jXlG3UbRuh1FBadvIMcP5V7vFi
O0UZpgXquoS9CQqFbo/kT6LYPMHLwO66TrogWiVw1mcvQaF03AbNWMu5N4fXejWX
X0K4/7nnucpwYSJmtzdWks2x2LNXmT9MvbZFggRlkkP1fgQpx1LeWayEkRulvKO2
+eQXrqOJ0pnFS4rMvX+lcJjTXH5bDfEnN/ZpJ+Vy9Fs7z91wtRd9tgR00dbONplp
hIAXc7qeEvZFCpfHF2Jbo5b+ekEAPzgr00QO9TjMRRbsB6NiBjs5+QsYKpqJ62T/
VkEu/Jrxs70hefo4tpDIGKqmcSRYr72Ib9R4c4uoL2brktIZ05lZuh75mQBAO0KW
Go1gyTYGFdkAPuY94OSZSKf1HNtWxUFh148qjrha3SqVkildyOLVVqRzCD1Z+W6G
IY2iht0E8rGK4ujbBJEMImU74XTKmKdVvH0dDHI6gEnNVRezAgMBAAGjggEaMIIB
FjAJBgNVHRMEAjAAMB0GA1UdDgQWBBRjBGsFcVJubei2BmSDMSMOXOy+UjCB6QYD
VR0jBIHhMIHegBSnz0v6XxLGI3QunqOVkHWMzCZ2lqGBwqSBvzCBvDELMAkGA1UE
BhMCVVMxEDAOBgNVBAgTB0luZGlhbmExFTATBgNVBAcTDEluZGlhbmFwb2xpczEo
MCYGA1UEChMfU29mdHdhcmUgaW4gdGhlIFB1YmxpYyBJbnRlcmVzdDETMBEGA1UE
CxMKaG9zdG1hc3RlcjEeMBwGA1UEAxMVQ2VydGlmaWNhdGUgQXV0aG9yaXR5MSUw
IwYJKoZIhvcNAQkBFhZob3N0bWFzdGVyQHNwaS1pbmMub3JnggEDMA0GCSqGSIb3
DQEBBQUAA4ICAQAF2PuDSRWj5zS8qjD/W1Vj9d8LcPl8K3il1d14wJ/9G+0zb97w
EPLKDon4A52ZOdCn9uqznaPOFwCkffTpP078njs4RS/VjsHkJIXGXWyOkQ1UZWzC
uXG8i9M0dV5eFwYrnXHWr63+3k2uanr/87c5uqUq0E39yS6he/lzcp1kLQLnuY4d
SMiKmOklGyKtpo9Z8IUPmnr5LrJSy13LHxRhhDo3UdZoW+TV8K33pu9vu1qZMyc9
kjXThnEs2hK+FLKI2IJwZ71vMG25961MHgi4spjQcduwgrATBDDpsFTVnPOjsEqZ
LOLN19v2nYkXTTOJK5NP4+J5OiiZhp7fcVvJPMsI2yOKhDJdC01o/WGr/40NGkWA
gVnojD05ohPN1c7tDGm9+Rfkb7iAqsL2M+kDJK453Ppttzep+ewPztdpT3djgiA4
eZQ6kgNicQjW9yDR8R4v/7VV1WIMEpBdtYeAD0qCov1z0k6tFkETpFVEBDkfuhoI
HC70gjWkn7iwxmmzG92okdcJG7HjZFs7UWod8ZsSMSdVvBr5jSBawNeTVeXqVJX2
t4MiqA7Y/mQ3vX3eEjBoUkNcb6Dz9dKJnLOrvKPLxk4stLzDjYHOTUkjjqSPCNIw
JZMsuemkZgXb1/ButuYDsgDTh605HnQ+7q7IETqZrZT4Vrxg8wl/3Yb0Zg==
-----END CERTIFICATE-----
