Certificate:
    Data:
        Version: 3 (0x2)
        Serial Number: 113 (0x71)
    Signature Algorithm: sha1WithRSAEncryption
        Issuer: O=Debian, CN=ca.debian.org/emailAddress=debian-admin@debian.org
        Validity
            Not Before: Mar 18 20:45:28 2014 GMT
            Not After : Mar 18 20:45:28 2015 GMT
        Subject: O=Debian, CN=puppet-dashboard.debian.org/emailAddress=debian-admin@debian.org
        Subject Public Key Info:
            Public Key Algorithm: rsaEncryption
                Public-Key: (2048 bit)
                Modulus:
                    00:c1:c5:dc:69:9c:d2:62:47:99:47:11:67:98:f8:
                    2c:dd:88:f5:66:00:a0:be:d7:0e:ab:09:88:54:aa:
                    41:dd:3a:9f:5e:54:60:92:d1:21:68:1c:72:23:ea:
                    a8:c0:b3:a8:99:66:3e:59:14:66:b6:05:5c:2a:4a:
                    a1:76:b6:6f:e8:48:e8:86:09:4e:84:4d:61:5a:71:
                    e5:c8:63:f0:e4:52:22:d1:e7:70:1f:6d:c5:b3:ae:
                    49:6f:aa:6e:d7:e6:58:3c:38:f1:54:e6:cd:4e:de:
                    29:54:2b:f8:94:e0:c0:c7:73:01:63:93:5a:f9:0e:
                    34:f2:93:d3:12:da:43:bf:d7:52:cb:15:00:63:e0:
                    6e:ec:53:2d:11:34:ed:8b:80:43:e8:71:15:9c:cd:
                    58:8a:56:f8:9c:2d:bf:3b:ee:8c:6f:39:fb:97:c7:
                    b2:38:77:21:2e:06:bd:f9:19:b4:fd:60:b3:c5:f0:
                    91:64:1f:4c:0b:bd:07:79:37:e6:c5:cc:f9:8d:9b:
                    13:04:a0:e1:6e:3d:0f:b9:ab:bc:d7:5d:b6:2c:aa:
                    5d:d8:84:7e:ca:30:ed:b5:8b:49:7e:76:f4:72:51:
                    88:74:4c:c1:48:5c:af:34:8d:62:2e:c2:fc:9e:44:
                    cd:d8:6d:00:56:bb:24:30:31:27:32:54:8e:16:b3:
                    f5:4b
                Exponent: 65537 (0x10001)
        X509v3 extensions:
            X509v3 Basic Constraints: 
                CA:FALSE
            X509v3 Subject Key Identifier: 
                79:D9:B0:77:25:00:8F:CF:4D:FD:34:A2:F0:A9:E4:00:75:67:73:88
            X509v3 Authority Key Identifier: 
                keyid:A7:CF:4B:FA:5F:12:C6:23:74:2E:9E:A3:95:90:75:8C:CC:26:76:96
                DirName:/C=US/ST=Indiana/L=Indianapolis/O=Software in the Public Interest/OU=hostmaster/CN=Certificate Authority/emailAddress=hostmaster@spi-inc.org
                serial:03

    Signature Algorithm: sha1WithRSAEncryption
         85:d7:10:4f:fc:d7:02:6a:0d:ad:4a:6d:fb:05:40:a9:73:0a:
         ae:cc:12:cb:a7:2f:2a:3e:47:82:eb:d6:b0:aa:29:a4:34:9a:
         da:10:25:51:c3:ad:79:b0:74:03:ba:0d:c0:78:a3:57:52:08:
         b8:6e:f6:80:95:11:77:9e:b0:a7:ce:42:94:ea:85:db:44:e6:
         6b:ba:c1:d9:6f:da:38:74:e7:00:ec:86:b5:68:a7:c4:e3:3d:
         d7:b6:61:dc:8c:14:c7:32:74:89:f1:97:78:98:6b:1f:ba:5e:
         d7:42:7e:d7:52:75:6c:3f:28:0b:b7:09:c0:8e:61:df:66:88:
         2b:b3:9e:45:a0:d5:e7:54:51:ce:b4:35:54:21:e3:21:e9:13:
         14:6c:4a:a5:cd:1f:1b:eb:2b:ee:ce:0a:39:e2:79:f8:1f:19:
         98:b5:ac:c0:f1:b3:60:30:0f:f2:20:93:3a:ff:9a:58:b6:8f:
         d1:c0:44:cb:e7:59:9a:c2:35:dd:d8:44:9d:ce:e4:d7:af:24:
         2e:22:c3:1c:1d:65:28:79:22:a5:50:5d:21:28:b3:a2:30:42:
         4e:95:74:20:ff:b8:54:d0:fa:25:98:3f:e4:64:f3:3d:e9:b6:
         b3:b0:29:ea:73:03:9d:9e:7e:8b:72:e7:5a:0b:63:8e:7e:e2:
         bf:cb:a8:18:b3:04:ea:a9:32:06:2d:45:d7:3d:9b:c1:a0:82:
         a6:21:2f:5d:e3:dd:d3:c6:ec:50:93:67:6c:51:21:d2:97:94:
         3d:da:d1:c5:ef:08:1e:d9:56:83:dd:2b:24:1b:d4:f0:cb:f0:
         69:09:a6:3d:3d:c0:e8:ff:33:85:37:e9:17:70:da:8e:6f:1c:
         81:4a:0b:d5:e5:fc:ac:02:26:d6:fc:be:62:fe:f7:83:bb:59:
         08:c2:9a:bb:96:d8:de:5f:2b:27:78:14:8f:54:5f:f2:93:42:
         3b:dc:55:0a:68:92:c6:1f:e2:58:d5:87:11:6c:69:92:44:f5:
         c0:c7:b0:9c:77:e4:14:3f:05:d7:b0:36:0d:37:5a:c7:07:4d:
         87:fd:2c:06:f9:50:1e:ea:31:26:3f:fe:70:75:8a:ad:4b:a4:
         af:4f:09:07:27:7f:4b:b9:08:b9:dc:b6:df:bb:4a:72:c8:45:
         90:96:6b:72:e6:fb:37:71:4e:25:ac:aa:e7:ac:8d:1d:da:8a:
         45:f8:b1:fd:8d:76:e7:83:fc:6c:0b:0e:f9:9c:d4:d4:68:96:
         bf:f3:28:36:93:a2:0f:88:19:62:df:f4:ff:e5:1f:f9:2c:a0:
         f9:7e:94:e4:81:f1:9a:de:0c:cf:4f:1c:3a:54:17:00:37:b0:
         be:b6:7a:98:90:62:71:68
-----BEGIN CERTIFICATE-----
MIIFRzCCAy+gAwIBAgIBcTANBgkqhkiG9w0BAQUFADBRMQ8wDQYDVQQKEwZEZWJp
YW4xFjAUBgNVBAMTDWNhLmRlYmlhbi5vcmcxJjAkBgkqhkiG9w0BCQEWF2RlYmlh
bi1hZG1pbkBkZWJpYW4ub3JnMB4XDTE0MDMxODIwNDUyOFoXDTE1MDMxODIwNDUy
OFowXzEPMA0GA1UEChMGRGViaWFuMSQwIgYDVQQDExtwdXBwZXQtZGFzaGJvYXJk
LmRlYmlhbi5vcmcxJjAkBgkqhkiG9w0BCQEWF2RlYmlhbi1hZG1pbkBkZWJpYW4u
b3JnMIIBIjANBgkqhkiG9w0BAQEFAAOCAQ8AMIIBCgKCAQEAwcXcaZzSYkeZRxFn
mPgs3Yj1ZgCgvtcOqwmIVKpB3TqfXlRgktEhaBxyI+qowLOomWY+WRRmtgVcKkqh
drZv6EjohglOhE1hWnHlyGPw5FIi0edwH23Fs65Jb6pu1+ZYPDjxVObNTt4pVCv4
lODAx3MBY5Na+Q408pPTEtpDv9dSyxUAY+Bu7FMtETTti4BD6HEVnM1Yilb4nC2/
O+6Mbzn7l8eyOHchLga9+Rm0/WCzxfCRZB9MC70HeTfmxcz5jZsTBKDhbj0Puau8
1122LKpd2IR+yjDttYtJfnb0clGIdEzBSFyvNI1iLsL8nkTN2G0AVrskMDEnMlSO
FrP1SwIDAQABo4IBGjCCARYwCQYDVR0TBAIwADAdBgNVHQ4EFgQUedmwdyUAj89N
/TSi8KnkAHVnc4gwgekGA1UdIwSB4TCB3oAUp89L+l8SxiN0Lp6jlZB1jMwmdpah
gcKkgb8wgbwxCzAJBgNVBAYTAlVTMRAwDgYDVQQIEwdJbmRpYW5hMRUwEwYDVQQH
EwxJbmRpYW5hcG9saXMxKDAmBgNVBAoTH1NvZnR3YXJlIGluIHRoZSBQdWJsaWMg
SW50ZXJlc3QxEzARBgNVBAsTCmhvc3RtYXN0ZXIxHjAcBgNVBAMTFUNlcnRpZmlj
YXRlIEF1dGhvcml0eTElMCMGCSqGSIb3DQEJARYWaG9zdG1hc3RlckBzcGktaW5j
Lm9yZ4IBAzANBgkqhkiG9w0BAQUFAAOCAgEAhdcQT/zXAmoNrUpt+wVAqXMKrswS
y6cvKj5HguvWsKoppDSa2hAlUcOtebB0A7oNwHijV1IIuG72gJURd56wp85ClOqF
20Tma7rB2W/aOHTnAOyGtWinxOM917Zh3IwUxzJ0ifGXeJhrH7pe10J+11J1bD8o
C7cJwI5h32aIK7OeRaDV51RRzrQ1VCHjIekTFGxKpc0fG+sr7s4KOeJ5+B8ZmLWs
wPGzYDAP8iCTOv+aWLaP0cBEy+dZmsI13dhEnc7k168kLiLDHB1lKHkipVBdISiz
ojBCTpV0IP+4VND6JZg/5GTzPem2s7Ap6nMDnZ5+i3LnWgtjjn7iv8uoGLME6qky
Bi1F1z2bwaCCpiEvXePd08bsUJNnbFEh0peUPdrRxe8IHtlWg90rJBvU8MvwaQmm
PT3A6P8zhTfpF3Dajm8cgUoL1eX8rAIm1vy+Yv73g7tZCMKau5bY3l8rJ3gUj1Rf
8pNCO9xVCmiSxh/iWNWHEWxpkkT1wMewnHfkFD8F17A2DTdaxwdNh/0sBvlQHuox
Jj/+cHWKrUukr08JByd/S7kIudy237tKcshFkJZrcub7N3FOJayq56yNHdqKRfix
/Y1254P8bAsO+ZzU1GiWv/MoNpOiD4gZYt/0/+Uf+Syg+X6U5IHxmt4Mz08cOlQX
ADewvrZ6mJBicWg=
-----END CERTIFICATE-----
