Certificate:
    Data:
        Version: 3 (0x2)
        Serial Number:
            6e:94:30:f1:e9:76:c3:ef:b6:9a:77:2c:b9:d5:06:06
    Signature Algorithm: sha256WithRSAEncryption
        Issuer: C=FR, ST=Paris, L=Paris, O=Gandi, CN=Gandi Standard SSL CA 2
        Validity
            Not Before: Jun 24 00:00:00 2015 GMT
            Not After : Jul  3 23:59:59 2016 GMT
        Subject: OU=Domain Control Validated, OU=Gandi Standard SSL, CN=qa.debian.org
        Subject Public Key Info:
            Public Key Algorithm: rsaEncryption
                Public-Key: (3072 bit)
                Modulus:
                    00:c1:a6:3b:04:31:8b:82:22:f7:3a:78:b0:c1:36:
                    4e:27:21:fc:7b:24:2b:33:f8:1b:95:58:8b:86:98:
                    4d:23:d9:07:45:62:75:c6:3f:9b:c1:85:2c:10:52:
                    9c:73:91:19:32:2e:e1:e7:32:50:32:d2:34:81:91:
                    80:43:cd:55:eb:82:bf:d2:3c:88:e6:b2:59:f6:3d:
                    fc:c6:16:7e:3f:fc:52:8f:cf:07:66:26:79:ee:0f:
                    fe:44:8a:32:82:41:c5:14:e8:15:ab:a4:1d:9c:08:
                    3a:f2:79:b6:27:cf:ba:d8:89:53:95:02:82:9d:8f:
                    9c:c0:13:0b:fa:e9:df:c2:64:02:42:9c:32:9a:6d:
                    6a:01:6d:eb:1c:6c:0f:c9:21:81:9b:aa:26:67:d3:
                    72:6f:7a:66:fd:cd:2e:f1:76:0c:a8:58:1d:27:e9:
                    1e:a6:da:5a:71:e6:25:5f:a3:c6:1b:b6:82:6c:44:
                    1c:12:af:a6:25:ff:0d:a7:e3:b1:42:a8:34:9c:89:
                    af:c9:da:94:89:a7:92:d7:02:34:45:6a:5f:90:e0:
                    f7:bc:83:fd:b9:79:f2:e6:39:80:ed:a7:3b:af:c5:
                    b2:92:69:07:6f:71:23:5f:ec:66:24:9f:1b:7c:c8:
                    d3:f0:06:c9:74:ac:0c:0b:a2:42:04:d4:ea:6b:e2:
                    36:0c:8f:05:ec:06:5a:76:eb:75:f7:0b:1e:a8:b1:
                    a7:82:a2:0d:6b:ff:c2:5a:09:69:7a:03:7d:3b:58:
                    f1:d8:6a:54:31:77:a7:e7:d4:d1:d0:0d:06:e6:3f:
                    0a:c1:7f:3c:68:0d:54:ec:d6:f4:fa:48:8b:27:ed:
                    ca:64:d4:42:69:69:f3:bd:34:c2:c8:60:be:9b:cb:
                    38:34:57:8a:a1:99:a3:14:c7:30:c1:c6:34:3d:e4:
                    56:75:c0:a2:e3:1b:9c:5e:b9:2e:17:18:a8:8b:cb:
                    5c:0b:82:aa:6c:79:38:60:52:f5:b7:36:1c:8c:6f:
                    17:49:ad:13:e2:f9:74:a6:92:87
                Exponent: 65537 (0x10001)
        X509v3 extensions:
            X509v3 Authority Key Identifier: 
                keyid:B3:90:A7:D8:C9:AF:4E:CD:61:3C:9F:7C:AD:5D:7F:41:FD:69:30:EA

            X509v3 Subject Key Identifier: 
                94:0C:80:BB:80:94:AA:AE:F6:E7:45:BD:37:8D:69:E4:86:C8:40:B9
            X509v3 Key Usage: critical
                Digital Signature, Key Encipherment
            X509v3 Basic Constraints: critical
                CA:FALSE
            X509v3 Extended Key Usage: 
                TLS Web Server Authentication, TLS Web Client Authentication
            X509v3 Certificate Policies: 
                Policy: 1.3.6.1.4.1.6449.1.2.2.26
                  CPS: https://cps.usertrust.com
                Policy: 2.23.140.1.2.1

            X509v3 CRL Distribution Points: 

                Full Name:
                  URI:http://crl.usertrust.com/GandiStandardSSLCA2.crl

            Authority Information Access: 
                CA Issuers - URI:http://crt.usertrust.com/GandiStandardSSLCA2.crt
                OCSP - URI:http://ocsp.usertrust.com

            X509v3 Subject Alternative Name: 
                DNS:qa.debian.org, DNS:www.qa.debian.org
    Signature Algorithm: sha256WithRSAEncryption
         81:99:1c:ba:96:64:3a:35:8e:d0:c9:1a:6f:ec:e3:35:cd:a9:
         69:46:8c:55:c7:a7:a1:59:e4:8d:8d:9e:f3:34:48:54:f3:0e:
         a1:07:75:bd:32:c3:b3:68:14:ba:e0:9b:50:56:90:c6:9f:74:
         dc:27:db:0b:b1:86:fa:2c:d5:4e:e2:ff:7c:4b:6c:8e:88:5d:
         9c:aa:1e:41:55:db:96:f9:0b:e5:d2:dc:1c:5b:c2:1a:83:14:
         7e:4c:5d:68:02:ee:1a:29:5c:f2:7b:48:e8:10:de:ed:19:f2:
         97:5e:cc:5e:2f:6c:c0:da:e6:e7:60:d5:3a:46:6e:9d:5c:29:
         9d:c5:6b:9b:90:7e:14:b6:62:ec:e0:dc:0d:e1:02:36:42:75:
         b7:50:59:92:be:5c:79:ef:46:86:0b:48:23:06:20:d7:80:a0:
         7c:09:b1:79:fe:a7:8b:40:02:13:d1:a4:cc:5f:a9:d5:68:18:
         39:c5:92:bc:04:5b:b1:79:04:08:ca:3f:e8:cd:fc:4d:3f:f5:
         29:df:17:76:2d:98:56:fa:a5:f1:5c:2b:32:a2:59:be:82:7a:
         25:90:da:07:81:49:5b:82:45:fb:fa:a2:d6:94:c6:d0:7b:39:
         91:40:a4:7a:81:c7:08:a5:25:cd:53:fd:d6:89:14:0f:21:66:
         c1:0e:9e:41
-----BEGIN CERTIFICATE-----
MIIFdjCCBF6gAwIBAgIQbpQw8el2w++2mncsudUGBjANBgkqhkiG9w0BAQsFADBf
MQswCQYDVQQGEwJGUjEOMAwGA1UECBMFUGFyaXMxDjAMBgNVBAcTBVBhcmlzMQ4w
DAYDVQQKEwVHYW5kaTEgMB4GA1UEAxMXR2FuZGkgU3RhbmRhcmQgU1NMIENBIDIw
HhcNMTUwNjI0MDAwMDAwWhcNMTYwNzAzMjM1OTU5WjBYMSEwHwYDVQQLExhEb21h
aW4gQ29udHJvbCBWYWxpZGF0ZWQxGzAZBgNVBAsTEkdhbmRpIFN0YW5kYXJkIFNT
TDEWMBQGA1UEAxMNcWEuZGViaWFuLm9yZzCCAaIwDQYJKoZIhvcNAQEBBQADggGP
ADCCAYoCggGBAMGmOwQxi4Ii9zp4sME2Tich/HskKzP4G5VYi4aYTSPZB0VidcY/
m8GFLBBSnHORGTIu4ecyUDLSNIGRgEPNVeuCv9I8iOayWfY9/MYWfj/8Uo/PB2Ym
ee4P/kSKMoJBxRToFaukHZwIOvJ5tifPutiJU5UCgp2PnMATC/rp38JkAkKcMppt
agFt6xxsD8khgZuqJmfTcm96Zv3NLvF2DKhYHSfpHqbaWnHmJV+jxhu2gmxEHBKv
piX/DafjsUKoNJyJr8nalImnktcCNEVqX5Dg97yD/bl58uY5gO2nO6/FspJpB29x
I1/sZiSfG3zI0/AGyXSsDAuiQgTU6mviNgyPBewGWnbrdfcLHqixp4KiDWv/wloJ
aXoDfTtY8dhqVDF3p+fU0dANBuY/CsF/PGgNVOzW9PpIiyftymTUQmlp8700wshg
vpvLODRXiqGZoxTHMMHGND3kVnXAouMbnF65LhcYqIvLXAuCqmx5OGBS9bc2HIxv
F0mtE+L5dKaShwIDAQABo4IBszCCAa8wHwYDVR0jBBgwFoAUs5Cn2MmvTs1hPJ98
rV1/Qf1pMOowHQYDVR0OBBYEFJQMgLuAlKqu9udFvTeNaeSGyEC5MA4GA1UdDwEB
/wQEAwIFoDAMBgNVHRMBAf8EAjAAMB0GA1UdJQQWMBQGCCsGAQUFBwMBBggrBgEF
BQcDAjBLBgNVHSAERDBCMDYGCysGAQQBsjEBAgIaMCcwJQYIKwYBBQUHAgEWGWh0
dHBzOi8vY3BzLnVzZXJ0cnVzdC5jb20wCAYGZ4EMAQIBMEEGA1UdHwQ6MDgwNqA0
oDKGMGh0dHA6Ly9jcmwudXNlcnRydXN0LmNvbS9HYW5kaVN0YW5kYXJkU1NMQ0Ey
LmNybDBzBggrBgEFBQcBAQRnMGUwPAYIKwYBBQUHMAKGMGh0dHA6Ly9jcnQudXNl
cnRydXN0LmNvbS9HYW5kaVN0YW5kYXJkU1NMQ0EyLmNydDAlBggrBgEFBQcwAYYZ
aHR0cDovL29jc3AudXNlcnRydXN0LmNvbTArBgNVHREEJDAigg1xYS5kZWJpYW4u
b3JnghF3d3cucWEuZGViaWFuLm9yZzANBgkqhkiG9w0BAQsFAAOCAQEAgZkcupZk
OjWO0Mkab+zjNc2paUaMVcenoVnkjY2e8zRIVPMOoQd1vTLDs2gUuuCbUFaQxp90
3CfbC7GG+izVTuL/fEtsjohdnKoeQVXblvkL5dLcHFvCGoMUfkxdaALuGilc8ntI
6BDe7Rnyl17MXi9swNrm52DVOkZunVwpncVrm5B+FLZi7ODcDeECNkJ1t1BZkr5c
ee9GhgtIIwYg14CgfAmxef6ni0ACE9GkzF+p1WgYOcWSvARbsXkECMo/6M38TT/1
Kd8Xdi2YVvql8VwrMqJZvoJ6JZDaB4FJW4JF+/qi1pTG0Hs5kUCkeoHHCKUlzVP9
1okUDyFmwQ6eQQ==
-----END CERTIFICATE-----
