Certificate:
    Data:
        Version: 3 (0x2)
        Serial Number:
            89:35:ea:05:e1:13:6b:0f:1e:d2:3d:c6:fd:e9:77:1d
    Signature Algorithm: sha1WithRSAEncryption
        Issuer: C=FR, O=GANDI SAS, CN=Gandi Standard SSL CA
        Validity
            Not Before: Jan  1 00:00:00 2014 GMT
            Not After : Jan  1 23:59:59 2015 GMT
        Subject: OU=Domain Control Validated, OU=Gandi Standard SSL, CN=release.debian.org
        Subject Public Key Info:
            Public Key Algorithm: rsaEncryption
                Public-Key: (3072 bit)
                Modulus:
                    00:d0:01:5d:db:bf:ec:18:6d:35:94:3d:7b:20:4b:
                    e7:70:a2:11:2d:f1:ac:31:6f:fc:52:f0:06:7e:fe:
                    de:a6:6d:5c:ff:0a:08:a3:d5:eb:7b:ae:09:b8:ce:
                    cd:41:50:d0:bf:9f:ae:ca:4d:2b:e5:fe:2d:c0:c0:
                    f3:44:eb:5a:00:46:d0:f4:92:70:10:dc:b4:d8:60:
                    2b:91:9f:b5:cc:ac:77:6b:ca:3a:44:9e:60:7d:bf:
                    b4:6c:7a:46:8c:b0:11:ab:54:52:19:84:04:59:83:
                    d9:9d:fd:76:08:82:64:73:9b:ce:e6:e1:7e:33:ef:
                    ed:64:3d:05:cb:51:ba:03:e0:2d:0c:56:7b:70:8c:
                    d4:c3:cc:ff:f7:58:d6:3f:39:1e:8d:9e:67:99:30:
                    d5:a7:05:02:70:8d:0c:54:4f:4e:fd:e3:89:76:61:
                    21:16:6b:51:f6:8a:f0:e5:f0:2a:dd:0e:e4:70:e7:
                    52:2b:30:cc:32:82:ec:51:b3:8d:46:fd:24:37:6e:
                    74:95:36:49:80:b0:ea:d4:bc:8e:a1:59:ed:0f:3a:
                    66:67:c8:32:6e:08:b2:0e:a0:d6:10:6c:eb:2e:cb:
                    a1:f9:5f:aa:27:73:e1:9f:bc:c2:98:bb:1d:97:4f:
                    8a:45:7f:d5:a4:1f:7e:4c:fe:db:ae:25:75:69:71:
                    bb:ce:d2:a3:d1:29:f9:a3:ed:33:c7:e2:c3:3c:47:
                    91:43:0a:0c:66:dd:57:05:64:cf:4a:ba:ec:61:b0:
                    29:99:77:ab:d5:ff:89:fe:69:3c:96:5a:a6:18:89:
                    b3:0c:25:3b:ab:7a:bf:1f:e1:8b:64:67:bb:94:2c:
                    43:e4:a7:f0:d9:3a:66:09:17:78:28:1f:07:0c:65:
                    9c:fc:f1:ab:4e:a1:61:91:7e:07:78:25:48:7c:f1:
                    c5:ea:e3:13:63:db:87:33:9e:41:84:6b:d2:4f:fd:
                    0f:67:88:09:3d:f3:68:d6:41:00:5e:4f:f1:e4:d3:
                    ec:b4:46:b2:ef:50:a3:87:34:8b
                Exponent: 65537 (0x10001)
        X509v3 extensions:
            X509v3 Authority Key Identifier: 
                keyid:B6:A8:FF:A2:A8:2F:D0:A6:CD:4B:B1:68:F3:E7:50:10:31:A7:79:21

            X509v3 Subject Key Identifier: 
                54:27:64:9E:DE:45:13:69:13:18:87:0D:67:2F:B0:8D:82:29:91:DA
            X509v3 Key Usage: critical
                Digital Signature, Key Encipherment
            X509v3 Basic Constraints: critical
                CA:FALSE
            X509v3 Extended Key Usage: 
                TLS Web Server Authentication, TLS Web Client Authentication
            X509v3 Certificate Policies: 
                Policy: 1.3.6.1.4.1.6449.1.2.2.26
                  CPS: http://www.gandi.net/contracts/fr/ssl/cps/pdf/
                Policy: 2.23.140.1.2.1

            X509v3 CRL Distribution Points: 

                Full Name:
                  URI:http://crl.gandi.net/GandiStandardSSLCA.crl

            Authority Information Access: 
                CA Issuers - URI:http://crt.gandi.net/GandiStandardSSLCA.crt
                OCSP - URI:http://ocsp.gandi.net

            X509v3 Subject Alternative Name: 
                DNS:release.debian.org, DNS:www.release.debian.org
    Signature Algorithm: sha1WithRSAEncryption
         ac:e5:82:0b:af:13:56:0b:d3:e7:22:4c:e4:b7:9e:b5:f4:58:
         0e:1b:b8:9a:c2:e1:6b:ef:99:7f:1e:9b:58:ac:65:77:4e:cc:
         e5:24:80:8a:ba:fa:20:8e:3c:bb:89:c3:02:98:59:82:4b:33:
         9e:86:31:95:3a:af:3d:0b:b7:ef:f1:e5:ae:80:d3:99:4d:81:
         8e:c3:08:35:45:44:40:6c:9e:cb:d6:f9:39:a2:bb:f7:b8:13:
         44:c8:62:6d:5c:d8:18:61:e4:ae:dc:1b:60:d0:8b:6b:48:c0:
         44:03:76:51:c9:3f:ea:88:e4:23:e7:42:b0:8d:5a:96:8d:b2:
         a4:0f:cb:23:a1:de:1e:6e:d1:70:e8:f1:5e:79:95:c9:d4:51:
         e1:db:20:af:b3:02:cd:77:62:20:d7:c2:fa:6a:39:21:ba:62:
         5a:df:39:eb:03:a3:8c:c0:da:d9:f2:33:1e:1f:2a:0c:80:aa:
         a3:97:c0:af:2a:54:2e:ce:ab:23:e1:34:8a:a1:5b:40:a5:bf:
         37:57:04:af:78:b9:d9:79:45:fc:e0:0e:fb:75:68:a9:a2:bd:
         fb:00:b8:9e:2d:4e:52:aa:ef:6a:ed:d6:2f:fa:b8:07:ca:92:
         c1:e7:76:84:9c:58:0c:5f:07:54:61:f8:e4:7a:48:02:b7:1c:
         c0:78:65:75
-----BEGIN CERTIFICATE-----
MIIFbzCCBFegAwIBAgIRAIk16gXhE2sPHtI9xv3pdx0wDQYJKoZIhvcNAQEFBQAw
QTELMAkGA1UEBhMCRlIxEjAQBgNVBAoTCUdBTkRJIFNBUzEeMBwGA1UEAxMVR2Fu
ZGkgU3RhbmRhcmQgU1NMIENBMB4XDTE0MDEwMTAwMDAwMFoXDTE1MDEwMTIzNTk1
OVowXTEhMB8GA1UECxMYRG9tYWluIENvbnRyb2wgVmFsaWRhdGVkMRswGQYDVQQL
ExJHYW5kaSBTdGFuZGFyZCBTU0wxGzAZBgNVBAMTEnJlbGVhc2UuZGViaWFuLm9y
ZzCCAaIwDQYJKoZIhvcNAQEBBQADggGPADCCAYoCggGBANABXdu/7BhtNZQ9eyBL
53CiES3xrDFv/FLwBn7+3qZtXP8KCKPV63uuCbjOzUFQ0L+frspNK+X+LcDA80Tr
WgBG0PSScBDctNhgK5Gftcysd2vKOkSeYH2/tGx6RoywEatUUhmEBFmD2Z39dgiC
ZHObzubhfjPv7WQ9BctRugPgLQxWe3CM1MPM//dY1j85Ho2eZ5kw1acFAnCNDFRP
Tv3jiXZhIRZrUfaK8OXwKt0O5HDnUiswzDKC7FGzjUb9JDdudJU2SYCw6tS8jqFZ
7Q86ZmfIMm4Isg6g1hBs6y7Loflfqidz4Z+8wpi7HZdPikV/1aQffkz+264ldWlx
u87So9Ep+aPtM8fiwzxHkUMKDGbdVwVkz0q67GGwKZl3q9X/if5pPJZaphiJswwl
O6t6vx/hi2Rnu5QsQ+Sn8Nk6ZgkXeCgfBwxlnPzxq06hYZF+B3glSHzxxerjE2Pb
hzOeQYRr0k/9D2eICT3zaNZBAF5P8eTT7LRGsu9Qo4c0iwIDAQABo4IBxDCCAcAw
HwYDVR0jBBgwFoAUtqj/oqgv0KbNS7Fo8+dQEDGneSEwHQYDVR0OBBYEFFQnZJ7e
RRNpExiHDWcvsI2CKZHaMA4GA1UdDwEB/wQEAwIFoDAMBgNVHRMBAf8EAjAAMB0G
A1UdJQQWMBQGCCsGAQUFBwMBBggrBgEFBQcDAjBgBgNVHSAEWTBXMEsGCysGAQQB
sjEBAgIaMDwwOgYIKwYBBQUHAgEWLmh0dHA6Ly93d3cuZ2FuZGkubmV0L2NvbnRy
YWN0cy9mci9zc2wvY3BzL3BkZi8wCAYGZ4EMAQIBMDwGA1UdHwQ1MDMwMaAvoC2G
K2h0dHA6Ly9jcmwuZ2FuZGkubmV0L0dhbmRpU3RhbmRhcmRTU0xDQS5jcmwwagYI
KwYBBQUHAQEEXjBcMDcGCCsGAQUFBzAChitodHRwOi8vY3J0LmdhbmRpLm5ldC9H
YW5kaVN0YW5kYXJkU1NMQ0EuY3J0MCEGCCsGAQUFBzABhhVodHRwOi8vb2NzcC5n
YW5kaS5uZXQwNQYDVR0RBC4wLIIScmVsZWFzZS5kZWJpYW4ub3JnghZ3d3cucmVs
ZWFzZS5kZWJpYW4ub3JnMA0GCSqGSIb3DQEBBQUAA4IBAQCs5YILrxNWC9PnIkzk
t5619FgOG7iawuFr75l/HptYrGV3TszlJICKuvogjjy7icMCmFmCSzOehjGVOq89
C7fv8eWugNOZTYGOwwg1RURAbJ7L1vk5orv3uBNEyGJtXNgYYeSu3Btg0ItrSMBE
A3ZRyT/qiOQj50KwjVqWjbKkD8sjod4ebtFw6PFeeZXJ1FHh2yCvswLNd2Ig18L6
ajkhumJa3znrA6OMwNrZ8jMeHyoMgKqjl8CvKlQuzqsj4TSKoVtApb83VwSveLnZ
eUX84A77dWipor37ALieLU5Squ9q7dYv+rgHypLB53aEnFgMXwdUYfjkekgCtxzA
eGV1
-----END CERTIFICATE-----
