Certificate:
    Data:
        Version: 3 (0x2)
        Serial Number:
            8c:54:93:04:3c:82:7a:1e:78:4a:eb:3d:18:39:41:30
    Signature Algorithm: sha256WithRSAEncryption
        Issuer: C=FR, ST=Paris, L=Paris, O=Gandi, CN=Gandi Standard SSL CA 2
        Validity
            Not Before: Dec 17 00:00:00 2014 GMT
            Not After : Jan  1 23:59:59 2016 GMT
        Subject: OU=Domain Control Validated, OU=Gandi Standard SSL, CN=release.debian.org
        Subject Public Key Info:
            Public Key Algorithm: rsaEncryption
                Public-Key: (3072 bit)
                Modulus:
                    00:d0:01:5d:db:bf:ec:18:6d:35:94:3d:7b:20:4b:
                    e7:70:a2:11:2d:f1:ac:31:6f:fc:52:f0:06:7e:fe:
                    de:a6:6d:5c:ff:0a:08:a3:d5:eb:7b:ae:09:b8:ce:
                    cd:41:50:d0:bf:9f:ae:ca:4d:2b:e5:fe:2d:c0:c0:
                    f3:44:eb:5a:00:46:d0:f4:92:70:10:dc:b4:d8:60:
                    2b:91:9f:b5:cc:ac:77:6b:ca:3a:44:9e:60:7d:bf:
                    b4:6c:7a:46:8c:b0:11:ab:54:52:19:84:04:59:83:
                    d9:9d:fd:76:08:82:64:73:9b:ce:e6:e1:7e:33:ef:
                    ed:64:3d:05:cb:51:ba:03:e0:2d:0c:56:7b:70:8c:
                    d4:c3:cc:ff:f7:58:d6:3f:39:1e:8d:9e:67:99:30:
                    d5:a7:05:02:70:8d:0c:54:4f:4e:fd:e3:89:76:61:
                    21:16:6b:51:f6:8a:f0:e5:f0:2a:dd:0e:e4:70:e7:
                    52:2b:30:cc:32:82:ec:51:b3:8d:46:fd:24:37:6e:
                    74:95:36:49:80:b0:ea:d4:bc:8e:a1:59:ed:0f:3a:
                    66:67:c8:32:6e:08:b2:0e:a0:d6:10:6c:eb:2e:cb:
                    a1:f9:5f:aa:27:73:e1:9f:bc:c2:98:bb:1d:97:4f:
                    8a:45:7f:d5:a4:1f:7e:4c:fe:db:ae:25:75:69:71:
                    bb:ce:d2:a3:d1:29:f9:a3:ed:33:c7:e2:c3:3c:47:
                    91:43:0a:0c:66:dd:57:05:64:cf:4a:ba:ec:61:b0:
                    29:99:77:ab:d5:ff:89:fe:69:3c:96:5a:a6:18:89:
                    b3:0c:25:3b:ab:7a:bf:1f:e1:8b:64:67:bb:94:2c:
                    43:e4:a7:f0:d9:3a:66:09:17:78:28:1f:07:0c:65:
                    9c:fc:f1:ab:4e:a1:61:91:7e:07:78:25:48:7c:f1:
                    c5:ea:e3:13:63:db:87:33:9e:41:84:6b:d2:4f:fd:
                    0f:67:88:09:3d:f3:68:d6:41:00:5e:4f:f1:e4:d3:
                    ec:b4:46:b2:ef:50:a3:87:34:8b
                Exponent: 65537 (0x10001)
        X509v3 extensions:
            X509v3 Authority Key Identifier: 
                keyid:B3:90:A7:D8:C9:AF:4E:CD:61:3C:9F:7C:AD:5D:7F:41:FD:69:30:EA

            X509v3 Subject Key Identifier: 
                54:27:64:9E:DE:45:13:69:13:18:87:0D:67:2F:B0:8D:82:29:91:DA
            X509v3 Key Usage: critical
                Digital Signature, Key Encipherment
            X509v3 Basic Constraints: critical
                CA:FALSE
            X509v3 Extended Key Usage: 
                TLS Web Server Authentication, TLS Web Client Authentication
            X509v3 Certificate Policies: 
                Policy: 1.3.6.1.4.1.6449.1.2.2.26
                  CPS: https://cps.usertrust.com
                Policy: 2.23.140.1.2.1

            X509v3 CRL Distribution Points: 

                Full Name:
                  URI:http://crl.usertrust.com/GandiStandardSSLCA2.crl

            Authority Information Access: 
                CA Issuers - URI:http://crt.usertrust.com/GandiStandardSSLCA2.crt
                OCSP - URI:http://ocsp.usertrust.com

            X509v3 Subject Alternative Name: 
                DNS:release.debian.org, DNS:www.release.debian.org
    Signature Algorithm: sha256WithRSAEncryption
         49:5c:b3:b3:20:a9:c4:f5:fe:e8:4f:7e:7a:d8:2d:1a:66:94:
         18:ae:d3:94:81:61:0d:b7:b5:55:a5:3f:30:d3:68:79:fd:4f:
         24:4d:15:5b:7f:42:20:86:37:ba:b2:f9:76:b2:9d:3d:ee:be:
         dc:53:c3:f0:32:fb:d9:70:fd:b7:4a:db:66:d7:66:0c:b5:c6:
         af:fe:1a:1b:ea:36:75:c8:cb:0e:8d:2c:b8:90:41:b8:6c:b1:
         70:7d:9d:5c:77:97:1c:9d:ed:3c:3b:89:0e:28:97:d1:9c:b5:
         fd:26:73:e1:29:0e:30:5f:a2:48:16:0d:53:48:e8:3b:c2:bb:
         fb:68:e5:f8:7b:29:b4:38:d2:72:7a:ac:24:a9:18:36:50:53:
         fc:10:42:7e:4a:6f:cd:83:ec:21:97:0b:0b:a8:ce:cc:41:13:
         37:5d:62:77:bd:fb:6f:79:43:12:f7:76:c1:09:f1:ac:25:4f:
         4d:d3:55:8f:3e:ef:4d:94:50:a4:91:d2:67:79:03:91:f3:5c:
         fa:bc:9f:82:4d:06:be:d8:79:ba:1a:24:61:d2:94:c4:69:d3:
         d5:ee:0c:86:18:c2:7e:c4:3a:0f:db:2a:51:7b:9c:38:94:8a:
         0b:b2:1b:a5:19:6e:00:3a:61:4b:93:aa:81:3f:3e:0d:da:a3:
         ad:e9:35:b8
-----BEGIN CERTIFICATE-----
MIIFhjCCBG6gAwIBAgIRAIxUkwQ8gnoeeErrPRg5QTAwDQYJKoZIhvcNAQELBQAw
XzELMAkGA1UEBhMCRlIxDjAMBgNVBAgTBVBhcmlzMQ4wDAYDVQQHEwVQYXJpczEO
MAwGA1UEChMFR2FuZGkxIDAeBgNVBAMTF0dhbmRpIFN0YW5kYXJkIFNTTCBDQSAy
MB4XDTE0MTIxNzAwMDAwMFoXDTE2MDEwMTIzNTk1OVowXTEhMB8GA1UECxMYRG9t
YWluIENvbnRyb2wgVmFsaWRhdGVkMRswGQYDVQQLExJHYW5kaSBTdGFuZGFyZCBT
U0wxGzAZBgNVBAMTEnJlbGVhc2UuZGViaWFuLm9yZzCCAaIwDQYJKoZIhvcNAQEB
BQADggGPADCCAYoCggGBANABXdu/7BhtNZQ9eyBL53CiES3xrDFv/FLwBn7+3qZt
XP8KCKPV63uuCbjOzUFQ0L+frspNK+X+LcDA80TrWgBG0PSScBDctNhgK5Gftcys
d2vKOkSeYH2/tGx6RoywEatUUhmEBFmD2Z39dgiCZHObzubhfjPv7WQ9BctRugPg
LQxWe3CM1MPM//dY1j85Ho2eZ5kw1acFAnCNDFRPTv3jiXZhIRZrUfaK8OXwKt0O
5HDnUiswzDKC7FGzjUb9JDdudJU2SYCw6tS8jqFZ7Q86ZmfIMm4Isg6g1hBs6y7L
oflfqidz4Z+8wpi7HZdPikV/1aQffkz+264ldWlxu87So9Ep+aPtM8fiwzxHkUMK
DGbdVwVkz0q67GGwKZl3q9X/if5pPJZaphiJswwlO6t6vx/hi2Rnu5QsQ+Sn8Nk6
ZgkXeCgfBwxlnPzxq06hYZF+B3glSHzxxerjE2PbhzOeQYRr0k/9D2eICT3zaNZB
AF5P8eTT7LRGsu9Qo4c0iwIDAQABo4IBvTCCAbkwHwYDVR0jBBgwFoAUs5Cn2Mmv
Ts1hPJ98rV1/Qf1pMOowHQYDVR0OBBYEFFQnZJ7eRRNpExiHDWcvsI2CKZHaMA4G
A1UdDwEB/wQEAwIFoDAMBgNVHRMBAf8EAjAAMB0GA1UdJQQWMBQGCCsGAQUFBwMB
BggrBgEFBQcDAjBLBgNVHSAERDBCMDYGCysGAQQBsjEBAgIaMCcwJQYIKwYBBQUH
AgEWGWh0dHBzOi8vY3BzLnVzZXJ0cnVzdC5jb20wCAYGZ4EMAQIBMEEGA1UdHwQ6
MDgwNqA0oDKGMGh0dHA6Ly9jcmwudXNlcnRydXN0LmNvbS9HYW5kaVN0YW5kYXJk
U1NMQ0EyLmNybDBzBggrBgEFBQcBAQRnMGUwPAYIKwYBBQUHMAKGMGh0dHA6Ly9j
cnQudXNlcnRydXN0LmNvbS9HYW5kaVN0YW5kYXJkU1NMQ0EyLmNydDAlBggrBgEF
BQcwAYYZaHR0cDovL29jc3AudXNlcnRydXN0LmNvbTA1BgNVHREELjAsghJyZWxl
YXNlLmRlYmlhbi5vcmeCFnd3dy5yZWxlYXNlLmRlYmlhbi5vcmcwDQYJKoZIhvcN
AQELBQADggEBAElcs7MgqcT1/uhPfnrYLRpmlBiu05SBYQ23tVWlPzDTaHn9TyRN
FVt/QiCGN7qy+XaynT3uvtxTw/Ay+9lw/bdK22bXZgy1xq/+GhvqNnXIyw6NLLiQ
QbhssXB9nVx3lxyd7Tw7iQ4ol9Gctf0mc+EpDjBfokgWDVNI6DvCu/to5fh7KbQ4
0nJ6rCSpGDZQU/wQQn5Kb82D7CGXCwuozsxBEzddYne9+295QxL3dsEJ8awlT03T
VY8+702UUKSR0md5A5HzXPq8n4JNBr7YeboaJGHSlMRp09XuDIYYwn7EOg/bKlF7
nDiUiguyG6UZbgA6YUuTqoE/Pg3ao63pNbg=
-----END CERTIFICATE-----
