Certificate:
    Data:
        Version: 3 (0x2)
        Serial Number:
            17:be:fa:45:c3:36:97:26:5f:00:d7:01:bb:be:ce:d4
    Signature Algorithm: sha1WithRSAEncryption
        Issuer: C=FR, O=GANDI SAS, CN=Gandi Standard SSL CA
        Validity
            Not Before: Dec 31 00:00:00 2013 GMT
            Not After : Dec 31 23:59:59 2014 GMT
        Subject: OU=Domain Control Validated, OU=Gandi Standard SSL, CN=rt.debian.org
        Subject Public Key Info:
            Public Key Algorithm: rsaEncryption
                Public-Key: (3072 bit)
                Modulus:
                    00:c6:af:a6:23:dc:3a:de:ff:c7:e0:54:0b:73:b9:
                    a4:75:e5:aa:ca:0f:60:69:f9:46:5d:89:5f:74:51:
                    0c:63:ea:9e:64:eb:35:94:9a:82:f4:11:64:48:4d:
                    db:3d:5f:2a:4a:32:0d:1f:01:e1:94:9e:db:26:8d:
                    4f:d0:2e:34:a3:b1:62:fa:e9:75:00:be:01:bc:9c:
                    e7:4e:1c:1f:9d:c3:40:43:f5:9d:bf:db:37:9f:b2:
                    ba:fb:1e:5e:3c:b1:4c:57:cd:8b:0c:6a:1b:b0:27:
                    a0:22:bf:a8:8a:8c:dc:25:10:e6:2e:4c:6c:65:fb:
                    f7:3b:35:9c:e2:6e:5f:3e:d9:00:0a:3a:7c:7d:10:
                    4d:0e:0b:b7:4d:5c:b3:84:df:8d:c6:a3:84:2c:86:
                    dc:cb:6a:68:90:5a:16:53:73:79:eb:df:eb:97:b9:
                    c9:de:fc:5a:81:0a:64:7c:ee:07:93:1f:13:48:90:
                    0d:d0:fd:3d:25:ba:f2:b7:92:11:fa:67:71:f9:9e:
                    f6:8d:ce:53:da:ad:d7:16:fe:3b:ff:9e:71:7e:f0:
                    64:17:e6:33:50:22:b5:37:40:26:0f:39:bb:c5:28:
                    d8:3c:dc:55:0e:56:a7:6c:bf:a7:c3:db:47:1f:d9:
                    c0:01:a1:f7:c6:e6:ba:64:ea:ce:5d:9c:ea:1a:e2:
                    06:33:2c:19:36:a3:a0:43:e5:0a:2e:70:39:31:d4:
                    1d:68:16:64:6d:a7:e8:28:79:65:9b:4f:64:79:43:
                    60:69:2c:86:54:9e:fb:a9:48:78:57:ae:1c:0e:75:
                    50:c6:00:48:50:4d:c1:fb:b3:a1:31:1c:c4:73:f8:
                    ba:cf:2a:a5:ee:d4:35:d7:8f:a6:fe:6f:84:0f:e8:
                    b4:e9:b0:41:79:cd:e4:85:3b:fb:86:01:8b:dc:74:
                    39:f8:30:d5:30:21:00:f2:cb:80:70:20:0e:04:4c:
                    fe:bd:a2:64:8b:e7:9f:d3:81:5a:dc:ef:09:8c:4f:
                    71:1b:75:55:a1:4f:c5:6e:32:8f
                Exponent: 65537 (0x10001)
        X509v3 extensions:
            X509v3 Authority Key Identifier: 
                keyid:B6:A8:FF:A2:A8:2F:D0:A6:CD:4B:B1:68:F3:E7:50:10:31:A7:79:21

            X509v3 Subject Key Identifier: 
                5A:6A:1D:2C:6A:A5:A4:E9:08:71:54:FC:67:53:FC:5F:12:DA:04:0B
            X509v3 Key Usage: critical
                Digital Signature, Key Encipherment
            X509v3 Basic Constraints: critical
                CA:FALSE
            X509v3 Extended Key Usage: 
                TLS Web Server Authentication, TLS Web Client Authentication
            X509v3 Certificate Policies: 
                Policy: 1.3.6.1.4.1.6449.1.2.2.26
                  CPS: http://www.gandi.net/contracts/fr/ssl/cps/pdf/
                Policy: 2.23.140.1.2.1

            X509v3 CRL Distribution Points: 

                Full Name:
                  URI:http://crl.gandi.net/GandiStandardSSLCA.crl

            Authority Information Access: 
                CA Issuers - URI:http://crt.gandi.net/GandiStandardSSLCA.crt
                OCSP - URI:http://ocsp.gandi.net

            X509v3 Subject Alternative Name: 
                DNS:rt.debian.org, DNS:www.rt.debian.org
    Signature Algorithm: sha1WithRSAEncryption
         16:f3:16:5e:4b:8e:4a:14:d1:06:f8:c1:bd:71:49:c0:ae:b4:
         79:e9:49:0a:aa:a8:76:45:64:f7:02:d5:51:66:0f:23:c4:ad:
         31:4a:26:1d:17:90:30:7d:a4:06:36:e9:a2:45:52:4d:e9:1a:
         c4:c8:3e:02:81:5f:e5:03:08:76:03:4d:33:5b:ec:cc:7f:5a:
         b5:fb:d7:bc:35:61:89:ff:5f:f9:c2:5a:f4:e8:2d:4c:86:d0:
         05:66:43:ca:9a:e6:57:cb:09:62:1f:00:cd:76:13:8c:0b:38:
         f2:6b:37:b2:4c:07:47:50:38:7c:90:80:e7:27:fe:bd:9d:ec:
         cb:59:ff:bf:30:86:19:13:34:f3:36:da:d5:d4:4a:3b:db:28:
         ad:19:53:8b:7f:a8:6f:c9:66:1b:e7:0d:a7:41:d0:1a:7d:47:
         18:dd:1f:81:71:4d:bc:3d:11:94:73:26:60:e5:c9:5c:e6:89:
         a0:a6:0e:f5:7e:69:ae:b9:cc:de:e6:4e:3e:4c:b5:94:b9:9a:
         32:44:15:8f:51:1c:87:86:e4:06:d0:df:e5:e9:d0:b7:67:fc:
         af:3c:53:99:ef:1b:3e:d3:77:c2:e7:45:ff:78:90:ff:7a:be:
         ff:9e:89:9e:36:34:aa:a9:d4:8a:2e:1f:c5:78:0c:8b:97:de:
         dd:92:de:56
-----BEGIN CERTIFICATE-----
MIIFXzCCBEegAwIBAgIQF776RcM2lyZfANcBu77O1DANBgkqhkiG9w0BAQUFADBB
MQswCQYDVQQGEwJGUjESMBAGA1UEChMJR0FOREkgU0FTMR4wHAYDVQQDExVHYW5k
aSBTdGFuZGFyZCBTU0wgQ0EwHhcNMTMxMjMxMDAwMDAwWhcNMTQxMjMxMjM1OTU5
WjBYMSEwHwYDVQQLExhEb21haW4gQ29udHJvbCBWYWxpZGF0ZWQxGzAZBgNVBAsT
EkdhbmRpIFN0YW5kYXJkIFNTTDEWMBQGA1UEAxMNcnQuZGViaWFuLm9yZzCCAaIw
DQYJKoZIhvcNAQEBBQADggGPADCCAYoCggGBAMavpiPcOt7/x+BUC3O5pHXlqsoP
YGn5Rl2JX3RRDGPqnmTrNZSagvQRZEhN2z1fKkoyDR8B4ZSe2yaNT9AuNKOxYvrp
dQC+Abyc504cH53DQEP1nb/bN5+yuvseXjyxTFfNiwxqG7AnoCK/qIqM3CUQ5i5M
bGX79zs1nOJuXz7ZAAo6fH0QTQ4Lt01cs4TfjcajhCyG3MtqaJBaFlNzeevf65e5
yd78WoEKZHzuB5MfE0iQDdD9PSW68reSEfpncfme9o3OU9qt1xb+O/+ecX7wZBfm
M1AitTdAJg85u8Uo2DzcVQ5Wp2y/p8PbRx/ZwAGh98bmumTqzl2c6hriBjMsGTaj
oEPlCi5wOTHUHWgWZG2n6Ch5ZZtPZHlDYGkshlSe+6lIeFeuHA51UMYASFBNwfuz
oTEcxHP4us8qpe7UNdePpv5vhA/otOmwQXnN5IU7+4YBi9x0Ofgw1TAhAPLLgHAg
DgRM/r2iZIvnn9OBWtzvCYxPcRt1VaFPxW4yjwIDAQABo4IBujCCAbYwHwYDVR0j
BBgwFoAUtqj/oqgv0KbNS7Fo8+dQEDGneSEwHQYDVR0OBBYEFFpqHSxqpaTpCHFU
/GdT/F8S2gQLMA4GA1UdDwEB/wQEAwIFoDAMBgNVHRMBAf8EAjAAMB0GA1UdJQQW
MBQGCCsGAQUFBwMBBggrBgEFBQcDAjBgBgNVHSAEWTBXMEsGCysGAQQBsjEBAgIa
MDwwOgYIKwYBBQUHAgEWLmh0dHA6Ly93d3cuZ2FuZGkubmV0L2NvbnRyYWN0cy9m
ci9zc2wvY3BzL3BkZi8wCAYGZ4EMAQIBMDwGA1UdHwQ1MDMwMaAvoC2GK2h0dHA6
Ly9jcmwuZ2FuZGkubmV0L0dhbmRpU3RhbmRhcmRTU0xDQS5jcmwwagYIKwYBBQUH
AQEEXjBcMDcGCCsGAQUFBzAChitodHRwOi8vY3J0LmdhbmRpLm5ldC9HYW5kaVN0
YW5kYXJkU1NMQ0EuY3J0MCEGCCsGAQUFBzABhhVodHRwOi8vb2NzcC5nYW5kaS5u
ZXQwKwYDVR0RBCQwIoINcnQuZGViaWFuLm9yZ4IRd3d3LnJ0LmRlYmlhbi5vcmcw
DQYJKoZIhvcNAQEFBQADggEBABbzFl5LjkoU0Qb4wb1xScCutHnpSQqqqHZFZPcC
1VFmDyPErTFKJh0XkDB9pAY26aJFUk3pGsTIPgKBX+UDCHYDTTNb7Mx/WrX717w1
YYn/X/nCWvToLUyG0AVmQ8qa5lfLCWIfAM12E4wLOPJrN7JMB0dQOHyQgOcn/r2d
7MtZ/78whhkTNPM22tXUSjvbKK0ZU4t/qG/JZhvnDadB0Bp9RxjdH4FxTbw9EZRz
JmDlyVzmiaCmDvV+aa65zN7mTj5MtZS5mjJEFY9RHIeG5AbQ3+Xp0Ldn/K88U5nv
Gz7Td8LnRf94kP96vv+eiZ42NKqp1IouH8V4DIuX3t2S3lY=
-----END CERTIFICATE-----
