Certificate:
    Data:
        Version: 3 (0x2)
        Serial Number:
            fc:66:03:f3:aa:22:a2:4f:25:df:1a:46:7c:91:0d:41
    Signature Algorithm: sha256WithRSAEncryption
        Issuer: C=FR, ST=Paris, L=Paris, O=Gandi, CN=Gandi Standard SSL CA 2
        Validity
            Not Before: Dec 17 00:00:00 2014 GMT
            Not After : Dec 31 23:59:59 2015 GMT
        Subject: OU=Domain Control Validated, OU=Gandi Standard SSL, CN=rt.debian.org
        Subject Public Key Info:
            Public Key Algorithm: rsaEncryption
                Public-Key: (3072 bit)
                Modulus:
                    00:c6:af:a6:23:dc:3a:de:ff:c7:e0:54:0b:73:b9:
                    a4:75:e5:aa:ca:0f:60:69:f9:46:5d:89:5f:74:51:
                    0c:63:ea:9e:64:eb:35:94:9a:82:f4:11:64:48:4d:
                    db:3d:5f:2a:4a:32:0d:1f:01:e1:94:9e:db:26:8d:
                    4f:d0:2e:34:a3:b1:62:fa:e9:75:00:be:01:bc:9c:
                    e7:4e:1c:1f:9d:c3:40:43:f5:9d:bf:db:37:9f:b2:
                    ba:fb:1e:5e:3c:b1:4c:57:cd:8b:0c:6a:1b:b0:27:
                    a0:22:bf:a8:8a:8c:dc:25:10:e6:2e:4c:6c:65:fb:
                    f7:3b:35:9c:e2:6e:5f:3e:d9:00:0a:3a:7c:7d:10:
                    4d:0e:0b:b7:4d:5c:b3:84:df:8d:c6:a3:84:2c:86:
                    dc:cb:6a:68:90:5a:16:53:73:79:eb:df:eb:97:b9:
                    c9:de:fc:5a:81:0a:64:7c:ee:07:93:1f:13:48:90:
                    0d:d0:fd:3d:25:ba:f2:b7:92:11:fa:67:71:f9:9e:
                    f6:8d:ce:53:da:ad:d7:16:fe:3b:ff:9e:71:7e:f0:
                    64:17:e6:33:50:22:b5:37:40:26:0f:39:bb:c5:28:
                    d8:3c:dc:55:0e:56:a7:6c:bf:a7:c3:db:47:1f:d9:
                    c0:01:a1:f7:c6:e6:ba:64:ea:ce:5d:9c:ea:1a:e2:
                    06:33:2c:19:36:a3:a0:43:e5:0a:2e:70:39:31:d4:
                    1d:68:16:64:6d:a7:e8:28:79:65:9b:4f:64:79:43:
                    60:69:2c:86:54:9e:fb:a9:48:78:57:ae:1c:0e:75:
                    50:c6:00:48:50:4d:c1:fb:b3:a1:31:1c:c4:73:f8:
                    ba:cf:2a:a5:ee:d4:35:d7:8f:a6:fe:6f:84:0f:e8:
                    b4:e9:b0:41:79:cd:e4:85:3b:fb:86:01:8b:dc:74:
                    39:f8:30:d5:30:21:00:f2:cb:80:70:20:0e:04:4c:
                    fe:bd:a2:64:8b:e7:9f:d3:81:5a:dc:ef:09:8c:4f:
                    71:1b:75:55:a1:4f:c5:6e:32:8f
                Exponent: 65537 (0x10001)
        X509v3 extensions:
            X509v3 Authority Key Identifier: 
                keyid:B3:90:A7:D8:C9:AF:4E:CD:61:3C:9F:7C:AD:5D:7F:41:FD:69:30:EA

            X509v3 Subject Key Identifier: 
                5A:6A:1D:2C:6A:A5:A4:E9:08:71:54:FC:67:53:FC:5F:12:DA:04:0B
            X509v3 Key Usage: critical
                Digital Signature, Key Encipherment
            X509v3 Basic Constraints: critical
                CA:FALSE
            X509v3 Extended Key Usage: 
                TLS Web Server Authentication, TLS Web Client Authentication
            X509v3 Certificate Policies: 
                Policy: 1.3.6.1.4.1.6449.1.2.2.26
                  CPS: https://cps.usertrust.com
                Policy: 2.23.140.1.2.1

            X509v3 CRL Distribution Points: 

                Full Name:
                  URI:http://crl.usertrust.com/GandiStandardSSLCA2.crl

            Authority Information Access: 
                CA Issuers - URI:http://crt.usertrust.com/GandiStandardSSLCA2.crt
                OCSP - URI:http://ocsp.usertrust.com

            X509v3 Subject Alternative Name: 
                DNS:rt.debian.org, DNS:www.rt.debian.org
    Signature Algorithm: sha256WithRSAEncryption
         57:9b:8e:92:0c:d4:5f:b4:5c:bc:2b:d9:7f:44:35:85:08:2a:
         66:a7:5e:23:59:f1:c5:35:dd:95:ce:d3:3f:a0:41:8b:0d:8a:
         62:b1:34:1a:59:ae:d2:ae:97:cb:be:b9:ab:7b:c8:9a:62:f1:
         4f:47:30:be:d3:3d:4f:ea:b1:b3:e2:18:ef:22:f1:57:0b:71:
         ce:eb:36:8f:ac:86:b7:74:08:27:e0:fd:3a:ad:c5:c5:f7:0d:
         81:77:ee:23:7a:67:b2:31:63:1f:c9:3e:16:e0:60:b3:14:26:
         c7:0f:64:6b:57:e2:31:4a:64:80:6b:65:c5:01:bc:21:cb:95:
         cc:1c:df:83:3f:71:1d:ad:00:b2:a2:ee:a4:68:3e:c2:bd:61:
         8c:63:06:1a:25:17:5e:f2:64:67:cc:53:ae:a1:8a:b4:d1:95:
         d8:ba:50:d7:9e:b4:08:4c:b2:34:3d:d8:e1:a8:2b:e7:c4:0e:
         18:8f:71:a7:1f:ac:b6:83:12:86:1d:8c:14:87:69:a4:69:0d:
         c3:77:22:5c:ed:f4:3a:ff:20:7d:eb:85:88:b2:70:1c:75:8c:
         c3:5b:b4:1f:f2:80:66:ce:1e:b7:51:c8:5d:c4:ae:5a:eb:2e:
         81:12:64:a3:54:3d:7e:6d:7c:c4:3a:bc:46:ef:1c:7f:74:73:
         2c:d4:16:3e
-----BEGIN CERTIFICATE-----
MIIFdzCCBF+gAwIBAgIRAPxmA/OqIqJPJd8aRnyRDUEwDQYJKoZIhvcNAQELBQAw
XzELMAkGA1UEBhMCRlIxDjAMBgNVBAgTBVBhcmlzMQ4wDAYDVQQHEwVQYXJpczEO
MAwGA1UEChMFR2FuZGkxIDAeBgNVBAMTF0dhbmRpIFN0YW5kYXJkIFNTTCBDQSAy
MB4XDTE0MTIxNzAwMDAwMFoXDTE1MTIzMTIzNTk1OVowWDEhMB8GA1UECxMYRG9t
YWluIENvbnRyb2wgVmFsaWRhdGVkMRswGQYDVQQLExJHYW5kaSBTdGFuZGFyZCBT
U0wxFjAUBgNVBAMTDXJ0LmRlYmlhbi5vcmcwggGiMA0GCSqGSIb3DQEBAQUAA4IB
jwAwggGKAoIBgQDGr6Yj3Dre/8fgVAtzuaR15arKD2Bp+UZdiV90UQxj6p5k6zWU
moL0EWRITds9XypKMg0fAeGUntsmjU/QLjSjsWL66XUAvgG8nOdOHB+dw0BD9Z2/
2zefsrr7Hl48sUxXzYsMahuwJ6Aiv6iKjNwlEOYuTGxl+/c7NZzibl8+2QAKOnx9
EE0OC7dNXLOE343Go4QshtzLamiQWhZTc3nr3+uXucne/FqBCmR87geTHxNIkA3Q
/T0luvK3khH6Z3H5nvaNzlPardcW/jv/nnF+8GQX5jNQIrU3QCYPObvFKNg83FUO
Vqdsv6fD20cf2cABoffG5rpk6s5dnOoa4gYzLBk2o6BD5QoucDkx1B1oFmRtp+go
eWWbT2R5Q2BpLIZUnvupSHhXrhwOdVDGAEhQTcH7s6ExHMRz+LrPKqXu1DXXj6b+
b4QP6LTpsEF5zeSFO/uGAYvcdDn4MNUwIQDyy4BwIA4ETP69omSL55/TgVrc7wmM
T3EbdVWhT8VuMo8CAwEAAaOCAbMwggGvMB8GA1UdIwQYMBaAFLOQp9jJr07NYTyf
fK1df0H9aTDqMB0GA1UdDgQWBBRaah0saqWk6QhxVPxnU/xfEtoECzAOBgNVHQ8B
Af8EBAMCBaAwDAYDVR0TAQH/BAIwADAdBgNVHSUEFjAUBggrBgEFBQcDAQYIKwYB
BQUHAwIwSwYDVR0gBEQwQjA2BgsrBgEEAbIxAQICGjAnMCUGCCsGAQUFBwIBFhlo
dHRwczovL2Nwcy51c2VydHJ1c3QuY29tMAgGBmeBDAECATBBBgNVHR8EOjA4MDag
NKAyhjBodHRwOi8vY3JsLnVzZXJ0cnVzdC5jb20vR2FuZGlTdGFuZGFyZFNTTENB
Mi5jcmwwcwYIKwYBBQUHAQEEZzBlMDwGCCsGAQUFBzAChjBodHRwOi8vY3J0LnVz
ZXJ0cnVzdC5jb20vR2FuZGlTdGFuZGFyZFNTTENBMi5jcnQwJQYIKwYBBQUHMAGG
GWh0dHA6Ly9vY3NwLnVzZXJ0cnVzdC5jb20wKwYDVR0RBCQwIoINcnQuZGViaWFu
Lm9yZ4IRd3d3LnJ0LmRlYmlhbi5vcmcwDQYJKoZIhvcNAQELBQADggEBAFebjpIM
1F+0XLwr2X9ENYUIKmanXiNZ8cU13ZXO0z+gQYsNimKxNBpZrtKul8u+uat7yJpi
8U9HML7TPU/qsbPiGO8i8VcLcc7rNo+shrd0CCfg/TqtxcX3DYF37iN6Z7IxYx/J
PhbgYLMUJscPZGtX4jFKZIBrZcUBvCHLlcwc34M/cR2tALKi7qRoPsK9YYxjBhol
F17yZGfMU66hirTRldi6UNeetAhMsjQ92OGoK+fEDhiPcacfrLaDEoYdjBSHaaRp
DcN3Ilzt9Dr/IH3rhYiycBx1jMNbtB/ygGbOHrdRyF3ErlrrLoESZKNUPX5tfMQ6
vEbvHH90cyzUFj4=
-----END CERTIFICATE-----
