Certificate:
    Data:
        Version: 3 (0x2)
        Serial Number:
            c3:38:42:a9:44:22:40:62:41:72:8c:4f:ae:15:a2:eb
    Signature Algorithm: sha256WithRSAEncryption
        Issuer: C=FR, ST=Paris, L=Paris, O=Gandi, CN=Gandi Standard SSL CA 2
        Validity
            Not Before: Dec 20 00:00:00 2014 GMT
            Not After : Jan 17 23:59:59 2016 GMT
        Subject: OU=Domain Control Validated, OU=Gandi Standard SSL, CN=rtc.debian.org
        Subject Public Key Info:
            Public Key Algorithm: rsaEncryption
                Public-Key: (3072 bit)
                Modulus:
                    00:d7:a6:30:7f:fe:e4:65:ed:51:78:e2:2a:0c:a2:
                    ce:ea:b0:76:68:1b:88:17:b4:6b:50:91:9b:2a:21:
                    e3:40:9c:1b:de:60:27:ff:29:80:d2:47:fb:d7:ae:
                    6b:1f:0a:88:1f:62:bb:d9:9a:d6:97:05:f5:42:d1:
                    19:e7:7d:2c:2c:e2:e2:d5:da:c3:a1:81:49:bc:a4:
                    41:e5:24:03:1b:ff:93:66:26:97:77:b9:36:fd:27:
                    a0:e2:52:f6:a6:64:fb:95:9a:a8:63:a6:6b:45:b6:
                    64:9c:04:e6:64:71:8f:b2:ae:bb:72:a1:92:70:7d:
                    b3:78:25:05:67:52:9c:a9:93:53:40:e9:6b:ef:63:
                    49:df:e2:18:7b:64:a3:c8:f7:a7:10:cb:c6:30:2e:
                    aa:68:3a:ec:94:61:ba:09:3b:1b:6f:a7:8e:f9:6b:
                    4a:b6:99:53:f3:9d:92:54:4d:f9:2b:df:47:43:f7:
                    c6:54:3a:39:b2:b9:7f:2e:3d:cf:49:c9:90:0a:38:
                    09:23:14:a4:4c:03:06:c0:cc:9a:58:6e:eb:50:c3:
                    b1:c0:99:8c:69:fd:34:37:34:fa:fd:e0:87:6e:9b:
                    1f:38:54:49:af:0b:59:33:e8:23:13:2a:c8:b1:d9:
                    5a:a6:78:9d:80:0e:49:2a:9b:d3:59:7e:30:9a:6b:
                    69:41:81:34:3b:0c:c4:0b:f2:77:66:fb:89:d8:41:
                    99:bc:67:88:67:64:1b:2d:79:e0:d3:3d:d3:e0:0c:
                    7e:4b:b0:81:77:5d:46:47:f7:52:17:ea:30:47:bc:
                    59:e8:f0:73:98:aa:d5:60:42:c6:11:cc:4d:6b:a9:
                    94:bf:0c:47:c8:61:9c:d2:36:0c:a2:0d:0e:9d:58:
                    8c:89:c5:b2:fc:cc:64:fc:fb:10:26:04:87:ee:80:
                    57:bb:94:2e:01:37:56:27:48:4e:e0:23:15:20:7f:
                    8c:06:06:f6:ea:e8:94:a8:66:de:25:6c:9a:08:7f:
                    7b:7c:eb:d5:bd:dc:b4:79:3a:89
                Exponent: 65537 (0x10001)
        X509v3 extensions:
            X509v3 Authority Key Identifier: 
                keyid:B3:90:A7:D8:C9:AF:4E:CD:61:3C:9F:7C:AD:5D:7F:41:FD:69:30:EA

            X509v3 Subject Key Identifier: 
                9C:DA:DE:21:0D:57:97:60:40:42:7A:9A:25:12:29:F7:D5:16:DC:54
            X509v3 Key Usage: critical
                Digital Signature, Key Encipherment
            X509v3 Basic Constraints: critical
                CA:FALSE
            X509v3 Extended Key Usage: 
                TLS Web Server Authentication, TLS Web Client Authentication
            X509v3 Certificate Policies: 
                Policy: 1.3.6.1.4.1.6449.1.2.2.26
                  CPS: https://cps.usertrust.com
                Policy: 2.23.140.1.2.1

            X509v3 CRL Distribution Points: 

                Full Name:
                  URI:http://crl.usertrust.com/GandiStandardSSLCA2.crl

            Authority Information Access: 
                CA Issuers - URI:http://crt.usertrust.com/GandiStandardSSLCA2.crt
                OCSP - URI:http://ocsp.usertrust.com

            X509v3 Subject Alternative Name: 
                DNS:rtc.debian.org, DNS:www.rtc.debian.org
    Signature Algorithm: sha256WithRSAEncryption
         6e:73:cb:b4:e8:99:b2:0d:85:9c:21:19:ad:31:e4:33:c8:65:
         7f:22:ca:54:e9:d6:db:07:3c:98:97:51:53:18:bf:69:73:99:
         6f:48:44:fa:5f:db:7d:d6:44:41:10:28:c8:18:d2:23:64:6a:
         5b:ae:75:72:50:7b:06:5d:b8:42:df:4c:2c:f3:05:73:7a:eb:
         ea:45:52:13:84:b9:55:6c:68:7f:37:54:b6:86:c9:0e:e0:05:
         99:a7:ea:11:ff:48:cb:88:0d:1e:4e:b6:f2:61:c1:d8:85:a4:
         43:d8:cb:c9:9c:14:c0:cd:3d:25:9d:f8:7b:5a:71:c3:5c:fa:
         5e:db:27:c3:a6:8a:1e:17:7e:d0:6e:32:8a:73:b5:ea:a4:41:
         0d:24:2f:f7:0e:a4:a5:7c:0b:72:43:ca:30:4f:9d:8e:52:e2:
         3b:86:0d:d9:3c:eb:32:0e:ba:0f:8d:d7:6f:65:d4:39:dd:10:
         69:cc:aa:8d:ce:32:20:78:88:e2:cc:18:0d:7f:fd:2c:8b:37:
         31:28:52:84:87:c3:25:b2:96:af:ef:93:33:f7:73:65:5e:9c:
         85:9e:14:5e:9d:a0:37:4c:ef:df:c3:f2:2d:84:5e:a9:35:14:
         46:cc:f1:fd:d2:da:fa:49:f0:d6:03:d1:fa:58:78:87:13:5e:
         eb:7b:73:c9
-----BEGIN CERTIFICATE-----
MIIFejCCBGKgAwIBAgIRAMM4QqlEIkBiQXKMT64VouswDQYJKoZIhvcNAQELBQAw
XzELMAkGA1UEBhMCRlIxDjAMBgNVBAgTBVBhcmlzMQ4wDAYDVQQHEwVQYXJpczEO
MAwGA1UEChMFR2FuZGkxIDAeBgNVBAMTF0dhbmRpIFN0YW5kYXJkIFNTTCBDQSAy
MB4XDTE0MTIyMDAwMDAwMFoXDTE2MDExNzIzNTk1OVowWTEhMB8GA1UECxMYRG9t
YWluIENvbnRyb2wgVmFsaWRhdGVkMRswGQYDVQQLExJHYW5kaSBTdGFuZGFyZCBT
U0wxFzAVBgNVBAMTDnJ0Yy5kZWJpYW4ub3JnMIIBojANBgkqhkiG9w0BAQEFAAOC
AY8AMIIBigKCAYEA16Ywf/7kZe1ReOIqDKLO6rB2aBuIF7RrUJGbKiHjQJwb3mAn
/ymA0kf7165rHwqIH2K72ZrWlwX1QtEZ530sLOLi1drDoYFJvKRB5SQDG/+TZiaX
d7k2/Seg4lL2pmT7lZqoY6ZrRbZknATmZHGPsq67cqGScH2zeCUFZ1KcqZNTQOlr
72NJ3+IYe2SjyPenEMvGMC6qaDrslGG6CTsbb6eO+WtKtplT852SVE35K99HQ/fG
VDo5srl/Lj3PScmQCjgJIxSkTAMGwMyaWG7rUMOxwJmMaf00NzT6/eCHbpsfOFRJ
rwtZM+gjEyrIsdlapnidgA5JKpvTWX4wmmtpQYE0OwzEC/J3ZvuJ2EGZvGeIZ2Qb
LXng0z3T4Ax+S7CBd11GR/dSF+owR7xZ6PBzmKrVYELGEcxNa6mUvwxHyGGc0jYM
og0OnViMicWy/Mxk/PsQJgSH7oBXu5QuATdWJ0hO4CMVIH+MBgb26uiUqGbeJWya
CH97fOvVvdy0eTqJAgMBAAGjggG1MIIBsTAfBgNVHSMEGDAWgBSzkKfYya9OzWE8
n3ytXX9B/Wkw6jAdBgNVHQ4EFgQUnNreIQ1Xl2BAQnqaJRIp99UW3FQwDgYDVR0P
AQH/BAQDAgWgMAwGA1UdEwEB/wQCMAAwHQYDVR0lBBYwFAYIKwYBBQUHAwEGCCsG
AQUFBwMCMEsGA1UdIAREMEIwNgYLKwYBBAGyMQECAhowJzAlBggrBgEFBQcCARYZ
aHR0cHM6Ly9jcHMudXNlcnRydXN0LmNvbTAIBgZngQwBAgEwQQYDVR0fBDowODA2
oDSgMoYwaHR0cDovL2NybC51c2VydHJ1c3QuY29tL0dhbmRpU3RhbmRhcmRTU0xD
QTIuY3JsMHMGCCsGAQUFBwEBBGcwZTA8BggrBgEFBQcwAoYwaHR0cDovL2NydC51
c2VydHJ1c3QuY29tL0dhbmRpU3RhbmRhcmRTU0xDQTIuY3J0MCUGCCsGAQUFBzAB
hhlodHRwOi8vb2NzcC51c2VydHJ1c3QuY29tMC0GA1UdEQQmMCSCDnJ0Yy5kZWJp
YW4ub3JnghJ3d3cucnRjLmRlYmlhbi5vcmcwDQYJKoZIhvcNAQELBQADggEBAG5z
y7TombINhZwhGa0x5DPIZX8iylTp1tsHPJiXUVMYv2lzmW9IRPpf233WREEQKMgY
0iNkaluudXJQewZduELfTCzzBXN66+pFUhOEuVVsaH83VLaGyQ7gBZmn6hH/SMuI
DR5OtvJhwdiFpEPYy8mcFMDNPSWd+HtaccNc+l7bJ8Omih4XftBuMopzteqkQQ0k
L/cOpKV8C3JDyjBPnY5S4juGDdk86zIOug+N129l1DndEGnMqo3OMiB4iOLMGA1/
/SyLNzEoUoSHwyWylq/vkzP3c2VenIWeFF6doDdM79/D8i2EXqk1FEbM8f3S2vpJ
8NYD0fpYeIcTXut7c8k=
-----END CERTIFICATE-----
