Certificate:
    Data:
        Version: 3 (0x2)
        Serial Number:
            73:93:e4:98:41:f8:ad:f6:c7:e6:80:78:3d:28:fc:86
    Signature Algorithm: sha256WithRSAEncryption
        Issuer: C=FR, ST=Paris, L=Paris, O=Gandi, CN=Gandi Standard SSL CA 2
        Validity
            Not Before: Dec 11 00:00:00 2015 GMT
            Not After : Feb 23 23:59:59 2017 GMT
        Subject: OU=Domain Control Validated, OU=Gandi Standard SSL, CN=rtc.debian.org
        Subject Public Key Info:
            Public Key Algorithm: rsaEncryption
                Public-Key: (3072 bit)
                Modulus:
                    00:d7:a6:30:7f:fe:e4:65:ed:51:78:e2:2a:0c:a2:
                    ce:ea:b0:76:68:1b:88:17:b4:6b:50:91:9b:2a:21:
                    e3:40:9c:1b:de:60:27:ff:29:80:d2:47:fb:d7:ae:
                    6b:1f:0a:88:1f:62:bb:d9:9a:d6:97:05:f5:42:d1:
                    19:e7:7d:2c:2c:e2:e2:d5:da:c3:a1:81:49:bc:a4:
                    41:e5:24:03:1b:ff:93:66:26:97:77:b9:36:fd:27:
                    a0:e2:52:f6:a6:64:fb:95:9a:a8:63:a6:6b:45:b6:
                    64:9c:04:e6:64:71:8f:b2:ae:bb:72:a1:92:70:7d:
                    b3:78:25:05:67:52:9c:a9:93:53:40:e9:6b:ef:63:
                    49:df:e2:18:7b:64:a3:c8:f7:a7:10:cb:c6:30:2e:
                    aa:68:3a:ec:94:61:ba:09:3b:1b:6f:a7:8e:f9:6b:
                    4a:b6:99:53:f3:9d:92:54:4d:f9:2b:df:47:43:f7:
                    c6:54:3a:39:b2:b9:7f:2e:3d:cf:49:c9:90:0a:38:
                    09:23:14:a4:4c:03:06:c0:cc:9a:58:6e:eb:50:c3:
                    b1:c0:99:8c:69:fd:34:37:34:fa:fd:e0:87:6e:9b:
                    1f:38:54:49:af:0b:59:33:e8:23:13:2a:c8:b1:d9:
                    5a:a6:78:9d:80:0e:49:2a:9b:d3:59:7e:30:9a:6b:
                    69:41:81:34:3b:0c:c4:0b:f2:77:66:fb:89:d8:41:
                    99:bc:67:88:67:64:1b:2d:79:e0:d3:3d:d3:e0:0c:
                    7e:4b:b0:81:77:5d:46:47:f7:52:17:ea:30:47:bc:
                    59:e8:f0:73:98:aa:d5:60:42:c6:11:cc:4d:6b:a9:
                    94:bf:0c:47:c8:61:9c:d2:36:0c:a2:0d:0e:9d:58:
                    8c:89:c5:b2:fc:cc:64:fc:fb:10:26:04:87:ee:80:
                    57:bb:94:2e:01:37:56:27:48:4e:e0:23:15:20:7f:
                    8c:06:06:f6:ea:e8:94:a8:66:de:25:6c:9a:08:7f:
                    7b:7c:eb:d5:bd:dc:b4:79:3a:89
                Exponent: 65537 (0x10001)
        X509v3 extensions:
            X509v3 Authority Key Identifier: 
                keyid:B3:90:A7:D8:C9:AF:4E:CD:61:3C:9F:7C:AD:5D:7F:41:FD:69:30:EA

            X509v3 Subject Key Identifier: 
                9C:DA:DE:21:0D:57:97:60:40:42:7A:9A:25:12:29:F7:D5:16:DC:54
            X509v3 Key Usage: critical
                Digital Signature, Key Encipherment
            X509v3 Basic Constraints: critical
                CA:FALSE
            X509v3 Extended Key Usage: 
                TLS Web Server Authentication, TLS Web Client Authentication
            X509v3 Certificate Policies: 
                Policy: 1.3.6.1.4.1.6449.1.2.2.26
                  CPS: https://cps.usertrust.com
                Policy: 2.23.140.1.2.1

            X509v3 CRL Distribution Points: 

                Full Name:
                  URI:http://crl.usertrust.com/GandiStandardSSLCA2.crl

            Authority Information Access: 
                CA Issuers - URI:http://crt.usertrust.com/GandiStandardSSLCA2.crt
                OCSP - URI:http://ocsp.usertrust.com

            X509v3 Subject Alternative Name: 
                DNS:rtc.debian.org, DNS:www.rtc.debian.org
    Signature Algorithm: sha256WithRSAEncryption
         77:93:2a:bc:65:99:e7:e6:40:b0:52:c3:13:ca:65:e1:c9:f4:
         3d:c1:dd:d5:c5:52:18:b4:9a:51:eb:92:a2:20:81:5b:88:a6:
         94:df:9a:a3:29:0c:92:f9:32:f4:fb:e7:e9:db:db:53:0e:c4:
         be:a1:e7:d9:1b:f2:78:80:bd:bc:62:39:9e:f1:e6:f9:89:b9:
         05:b6:0d:ab:00:3e:bb:26:88:c6:99:5f:84:b4:ae:19:4c:b2:
         13:92:28:4f:c4:ed:12:b9:5a:81:19:c3:50:e7:a0:ec:34:ca:
         78:17:38:f5:84:c9:d5:60:1f:f9:e3:2a:48:22:45:84:36:4a:
         6e:f1:48:92:db:48:e8:b4:49:5e:c6:10:fb:57:9d:56:39:9e:
         ea:73:05:08:b9:98:9e:74:08:e4:5c:d8:33:ec:06:5e:01:fc:
         5b:62:44:3f:12:53:da:2e:e4:61:57:23:a2:54:68:17:98:0e:
         2f:f5:33:2d:23:e4:3d:1e:6f:c4:46:10:36:c6:68:d6:8c:d3:
         f9:40:91:d0:05:52:74:2a:af:ba:ac:69:c9:c7:8f:1d:ca:47:
         86:ad:54:7c:bf:d8:1f:e4:b8:32:c4:75:7d:3b:53:e2:d6:10:
         3f:3a:5a:14:24:55:44:1b:1c:5d:d4:a9:0d:96:e2:14:12:94:
         48:9b:9c:48
-----BEGIN CERTIFICATE-----
MIIFeTCCBGGgAwIBAgIQc5PkmEH4rfbH5oB4PSj8hjANBgkqhkiG9w0BAQsFADBf
MQswCQYDVQQGEwJGUjEOMAwGA1UECBMFUGFyaXMxDjAMBgNVBAcTBVBhcmlzMQ4w
DAYDVQQKEwVHYW5kaTEgMB4GA1UEAxMXR2FuZGkgU3RhbmRhcmQgU1NMIENBIDIw
HhcNMTUxMjExMDAwMDAwWhcNMTcwMjIzMjM1OTU5WjBZMSEwHwYDVQQLExhEb21h
aW4gQ29udHJvbCBWYWxpZGF0ZWQxGzAZBgNVBAsTEkdhbmRpIFN0YW5kYXJkIFNT
TDEXMBUGA1UEAxMOcnRjLmRlYmlhbi5vcmcwggGiMA0GCSqGSIb3DQEBAQUAA4IB
jwAwggGKAoIBgQDXpjB//uRl7VF44ioMos7qsHZoG4gXtGtQkZsqIeNAnBveYCf/
KYDSR/vXrmsfCogfYrvZmtaXBfVC0RnnfSws4uLV2sOhgUm8pEHlJAMb/5NmJpd3
uTb9J6DiUvamZPuVmqhjpmtFtmScBOZkcY+yrrtyoZJwfbN4JQVnUpypk1NA6Wvv
Y0nf4hh7ZKPI96cQy8YwLqpoOuyUYboJOxtvp475a0q2mVPznZJUTfkr30dD98ZU
OjmyuX8uPc9JyZAKOAkjFKRMAwbAzJpYbutQw7HAmYxp/TQ3NPr94Idumx84VEmv
C1kz6CMTKsix2VqmeJ2ADkkqm9NZfjCaa2lBgTQ7DMQL8ndm+4nYQZm8Z4hnZBst
eeDTPdPgDH5LsIF3XUZH91IX6jBHvFno8HOYqtVgQsYRzE1rqZS/DEfIYZzSNgyi
DQ6dWIyJxbL8zGT8+xAmBIfugFe7lC4BN1YnSE7gIxUgf4wGBvbq6JSoZt4lbJoI
f3t869W93LR5OokCAwEAAaOCAbUwggGxMB8GA1UdIwQYMBaAFLOQp9jJr07NYTyf
fK1df0H9aTDqMB0GA1UdDgQWBBSc2t4hDVeXYEBCepolEin31RbcVDAOBgNVHQ8B
Af8EBAMCBaAwDAYDVR0TAQH/BAIwADAdBgNVHSUEFjAUBggrBgEFBQcDAQYIKwYB
BQUHAwIwSwYDVR0gBEQwQjA2BgsrBgEEAbIxAQICGjAnMCUGCCsGAQUFBwIBFhlo
dHRwczovL2Nwcy51c2VydHJ1c3QuY29tMAgGBmeBDAECATBBBgNVHR8EOjA4MDag
NKAyhjBodHRwOi8vY3JsLnVzZXJ0cnVzdC5jb20vR2FuZGlTdGFuZGFyZFNTTENB
Mi5jcmwwcwYIKwYBBQUHAQEEZzBlMDwGCCsGAQUFBzAChjBodHRwOi8vY3J0LnVz
ZXJ0cnVzdC5jb20vR2FuZGlTdGFuZGFyZFNTTENBMi5jcnQwJQYIKwYBBQUHMAGG
GWh0dHA6Ly9vY3NwLnVzZXJ0cnVzdC5jb20wLQYDVR0RBCYwJIIOcnRjLmRlYmlh
bi5vcmeCEnd3dy5ydGMuZGViaWFuLm9yZzANBgkqhkiG9w0BAQsFAAOCAQEAd5Mq
vGWZ5+ZAsFLDE8pl4cn0PcHd1cVSGLSaUeuSoiCBW4imlN+aoykMkvky9Pvn6dvb
Uw7EvqHn2RvyeIC9vGI5nvHm+Ym5BbYNqwA+uyaIxplfhLSuGUyyE5IoT8TtErla
gRnDUOeg7DTKeBc49YTJ1WAf+eMqSCJFhDZKbvFIkttI6LRJXsYQ+1edVjme6nMF
CLmYnnQI5FzYM+wGXgH8W2JEPxJT2i7kYVcjolRoF5gOL/UzLSPkPR5vxEYQNsZo
1ozT+UCR0AVSdCqvuqxpycePHcpHhq1UfL/YH+S4MsR1fTtT4tYQPzpaFCRVRBsc
XdSpDZbiFBKUSJucSA==
-----END CERTIFICATE-----
