Certificate:
    Data:
        Version: 3 (0x2)
        Serial Number:
            9b:f2:f8:d3:a5:a3:e9:47:bb:d3:fb:22:fc:2c:2f:4e
    Signature Algorithm: sha1WithRSAEncryption
        Issuer: C=FR, O=GANDI SAS, CN=Gandi Standard SSL CA
        Validity
            Not Before: Jan 17 00:00:00 2014 GMT
            Not After : Jan 17 23:59:59 2015 GMT
        Subject: OU=Domain Control Validated, OU=Gandi Standard SSL, CN=rtc.debian.org
        Subject Public Key Info:
            Public Key Algorithm: rsaEncryption
                Public-Key: (3072 bit)
                Modulus:
                    00:d7:a6:30:7f:fe:e4:65:ed:51:78:e2:2a:0c:a2:
                    ce:ea:b0:76:68:1b:88:17:b4:6b:50:91:9b:2a:21:
                    e3:40:9c:1b:de:60:27:ff:29:80:d2:47:fb:d7:ae:
                    6b:1f:0a:88:1f:62:bb:d9:9a:d6:97:05:f5:42:d1:
                    19:e7:7d:2c:2c:e2:e2:d5:da:c3:a1:81:49:bc:a4:
                    41:e5:24:03:1b:ff:93:66:26:97:77:b9:36:fd:27:
                    a0:e2:52:f6:a6:64:fb:95:9a:a8:63:a6:6b:45:b6:
                    64:9c:04:e6:64:71:8f:b2:ae:bb:72:a1:92:70:7d:
                    b3:78:25:05:67:52:9c:a9:93:53:40:e9:6b:ef:63:
                    49:df:e2:18:7b:64:a3:c8:f7:a7:10:cb:c6:30:2e:
                    aa:68:3a:ec:94:61:ba:09:3b:1b:6f:a7:8e:f9:6b:
                    4a:b6:99:53:f3:9d:92:54:4d:f9:2b:df:47:43:f7:
                    c6:54:3a:39:b2:b9:7f:2e:3d:cf:49:c9:90:0a:38:
                    09:23:14:a4:4c:03:06:c0:cc:9a:58:6e:eb:50:c3:
                    b1:c0:99:8c:69:fd:34:37:34:fa:fd:e0:87:6e:9b:
                    1f:38:54:49:af:0b:59:33:e8:23:13:2a:c8:b1:d9:
                    5a:a6:78:9d:80:0e:49:2a:9b:d3:59:7e:30:9a:6b:
                    69:41:81:34:3b:0c:c4:0b:f2:77:66:fb:89:d8:41:
                    99:bc:67:88:67:64:1b:2d:79:e0:d3:3d:d3:e0:0c:
                    7e:4b:b0:81:77:5d:46:47:f7:52:17:ea:30:47:bc:
                    59:e8:f0:73:98:aa:d5:60:42:c6:11:cc:4d:6b:a9:
                    94:bf:0c:47:c8:61:9c:d2:36:0c:a2:0d:0e:9d:58:
                    8c:89:c5:b2:fc:cc:64:fc:fb:10:26:04:87:ee:80:
                    57:bb:94:2e:01:37:56:27:48:4e:e0:23:15:20:7f:
                    8c:06:06:f6:ea:e8:94:a8:66:de:25:6c:9a:08:7f:
                    7b:7c:eb:d5:bd:dc:b4:79:3a:89
                Exponent: 65537 (0x10001)
        X509v3 extensions:
            X509v3 Authority Key Identifier: 
                keyid:B6:A8:FF:A2:A8:2F:D0:A6:CD:4B:B1:68:F3:E7:50:10:31:A7:79:21

            X509v3 Subject Key Identifier: 
                9C:DA:DE:21:0D:57:97:60:40:42:7A:9A:25:12:29:F7:D5:16:DC:54
            X509v3 Key Usage: critical
                Digital Signature, Key Encipherment
            X509v3 Basic Constraints: critical
                CA:FALSE
            X509v3 Extended Key Usage: 
                TLS Web Server Authentication, TLS Web Client Authentication
            X509v3 Certificate Policies: 
                Policy: 1.3.6.1.4.1.6449.1.2.2.26
                  CPS: http://www.gandi.net/contracts/fr/ssl/cps/pdf/
                Policy: 2.23.140.1.2.1

            X509v3 CRL Distribution Points: 

                Full Name:
                  URI:http://crl.gandi.net/GandiStandardSSLCA.crl

            Authority Information Access: 
                CA Issuers - URI:http://crt.gandi.net/GandiStandardSSLCA.crt
                OCSP - URI:http://ocsp.gandi.net

            X509v3 Subject Alternative Name: 
                DNS:rtc.debian.org, DNS:www.rtc.debian.org
    Signature Algorithm: sha1WithRSAEncryption
         6a:22:87:3d:27:70:a2:1f:66:92:1f:49:82:27:f2:cd:3c:64:
         07:f1:bb:21:4f:2c:d4:72:70:cc:2d:ca:ab:3a:0a:99:39:0a:
         04:ff:db:78:61:b7:f5:02:5d:c5:83:53:56:e7:7a:38:0c:69:
         62:54:94:4f:85:a6:05:9c:d3:84:51:1c:0a:fd:0a:42:2b:d1:
         67:3c:c5:79:1f:93:e3:5a:b2:08:c1:cb:f4:a5:48:0f:80:cd:
         91:ab:e8:d6:d0:b9:8e:b8:e7:8b:eb:53:85:f7:7e:a5:69:6f:
         4a:4a:83:c6:d8:12:51:5f:74:2c:74:df:2c:02:0c:fe:1a:0f:
         a4:ac:17:31:5f:63:a5:26:a3:b1:ae:3c:05:f6:cb:a0:f6:18:
         70:94:7c:48:9f:ce:8f:72:42:11:e2:67:4f:47:94:10:29:21:
         a5:f0:dc:5b:0c:7d:eb:64:04:d2:51:82:c2:28:90:97:33:67:
         11:57:fc:a6:b7:9b:d6:8b:24:53:50:f2:65:d1:1d:5e:13:b3:
         46:30:c7:86:a2:fa:53:ca:e4:5e:04:8a:fd:ad:80:99:2d:53:
         26:94:51:30:25:1c:9d:80:e6:a4:e3:45:dd:b3:d2:1b:d3:f4:
         a5:55:50:87:84:4e:27:d0:a2:bb:25:e0:d9:5f:07:ba:89:cc:
         5d:6f:a0:09
-----BEGIN CERTIFICATE-----
MIIFYzCCBEugAwIBAgIRAJvy+NOlo+lHu9P7IvwsL04wDQYJKoZIhvcNAQEFBQAw
QTELMAkGA1UEBhMCRlIxEjAQBgNVBAoTCUdBTkRJIFNBUzEeMBwGA1UEAxMVR2Fu
ZGkgU3RhbmRhcmQgU1NMIENBMB4XDTE0MDExNzAwMDAwMFoXDTE1MDExNzIzNTk1
OVowWTEhMB8GA1UECxMYRG9tYWluIENvbnRyb2wgVmFsaWRhdGVkMRswGQYDVQQL
ExJHYW5kaSBTdGFuZGFyZCBTU0wxFzAVBgNVBAMTDnJ0Yy5kZWJpYW4ub3JnMIIB
ojANBgkqhkiG9w0BAQEFAAOCAY8AMIIBigKCAYEA16Ywf/7kZe1ReOIqDKLO6rB2
aBuIF7RrUJGbKiHjQJwb3mAn/ymA0kf7165rHwqIH2K72ZrWlwX1QtEZ530sLOLi
1drDoYFJvKRB5SQDG/+TZiaXd7k2/Seg4lL2pmT7lZqoY6ZrRbZknATmZHGPsq67
cqGScH2zeCUFZ1KcqZNTQOlr72NJ3+IYe2SjyPenEMvGMC6qaDrslGG6CTsbb6eO
+WtKtplT852SVE35K99HQ/fGVDo5srl/Lj3PScmQCjgJIxSkTAMGwMyaWG7rUMOx
wJmMaf00NzT6/eCHbpsfOFRJrwtZM+gjEyrIsdlapnidgA5JKpvTWX4wmmtpQYE0
OwzEC/J3ZvuJ2EGZvGeIZ2QbLXng0z3T4Ax+S7CBd11GR/dSF+owR7xZ6PBzmKrV
YELGEcxNa6mUvwxHyGGc0jYMog0OnViMicWy/Mxk/PsQJgSH7oBXu5QuATdWJ0hO
4CMVIH+MBgb26uiUqGbeJWyaCH97fOvVvdy0eTqJAgMBAAGjggG8MIIBuDAfBgNV
HSMEGDAWgBS2qP+iqC/Qps1LsWjz51AQMad5ITAdBgNVHQ4EFgQUnNreIQ1Xl2BA
QnqaJRIp99UW3FQwDgYDVR0PAQH/BAQDAgWgMAwGA1UdEwEB/wQCMAAwHQYDVR0l
BBYwFAYIKwYBBQUHAwEGCCsGAQUFBwMCMGAGA1UdIARZMFcwSwYLKwYBBAGyMQEC
AhowPDA6BggrBgEFBQcCARYuaHR0cDovL3d3dy5nYW5kaS5uZXQvY29udHJhY3Rz
L2ZyL3NzbC9jcHMvcGRmLzAIBgZngQwBAgEwPAYDVR0fBDUwMzAxoC+gLYYraHR0
cDovL2NybC5nYW5kaS5uZXQvR2FuZGlTdGFuZGFyZFNTTENBLmNybDBqBggrBgEF
BQcBAQReMFwwNwYIKwYBBQUHMAKGK2h0dHA6Ly9jcnQuZ2FuZGkubmV0L0dhbmRp
U3RhbmRhcmRTU0xDQS5jcnQwIQYIKwYBBQUHMAGGFWh0dHA6Ly9vY3NwLmdhbmRp
Lm5ldDAtBgNVHREEJjAkgg5ydGMuZGViaWFuLm9yZ4ISd3d3LnJ0Yy5kZWJpYW4u
b3JnMA0GCSqGSIb3DQEBBQUAA4IBAQBqIoc9J3CiH2aSH0mCJ/LNPGQH8bshTyzU
cnDMLcqrOgqZOQoE/9t4Ybf1Al3Fg1NW53o4DGliVJRPhaYFnNOEURwK/QpCK9Fn
PMV5H5PjWrIIwcv0pUgPgM2Rq+jW0LmOuOeL61OF936laW9KSoPG2BJRX3QsdN8s
Agz+Gg+krBcxX2OlJqOxrjwF9sug9hhwlHxIn86PckIR4mdPR5QQKSGl8NxbDH3r
ZATSUYLCKJCXM2cRV/ymt5vWiyRTUPJl0R1eE7NGMMeGovpTyuReBIr9rYCZLVMm
lFEwJRydgOak40Xds9Ib0/SlVVCHhE4n0KK7JeDZXwe6icxdb6AJ
-----END CERTIFICATE-----
