Certificate:
    Data:
        Version: 3 (0x2)
        Serial Number:
            43:dd:94:f9:f1:b8:6f:75:07:aa:75:b1:12:27:18:da
    Signature Algorithm: sha1WithRSAEncryption
        Issuer: C=FR, O=GANDI SAS, CN=Gandi Standard SSL CA
        Validity
            Not Before: Dec 31 00:00:00 2013 GMT
            Not After : Dec 31 23:59:59 2014 GMT
        Subject: OU=Domain Control Validated, OU=Gandi Standard SSL, CN=security-tracker.debian.org
        Subject Public Key Info:
            Public Key Algorithm: rsaEncryption
                Public-Key: (2048 bit)
                Modulus:
                    00:d4:79:fb:ed:e0:09:6f:fa:06:eb:b0:24:ba:6f:
                    69:5a:ae:aa:cc:9b:34:dd:fa:ad:55:d0:e1:cf:87:
                    f6:24:1f:1a:5d:3b:fe:9f:82:75:e5:3d:e0:96:fc:
                    bb:85:8b:c6:0a:51:88:78:97:39:6a:d2:ed:3e:3c:
                    8e:15:c7:9d:f8:03:d1:db:93:ed:86:6a:e5:46:05:
                    cf:85:2e:43:5d:ef:96:ec:c2:43:b4:6b:cd:6e:a9:
                    45:25:a8:ba:45:2c:c2:48:5f:c2:ae:40:ce:d1:66:
                    ff:6d:4b:40:27:9b:3d:b9:5c:f1:46:ec:a2:47:c8:
                    59:9b:80:96:8f:76:f4:2c:ab:0e:14:a3:94:2f:f8:
                    d6:57:21:95:5a:4a:8d:9d:69:3e:07:40:4b:15:aa:
                    78:e4:54:ac:c7:09:92:9b:8b:ce:95:50:e9:40:80:
                    50:36:24:5f:1a:25:6f:8b:77:57:3f:3a:2b:9e:71:
                    fa:62:cf:f9:03:e0:47:88:8c:ef:10:d3:6c:5a:b2:
                    13:39:fe:34:8d:ab:1d:a6:f0:8a:69:48:8a:b6:4a:
                    f3:c9:fd:d2:67:36:23:57:c6:d9:da:c7:2f:83:9e:
                    09:9a:53:90:e9:09:f9:66:e9:0b:16:e4:bc:2b:bd:
                    6b:52:77:a2:27:5b:ba:c7:73:76:49:40:3d:9a:06:
                    83:45
                Exponent: 65537 (0x10001)
        X509v3 extensions:
            X509v3 Authority Key Identifier: 
                keyid:B6:A8:FF:A2:A8:2F:D0:A6:CD:4B:B1:68:F3:E7:50:10:31:A7:79:21

            X509v3 Subject Key Identifier: 
                43:CA:23:9F:AB:09:F4:1E:11:EB:EC:DC:F3:2B:2B:55:42:1B:90:18
            X509v3 Key Usage: critical
                Digital Signature, Key Encipherment
            X509v3 Basic Constraints: critical
                CA:FALSE
            X509v3 Extended Key Usage: 
                TLS Web Server Authentication, TLS Web Client Authentication
            X509v3 Certificate Policies: 
                Policy: 1.3.6.1.4.1.6449.1.2.2.26
                  CPS: http://www.gandi.net/contracts/fr/ssl/cps/pdf/
                Policy: 2.23.140.1.2.1

            X509v3 CRL Distribution Points: 

                Full Name:
                  URI:http://crl.gandi.net/GandiStandardSSLCA.crl

            Authority Information Access: 
                CA Issuers - URI:http://crt.gandi.net/GandiStandardSSLCA.crt
                OCSP - URI:http://ocsp.gandi.net

            X509v3 Subject Alternative Name: 
                DNS:security-tracker.debian.org, DNS:www.security-tracker.debian.org
    Signature Algorithm: sha1WithRSAEncryption
         10:b2:4a:08:8e:d3:49:f4:d6:65:9a:fa:d3:22:03:fd:bc:18:
         d1:db:fd:cb:91:58:c8:d9:83:10:f8:55:e0:41:c4:9a:87:d0:
         e6:70:06:da:fc:ab:5a:6f:a9:ca:bf:62:80:b4:88:72:69:62:
         b8:4c:6c:fe:62:3c:06:62:2f:1d:44:95:6c:7c:2c:d2:aa:ab:
         2c:df:4e:72:eb:4a:c4:9e:fa:e1:ed:6a:29:43:60:0a:a5:23:
         e1:d7:ec:b1:2c:b0:41:c3:98:0d:1a:3d:c2:49:4b:f6:8a:8d:
         11:20:f9:d5:1c:cf:6b:98:7c:2b:08:6c:37:96:04:35:5c:ed:
         92:17:6b:2e:bf:3d:9b:45:5b:1c:1e:f2:2a:37:c5:75:1c:f9:
         fb:d1:ad:be:52:1d:4a:e8:35:45:f9:e4:b9:b6:10:dd:92:42:
         f1:aa:c4:a5:04:49:db:94:5a:02:02:90:aa:54:49:a6:e4:39:
         32:53:bc:a4:67:99:f6:7f:94:cc:0c:66:5b:d7:b4:70:37:07:
         0c:22:7d:d8:b0:1c:84:cb:f9:a5:4e:19:16:8b:7d:c1:3c:7e:
         dc:01:5c:02:51:4a:ea:a7:10:d8:2f:b0:87:4d:48:d1:07:42:
         c0:a0:0d:cd:ca:29:31:0c:0a:5d:92:13:46:a7:6e:26:cc:a4:
         7e:2f:e7:dc
-----BEGIN CERTIFICATE-----
MIIFCTCCA/GgAwIBAgIQQ92U+fG4b3UHqnWxEicY2jANBgkqhkiG9w0BAQUFADBB
MQswCQYDVQQGEwJGUjESMBAGA1UEChMJR0FOREkgU0FTMR4wHAYDVQQDExVHYW5k
aSBTdGFuZGFyZCBTU0wgQ0EwHhcNMTMxMjMxMDAwMDAwWhcNMTQxMjMxMjM1OTU5
WjBmMSEwHwYDVQQLExhEb21haW4gQ29udHJvbCBWYWxpZGF0ZWQxGzAZBgNVBAsT
EkdhbmRpIFN0YW5kYXJkIFNTTDEkMCIGA1UEAxMbc2VjdXJpdHktdHJhY2tlci5k
ZWJpYW4ub3JnMIIBIjANBgkqhkiG9w0BAQEFAAOCAQ8AMIIBCgKCAQEA1Hn77eAJ
b/oG67Akum9pWq6qzJs03fqtVdDhz4f2JB8aXTv+n4J15T3glvy7hYvGClGIeJc5
atLtPjyOFced+APR25PthmrlRgXPhS5DXe+W7MJDtGvNbqlFJai6RSzCSF/CrkDO
0Wb/bUtAJ5s9uVzxRuyiR8hZm4CWj3b0LKsOFKOUL/jWVyGVWkqNnWk+B0BLFap4
5FSsxwmSm4vOlVDpQIBQNiRfGiVvi3dXPzornnH6Ys/5A+BHiIzvENNsWrITOf40
jasdpvCKaUiKtkrzyf3SZzYjV8bZ2scvg54JmlOQ6Qn5ZukLFuS8K71rUneiJ1u6
x3N2SUA9mgaDRQIDAQABo4IB1jCCAdIwHwYDVR0jBBgwFoAUtqj/oqgv0KbNS7Fo
8+dQEDGneSEwHQYDVR0OBBYEFEPKI5+rCfQeEevs3PMrK1VCG5AYMA4GA1UdDwEB
/wQEAwIFoDAMBgNVHRMBAf8EAjAAMB0GA1UdJQQWMBQGCCsGAQUFBwMBBggrBgEF
BQcDAjBgBgNVHSAEWTBXMEsGCysGAQQBsjEBAgIaMDwwOgYIKwYBBQUHAgEWLmh0
dHA6Ly93d3cuZ2FuZGkubmV0L2NvbnRyYWN0cy9mci9zc2wvY3BzL3BkZi8wCAYG
Z4EMAQIBMDwGA1UdHwQ1MDMwMaAvoC2GK2h0dHA6Ly9jcmwuZ2FuZGkubmV0L0dh
bmRpU3RhbmRhcmRTU0xDQS5jcmwwagYIKwYBBQUHAQEEXjBcMDcGCCsGAQUFBzAC
hitodHRwOi8vY3J0LmdhbmRpLm5ldC9HYW5kaVN0YW5kYXJkU1NMQ0EuY3J0MCEG
CCsGAQUFBzABhhVodHRwOi8vb2NzcC5nYW5kaS5uZXQwRwYDVR0RBEAwPoIbc2Vj
dXJpdHktdHJhY2tlci5kZWJpYW4ub3Jngh93d3cuc2VjdXJpdHktdHJhY2tlci5k
ZWJpYW4ub3JnMA0GCSqGSIb3DQEBBQUAA4IBAQAQskoIjtNJ9NZlmvrTIgP9vBjR
2/3LkVjI2YMQ+FXgQcSah9DmcAba/Ktab6nKv2KAtIhyaWK4TGz+YjwGYi8dRJVs
fCzSqqss305y60rEnvrh7WopQ2AKpSPh1+yxLLBBw5gNGj3CSUv2io0RIPnVHM9r
mHwrCGw3lgQ1XO2SF2suvz2bRVscHvIqN8V1HPn70a2+Uh1K6DVF+eS5thDdkkLx
qsSlBEnblFoCApCqVEmm5DkyU7ykZ5n2f5TMDGZb17RwNwcMIn3YsByEy/mlThkW
i33BPH7cAVwCUUrqpxDYL7CHTUjRB0LAoA3NyikxDApdkhNGp24mzKR+L+fc
-----END CERTIFICATE-----
