Certificate:
    Data:
        Version: 3 (0x2)
        Serial Number: 117 (0x75)
    Signature Algorithm: sha1WithRSAEncryption
        Issuer: O=Debian, CN=ca.debian.org/emailAddress=debian-admin@debian.org
        Validity
            Not Before: Apr  9 15:13:19 2014 GMT
            Not After : Apr  9 15:13:19 2015 GMT
        Subject: O=Debian, CN=security-master.debian.org/emailAddress=debian-admin@debian.org
        Subject Public Key Info:
            Public Key Algorithm: rsaEncryption
                Public-Key: (3072 bit)
                Modulus:
                    00:e1:c0:c3:93:00:cd:30:21:95:b7:8f:88:71:a3:
                    ff:69:5f:52:3d:64:c7:ed:1a:3c:9d:b9:07:33:1e:
                    da:45:89:d8:5b:bf:c9:65:64:fc:ad:37:e7:b3:a4:
                    3f:14:6b:ea:71:5f:37:0a:a3:bd:ac:f3:ac:82:18:
                    11:b3:5c:18:8c:0c:52:d4:92:5b:60:b6:02:6f:f4:
                    30:8a:4d:14:d1:4f:0f:6b:7e:ab:a6:38:3f:9e:fd:
                    f6:d9:72:ee:d7:b0:cf:8b:59:0b:ca:33:3e:1d:e5:
                    1f:e0:f3:ac:4e:b4:03:60:9d:1a:5e:18:c6:3f:91:
                    89:bd:8c:79:5f:ad:e1:9c:b3:5e:b2:f7:3d:b0:44:
                    5f:20:9b:0a:d5:74:9f:b0:40:df:53:66:bc:ab:c5:
                    4d:b1:68:ff:db:0e:ce:9c:4b:cf:1a:b6:76:b8:b3:
                    75:7b:fb:0a:de:85:e9:72:08:f2:6d:9e:1e:20:91:
                    64:57:93:20:3e:bc:de:69:e4:c7:45:a8:b7:eb:72:
                    2a:a3:c3:42:43:ca:78:97:a6:b7:b8:a0:c4:fc:fb:
                    4b:ca:6b:82:93:97:6c:92:a4:4a:5a:7b:64:fd:8a:
                    06:db:b5:37:e1:7b:3c:0c:24:c8:b0:96:c7:b3:65:
                    90:f5:7d:9b:cf:7a:5a:e4:77:fb:81:57:be:1e:4c:
                    53:6e:0b:d1:53:0f:c4:d5:3a:0a:bc:19:08:42:ba:
                    69:9a:ac:91:8e:10:b3:9a:38:23:d2:cf:18:e5:f8:
                    a3:5e:76:65:78:92:56:86:1d:ef:c8:d2:88:b5:04:
                    f2:2c:4f:b1:05:29:d5:79:40:3b:62:23:49:22:e2:
                    e7:fc:b0:cc:ef:b3:45:74:b3:86:cc:be:db:6a:e8:
                    7e:7d:5d:8e:db:15:cf:97:8d:ba:f1:90:b4:3a:d1:
                    ea:aa:40:93:13:3b:11:0e:8e:08:fe:bb:21:0f:0f:
                    00:01:22:d9:8b:bc:0e:11:7e:6e:90:c7:1c:83:2f:
                    10:f7:b1:6c:26:df:a1:60:38:df
                Exponent: 65537 (0x10001)
        X509v3 extensions:
            X509v3 Basic Constraints: 
                CA:FALSE
            X509v3 Subject Key Identifier: 
                41:48:AC:77:56:FF:18:56:4F:8F:7E:6A:96:26:F6:0D:55:0B:A2:00
            X509v3 Authority Key Identifier: 
                keyid:A7:CF:4B:FA:5F:12:C6:23:74:2E:9E:A3:95:90:75:8C:CC:26:76:96
                DirName:/C=US/ST=Indiana/L=Indianapolis/O=Software in the Public Interest/OU=hostmaster/CN=Certificate Authority/emailAddress=hostmaster@spi-inc.org
                serial:03

    Signature Algorithm: sha1WithRSAEncryption
         8c:97:75:f1:f4:83:4c:1c:29:e3:20:ec:13:63:62:1b:f2:67:
         21:bb:cd:44:87:0d:e4:ac:cf:66:47:da:01:2e:ba:72:97:4e:
         e9:6e:c2:8a:14:4a:bc:2f:db:c1:41:7b:ec:a2:f2:51:4a:7a:
         23:5b:91:d8:d2:2e:1c:dd:20:4d:0f:6a:c9:b8:b3:ef:9f:d4:
         f4:d6:76:6e:2e:69:4f:fe:c8:81:e5:8f:ae:10:6d:b5:38:cd:
         ce:f8:81:2a:22:55:4e:d8:88:3a:79:02:e0:0e:34:e4:e6:85:
         87:53:2c:6a:bc:ff:6d:35:ad:f3:b9:68:cb:e2:3c:98:42:ff:
         0e:ec:86:a9:ec:5c:fc:e8:e5:94:a5:6b:3e:fb:5e:8c:4a:c9:
         b1:fa:18:9e:84:38:d0:21:f2:e2:0f:fd:88:99:36:35:d3:58:
         d3:36:25:63:7c:28:c3:ae:7d:2e:7f:0b:f2:c3:89:43:14:4f:
         81:70:f1:0a:73:d6:63:dc:de:60:d1:57:18:85:8f:77:ed:a9:
         57:cb:61:ac:11:38:2f:ca:6a:09:dd:41:6f:d4:42:a5:36:57:
         dd:48:40:ef:d2:56:d1:ce:bc:c4:69:b0:ca:1a:8f:41:1a:54:
         60:57:a1:c8:93:ee:eb:ea:1b:97:22:9e:d5:45:a4:86:7f:a1:
         8e:99:31:66:63:62:c6:88:fc:99:b0:99:d7:18:56:1b:2e:c3:
         34:e9:ea:8f:da:eb:89:df:d4:3f:29:1d:f2:dd:3e:e5:b1:b1:
         fb:1b:a5:60:9c:84:b7:9c:ef:1c:9d:d8:e0:82:6b:6f:10:4c:
         f5:f5:cc:42:a8:18:c1:b5:e0:b6:00:13:6d:19:a9:0d:f7:d2:
         01:dc:6b:98:36:d2:8d:52:6d:84:31:08:ec:e0:77:28:e6:c6:
         ed:15:1a:38:f9:dc:62:8d:3b:ea:53:1d:eb:33:38:a0:d8:dd:
         71:31:c0:d7:72:92:ff:a1:9d:3f:06:33:50:8b:69:f5:16:53:
         c1:27:1a:57:d7:e5:3d:7f:dd:67:cf:d5:e2:bb:99:23:7b:c0:
         a8:e0:9d:94:a2:2c:d7:35:87:36:7a:b6:fb:d5:ad:26:f3:b0:
         85:34:7d:9b:9b:92:9c:77:7e:cf:22:ad:53:03:d1:f9:96:49:
         25:5e:da:d2:82:fe:26:01:cf:f7:61:2c:67:7c:5e:65:30:c0:
         f0:c5:b8:66:1a:e8:78:47:b7:bc:94:3a:69:31:a8:64:0f:83:
         38:42:b7:ba:ce:46:2f:0b:7a:27:75:0f:5e:48:5f:85:68:a4:
         b6:e0:a2:be:b2:45:f9:f9:6b:78:2d:89:32:25:8d:83:ee:fc:
         9d:d6:81:cd:ca:c0:1c:a3
-----BEGIN CERTIFICATE-----
MIIFxjCCA66gAwIBAgIBdTANBgkqhkiG9w0BAQUFADBRMQ8wDQYDVQQKEwZEZWJp
YW4xFjAUBgNVBAMTDWNhLmRlYmlhbi5vcmcxJjAkBgkqhkiG9w0BCQEWF2RlYmlh
bi1hZG1pbkBkZWJpYW4ub3JnMB4XDTE0MDQwOTE1MTMxOVoXDTE1MDQwOTE1MTMx
OVowXjEPMA0GA1UEChMGRGViaWFuMSMwIQYDVQQDExpzZWN1cml0eS1tYXN0ZXIu
ZGViaWFuLm9yZzEmMCQGCSqGSIb3DQEJARYXZGViaWFuLWFkbWluQGRlYmlhbi5v
cmcwggGiMA0GCSqGSIb3DQEBAQUAA4IBjwAwggGKAoIBgQDhwMOTAM0wIZW3j4hx
o/9pX1I9ZMftGjyduQczHtpFidhbv8llZPytN+ezpD8Ua+pxXzcKo72s86yCGBGz
XBiMDFLUkltgtgJv9DCKTRTRTw9rfqumOD+e/fbZcu7XsM+LWQvKMz4d5R/g86xO
tANgnRpeGMY/kYm9jHlfreGcs16y9z2wRF8gmwrVdJ+wQN9TZryrxU2xaP/bDs6c
S88atna4s3V7+wrehelyCPJtnh4gkWRXkyA+vN5p5MdFqLfrciqjw0JDyniXpre4
oMT8+0vKa4KTl2ySpEpae2T9igbbtTfhezwMJMiwlsezZZD1fZvPelrkd/uBV74e
TFNuC9FTD8TVOgq8GQhCummarJGOELOaOCPSzxjl+KNedmV4klaGHe/I0oi1BPIs
T7EFKdV5QDtiI0ki4uf8sMzvs0V0s4bMvttq6H59XY7bFc+XjbrxkLQ60eqqQJMT
OxEOjgj+uyEPDwABItmLvA4Rfm6QxxyDLxD3sWwm36FgON8CAwEAAaOCARowggEW
MAkGA1UdEwQCMAAwHQYDVR0OBBYEFEFIrHdW/xhWT49+apYm9g1VC6IAMIHpBgNV
HSMEgeEwgd6AFKfPS/pfEsYjdC6eo5WQdYzMJnaWoYHCpIG/MIG8MQswCQYDVQQG
EwJVUzEQMA4GA1UECBMHSW5kaWFuYTEVMBMGA1UEBxMMSW5kaWFuYXBvbGlzMSgw
JgYDVQQKEx9Tb2Z0d2FyZSBpbiB0aGUgUHVibGljIEludGVyZXN0MRMwEQYDVQQL
Ewpob3N0bWFzdGVyMR4wHAYDVQQDExVDZXJ0aWZpY2F0ZSBBdXRob3JpdHkxJTAj
BgkqhkiG9w0BCQEWFmhvc3RtYXN0ZXJAc3BpLWluYy5vcmeCAQMwDQYJKoZIhvcN
AQEFBQADggIBAIyXdfH0g0wcKeMg7BNjYhvyZyG7zUSHDeSsz2ZH2gEuunKXTulu
wooUSrwv28FBe+yi8lFKeiNbkdjSLhzdIE0Pasm4s++f1PTWdm4uaU/+yIHlj64Q
bbU4zc74gSoiVU7YiDp5AuAONOTmhYdTLGq8/201rfO5aMviPJhC/w7shqnsXPzo
5ZSlaz77XoxKybH6GJ6EONAh8uIP/YiZNjXTWNM2JWN8KMOufS5/C/LDiUMUT4Fw
8Qpz1mPc3mDRVxiFj3ftqVfLYawROC/KagndQW/UQqU2V91IQO/SVtHOvMRpsMoa
j0EaVGBXociT7uvqG5cintVFpIZ/oY6ZMWZjYsaI/JmwmdcYVhsuwzTp6o/a64nf
1D8pHfLdPuWxsfsbpWCchLec7xyd2OCCa28QTPX1zEKoGMG14LYAE20ZqQ330gHc
a5g20o1SbYQxCOzgdyjmxu0VGjj53GKNO+pTHeszOKDY3XExwNdykv+hnT8GM1CL
afUWU8EnGlfX5T1/3WfP1eK7mSN7wKjgnZSiLNc1hzZ6tvvVrSbzsIU0fZubkpx3
fs8irVMD0fmWSSVe2tKC/iYBz/dhLGd8XmUwwPDFuGYa6HhHt7yUOmkxqGQPgzhC
t7rORi8Leid1D15IX4VopLbgor6yRfn5a3gtiTIljYPu/J3Wgc3KwByj
-----END CERTIFICATE-----
