Certificate:
    Data:
        Version: 3 (0x2)
        Serial Number: 112 (0x70)
    Signature Algorithm: sha1WithRSAEncryption
        Issuer: O=Debian, CN=ca.debian.org/emailAddress=debian-admin@debian.org
        Validity
            Not Before: Jan 10 07:07:17 2014 GMT
            Not After : Jan 10 07:07:17 2015 GMT
        Subject: O=Debian, CN=security-master.debian.org/emailAddress=debian-admin@debian.org
        Subject Public Key Info:
            Public Key Algorithm: rsaEncryption
                Public-Key: (2048 bit)
                Modulus:
                    00:d6:45:52:4b:38:a9:50:e2:3c:b1:85:85:1e:f2:
                    76:f1:a0:6c:60:2b:72:f1:6a:c5:e9:a4:2f:ac:7f:
                    22:ae:4d:98:9b:9f:cd:8b:98:7c:4e:17:07:f4:0e:
                    88:19:00:dc:b3:41:88:f7:0e:9a:81:f9:4e:8d:fb:
                    5c:6f:eb:e3:8e:6e:04:5d:d8:87:3f:88:5e:cf:4d:
                    22:b6:f0:a7:4a:73:25:46:93:0a:79:b5:b7:51:96:
                    bf:c7:83:e7:7b:b3:bf:b4:1a:76:23:7b:08:6e:c4:
                    27:f9:ed:0a:04:f8:52:0f:ce:2e:2b:e2:d0:f2:43:
                    ce:57:e0:a9:07:1a:d8:40:b0:33:0d:49:33:5f:1c:
                    c7:d8:f6:fd:31:db:88:76:d5:b3:e7:ec:ed:ea:a2:
                    4e:dd:91:a9:0e:47:71:fa:83:1c:d0:87:1d:0b:54:
                    a0:67:66:1b:c8:25:6a:57:73:c3:aa:aa:1b:df:ad:
                    f3:c1:f5:fd:37:be:d0:29:82:86:39:fa:09:ce:9f:
                    f0:8c:f5:cc:8c:fe:45:f0:9e:fc:61:51:f4:31:9a:
                    96:b9:45:86:db:5e:f1:58:92:af:1d:f4:d1:4c:68:
                    27:11:14:13:dc:48:54:74:be:c7:cf:2d:ae:ea:a2:
                    f9:10:b1:41:3c:79:a1:bd:05:ea:1a:15:0b:d1:13:
                    f9:bb
                Exponent: 65537 (0x10001)
        X509v3 extensions:
            X509v3 Basic Constraints: 
                CA:FALSE
            X509v3 Subject Key Identifier: 
                EC:6C:76:3B:BD:08:73:62:C7:60:7B:ED:EA:B4:05:26:BE:84:C7:FD
            X509v3 Authority Key Identifier: 
                keyid:A7:CF:4B:FA:5F:12:C6:23:74:2E:9E:A3:95:90:75:8C:CC:26:76:96
                DirName:/C=US/ST=Indiana/L=Indianapolis/O=Software in the Public Interest/OU=hostmaster/CN=Certificate Authority/emailAddress=hostmaster@spi-inc.org
                serial:03

    Signature Algorithm: sha1WithRSAEncryption
         5d:64:88:d2:db:67:60:b9:02:1f:67:f4:b3:af:5c:e3:9c:f2:
         54:4e:3b:8a:de:30:ce:d3:56:01:c5:63:ac:5c:c1:39:60:c9:
         7f:1d:5e:30:dd:c0:e3:1a:3c:b2:da:77:6d:41:51:f6:12:3d:
         19:fd:97:8d:b7:c2:e7:c4:68:e5:ec:7a:02:d8:29:44:5c:07:
         10:4e:d0:f6:e8:7e:13:48:67:ca:1b:ad:38:a7:53:24:e1:eb:
         36:95:53:2f:17:06:df:1e:79:72:39:20:5d:7e:e7:37:6a:c9:
         eb:3a:f0:09:77:09:29:ae:d9:5a:d1:f7:c6:b6:5e:e8:22:c7:
         da:24:f8:8d:10:d2:24:7e:dc:21:f0:dd:b8:0d:e3:82:80:3c:
         ce:91:b6:46:50:90:bf:7c:c1:8e:ca:0f:33:5f:bc:f4:51:6b:
         4b:b5:72:73:97:c1:dc:94:54:26:a8:e0:e5:23:94:61:b7:d7:
         3b:81:a3:a4:34:64:66:fc:49:70:43:c5:e8:60:ed:50:f5:02:
         29:26:58:b5:9b:ef:a8:65:fc:42:de:52:d2:63:0e:b7:99:bd:
         79:27:56:e1:b5:47:f2:d9:01:f3:30:91:a1:40:d0:d5:07:cb:
         08:f6:7e:9f:aa:16:95:69:49:fc:2e:98:39:9b:3c:f8:d8:92:
         f9:ac:04:29:e8:6a:c9:e9:8f:97:37:2a:b1:9c:21:39:24:b4:
         db:5a:e3:67:03:ed:3c:82:7a:02:7c:63:a3:f5:69:6b:14:42:
         18:0b:61:6e:56:d7:61:17:d4:b3:6e:03:4e:e9:e8:73:a9:58:
         02:e8:96:66:b6:81:b5:de:b4:49:92:68:0f:e5:ad:98:b6:0d:
         e8:bb:5c:89:74:b1:9a:d7:ca:b5:cc:33:db:f9:92:6c:8c:fc:
         78:e8:05:e2:1e:05:f1:8e:0a:fb:d2:f3:8a:fe:f8:dd:cf:b3:
         45:ad:a5:03:94:90:64:8d:d7:0b:02:83:11:2f:9e:84:2d:99:
         33:a3:80:8f:07:44:03:56:72:81:40:86:af:c8:97:41:d7:a9:
         d9:5e:e6:a9:5e:58:30:a8:38:e1:f1:2f:c4:c4:2c:c4:89:15:
         aa:78:f2:ae:20:65:c9:9a:94:5b:3e:ba:f8:13:69:a0:91:32:
         2b:1f:7e:45:8e:a2:ed:c3:2f:a5:bd:79:d8:57:ab:ec:1f:5c:
         a3:8c:1b:de:4a:42:78:54:9e:f4:e6:d5:85:6b:00:cc:27:2b:
         36:9e:28:ec:52:b3:3e:d0:60:46:90:ff:ce:79:03:d8:84:86:
         34:c1:fb:51:95:20:9b:b9:28:5b:57:a4:0f:8a:05:12:35:50:
         22:46:93:d4:60:04:c3:32
-----BEGIN CERTIFICATE-----
MIIFRjCCAy6gAwIBAgIBcDANBgkqhkiG9w0BAQUFADBRMQ8wDQYDVQQKEwZEZWJp
YW4xFjAUBgNVBAMTDWNhLmRlYmlhbi5vcmcxJjAkBgkqhkiG9w0BCQEWF2RlYmlh
bi1hZG1pbkBkZWJpYW4ub3JnMB4XDTE0MDExMDA3MDcxN1oXDTE1MDExMDA3MDcx
N1owXjEPMA0GA1UEChMGRGViaWFuMSMwIQYDVQQDExpzZWN1cml0eS1tYXN0ZXIu
ZGViaWFuLm9yZzEmMCQGCSqGSIb3DQEJARYXZGViaWFuLWFkbWluQGRlYmlhbi5v
cmcwggEiMA0GCSqGSIb3DQEBAQUAA4IBDwAwggEKAoIBAQDWRVJLOKlQ4jyxhYUe
8nbxoGxgK3LxasXppC+sfyKuTZibn82LmHxOFwf0DogZANyzQYj3DpqB+U6N+1xv
6+OObgRd2Ic/iF7PTSK28KdKcyVGkwp5tbdRlr/Hg+d7s7+0GnYjewhuxCf57QoE
+FIPzi4r4tDyQ85X4KkHGthAsDMNSTNfHMfY9v0x24h21bPn7O3qok7dkakOR3H6
gxzQhx0LVKBnZhvIJWpXc8OqqhvfrfPB9f03vtApgoY5+gnOn/CM9cyM/kXwnvxh
UfQxmpa5RYbbXvFYkq8d9NFMaCcRFBPcSFR0vsfPLa7qovkQsUE8eaG9BeoaFQvR
E/m7AgMBAAGjggEaMIIBFjAJBgNVHRMEAjAAMB0GA1UdDgQWBBTsbHY7vQhzYsdg
e+3qtAUmvoTH/TCB6QYDVR0jBIHhMIHegBSnz0v6XxLGI3QunqOVkHWMzCZ2lqGB
wqSBvzCBvDELMAkGA1UEBhMCVVMxEDAOBgNVBAgTB0luZGlhbmExFTATBgNVBAcT
DEluZGlhbmFwb2xpczEoMCYGA1UEChMfU29mdHdhcmUgaW4gdGhlIFB1YmxpYyBJ
bnRlcmVzdDETMBEGA1UECxMKaG9zdG1hc3RlcjEeMBwGA1UEAxMVQ2VydGlmaWNh
dGUgQXV0aG9yaXR5MSUwIwYJKoZIhvcNAQkBFhZob3N0bWFzdGVyQHNwaS1pbmMu
b3JnggEDMA0GCSqGSIb3DQEBBQUAA4ICAQBdZIjS22dguQIfZ/Szr1zjnPJUTjuK
3jDO01YBxWOsXME5YMl/HV4w3cDjGjyy2ndtQVH2Ej0Z/ZeNt8LnxGjl7HoC2ClE
XAcQTtD26H4TSGfKG604p1Mk4es2lVMvFwbfHnlyOSBdfuc3asnrOvAJdwkprtla
0ffGtl7oIsfaJPiNENIkftwh8N24DeOCgDzOkbZGUJC/fMGOyg8zX7z0UWtLtXJz
l8HclFQmqODlI5Rht9c7gaOkNGRm/ElwQ8XoYO1Q9QIpJli1m++oZfxC3lLSYw63
mb15J1bhtUfy2QHzMJGhQNDVB8sI9n6fqhaVaUn8Lpg5mzz42JL5rAQp6GrJ6Y+X
NyqxnCE5JLTbWuNnA+08gnoCfGOj9WlrFEIYC2FuVtdhF9SzbgNO6ehzqVgC6JZm
toG13rRJkmgP5a2Ytg3ou1yJdLGa18q1zDPb+ZJsjPx46AXiHgXxjgr70vOK/vjd
z7NFraUDlJBkjdcLAoMRL56ELZkzo4CPB0QDVnKBQIavyJdB16nZXuapXlgwqDjh
8S/ExCzEiRWqePKuIGXJmpRbPrr4E2mgkTIrH35FjqLtwy+lvXnYV6vsH1yjjBve
SkJ4VJ705tWFawDMJys2nijsUrM+0GBGkP/OeQPYhIY0wftRlSCbuShbV6QPigUS
NVAiRpPUYATDMg==
-----END CERTIFICATE-----
