Certificate:
    Data:
        Version: 3 (0x2)
        Serial Number:
            fb:2d:b7:68:a6:1b:8a:3c:e7:7a:ad:06:53:bf:f9:33
    Signature Algorithm: sha256WithRSAEncryption
        Issuer: C=FR, ST=Paris, L=Paris, O=Gandi, CN=Gandi Standard SSL CA 2
        Validity
            Not Before: Dec 17 00:00:00 2014 GMT
            Not After : Dec 31 23:59:59 2015 GMT
        Subject: OU=Domain Control Validated, OU=Gandi Standard SSL, CN=security-tracker.debian.org
        Subject Public Key Info:
            Public Key Algorithm: rsaEncryption
                Public-Key: (3072 bit)
                Modulus:
                    00:cf:fd:ef:f2:c5:2a:7a:da:d2:07:2c:21:c9:89:
                    e4:21:0e:f6:c8:72:b2:15:90:fe:5c:d9:b7:1a:5b:
                    83:f4:84:e7:a3:d6:95:cf:c5:d1:57:dd:a9:ac:67:
                    23:27:c8:a6:1a:73:20:f4:c9:a2:23:67:50:e7:df:
                    49:20:3f:01:3d:2c:3a:95:50:a3:98:80:e8:c5:81:
                    54:de:74:e9:99:24:0a:33:63:e2:5f:13:16:63:27:
                    45:bc:e8:2a:5a:2e:40:d2:85:99:dd:54:ff:07:53:
                    90:f6:02:83:e1:5d:23:79:14:1c:14:7f:64:09:be:
                    92:66:8c:7f:4c:3d:a9:c6:57:b9:70:a0:83:b3:e8:
                    f3:ec:cc:2a:e3:7b:4d:7c:fd:c5:c5:ca:7b:c5:99:
                    0d:39:b2:a1:05:49:6e:38:57:4c:4b:9b:e0:36:a4:
                    bf:cb:2e:b5:76:bd:c5:c3:11:48:a0:06:38:e2:a4:
                    ed:47:92:2c:72:4c:ce:c9:12:39:94:c7:bc:7e:7f:
                    82:bb:72:e8:f4:50:57:8f:a7:5a:ab:40:b0:7b:79:
                    b9:50:28:7a:ce:be:96:38:79:e3:ce:25:6e:c9:dd:
                    c4:15:22:cd:9b:77:97:cb:54:9d:46:9c:50:a8:c2:
                    4b:c9:62:c1:42:d4:b2:7f:0d:54:31:85:51:e3:ca:
                    5d:f1:9a:1f:68:ef:12:08:94:40:40:b0:1b:05:35:
                    75:f3:e2:d5:ff:c3:46:3c:54:4e:2b:c3:2c:8e:e6:
                    5b:78:de:36:ee:4c:83:c1:75:5d:06:0b:ff:8c:80:
                    ac:a7:fe:f6:21:9c:94:ca:f9:13:02:cb:31:4a:2b:
                    49:26:fd:f1:3c:ad:bd:c6:b6:93:c5:6a:e6:6f:bb:
                    e4:88:5e:8c:0d:bf:4f:2a:12:59:9b:ae:2d:36:f1:
                    31:db:e5:0f:25:05:99:2e:ad:ba:76:19:2b:49:e3:
                    76:81:b8:91:f8:89:b8:92:db:7c:8f:3f:15:d3:eb:
                    b8:e3:19:58:6b:c5:8f:a8:51:d1
                Exponent: 65537 (0x10001)
        X509v3 extensions:
            X509v3 Authority Key Identifier: 
                keyid:B3:90:A7:D8:C9:AF:4E:CD:61:3C:9F:7C:AD:5D:7F:41:FD:69:30:EA

            X509v3 Subject Key Identifier: 
                EE:8D:2D:52:28:5E:D4:85:53:F2:6C:13:2A:72:6D:21:07:4D:B7:F5
            X509v3 Key Usage: critical
                Digital Signature, Key Encipherment
            X509v3 Basic Constraints: critical
                CA:FALSE
            X509v3 Extended Key Usage: 
                TLS Web Server Authentication, TLS Web Client Authentication
            X509v3 Certificate Policies: 
                Policy: 1.3.6.1.4.1.6449.1.2.2.26
                  CPS: https://cps.usertrust.com
                Policy: 2.23.140.1.2.1

            X509v3 CRL Distribution Points: 

                Full Name:
                  URI:http://crl.usertrust.com/GandiStandardSSLCA2.crl

            Authority Information Access: 
                CA Issuers - URI:http://crt.usertrust.com/GandiStandardSSLCA2.crt
                OCSP - URI:http://ocsp.usertrust.com

            X509v3 Subject Alternative Name: 
                DNS:security-tracker.debian.org, DNS:www.security-tracker.debian.org
    Signature Algorithm: sha256WithRSAEncryption
         39:66:f9:c8:2c:07:5a:09:f6:16:08:67:a4:5d:05:00:ba:9d:
         ba:c0:40:0e:b0:7b:02:ab:76:6a:c2:58:1d:26:7f:14:49:f0:
         87:d3:b0:4e:c0:10:5b:ad:dd:ad:5e:f2:0c:d7:be:0a:99:a8:
         64:f0:aa:c7:ba:b5:7e:ec:82:8b:d9:60:eb:76:5c:db:b8:c6:
         b0:6a:a0:c4:32:63:13:02:26:60:fa:dd:fc:95:64:28:15:65:
         1f:dc:fa:9c:05:3e:b5:3c:14:5f:98:8a:87:dc:eb:95:ba:bb:
         d5:f0:f2:86:a6:d5:2f:85:3f:aa:11:b6:b4:be:6c:53:d8:e5:
         0e:8f:93:7c:23:7f:38:ab:11:3f:67:7d:ac:b2:40:5b:21:e0:
         3b:07:a8:0b:a9:5b:93:60:fc:f4:00:0c:0d:a5:a8:45:46:3a:
         f6:04:10:4f:6d:23:ba:73:7d:b5:81:86:c1:1c:0f:bd:97:86:
         a0:bd:a8:c7:33:ec:6e:90:4c:94:aa:d9:5e:77:64:96:86:0a:
         02:a8:a3:bf:99:bf:7a:59:30:11:4e:cc:e1:14:c1:c4:82:56:
         cb:1c:3d:02:b2:52:c0:c1:51:74:bf:b3:14:6e:13:c4:3e:53:
         b4:a5:f8:ad:c3:c6:f7:fd:18:5c:31:20:93:5f:99:69:56:da:
         15:e0:78:d3
-----BEGIN CERTIFICATE-----
MIIFoTCCBImgAwIBAgIRAPstt2imG4o853qtBlO/+TMwDQYJKoZIhvcNAQELBQAw
XzELMAkGA1UEBhMCRlIxDjAMBgNVBAgTBVBhcmlzMQ4wDAYDVQQHEwVQYXJpczEO
MAwGA1UEChMFR2FuZGkxIDAeBgNVBAMTF0dhbmRpIFN0YW5kYXJkIFNTTCBDQSAy
MB4XDTE0MTIxNzAwMDAwMFoXDTE1MTIzMTIzNTk1OVowZjEhMB8GA1UECxMYRG9t
YWluIENvbnRyb2wgVmFsaWRhdGVkMRswGQYDVQQLExJHYW5kaSBTdGFuZGFyZCBT
U0wxJDAiBgNVBAMTG3NlY3VyaXR5LXRyYWNrZXIuZGViaWFuLm9yZzCCAaIwDQYJ
KoZIhvcNAQEBBQADggGPADCCAYoCggGBAM/97/LFKnra0gcsIcmJ5CEO9shyshWQ
/lzZtxpbg/SE56PWlc/F0VfdqaxnIyfIphpzIPTJoiNnUOffSSA/AT0sOpVQo5iA
6MWBVN506ZkkCjNj4l8TFmMnRbzoKlouQNKFmd1U/wdTkPYCg+FdI3kUHBR/ZAm+
kmaMf0w9qcZXuXCgg7Po8+zMKuN7TXz9xcXKe8WZDTmyoQVJbjhXTEub4Dakv8su
tXa9xcMRSKAGOOKk7UeSLHJMzskSOZTHvH5/grty6PRQV4+nWqtAsHt5uVAoes6+
ljh5484lbsndxBUizZt3l8tUnUacUKjCS8liwULUsn8NVDGFUePKXfGaH2jvEgiU
QECwGwU1dfPi1f/DRjxUTivDLI7mW3jeNu5Mg8F1XQYL/4yArKf+9iGclMr5EwLL
MUorSSb98Tytvca2k8Vq5m+75IhejA2/TyoSWZuuLTbxMdvlDyUFmS6tunYZK0nj
doG4kfiJuJLbfI8/FdPruOMZWGvFj6hR0QIDAQABo4IBzzCCAcswHwYDVR0jBBgw
FoAUs5Cn2MmvTs1hPJ98rV1/Qf1pMOowHQYDVR0OBBYEFO6NLVIoXtSFU/JsEypy
bSEHTbf1MA4GA1UdDwEB/wQEAwIFoDAMBgNVHRMBAf8EAjAAMB0GA1UdJQQWMBQG
CCsGAQUFBwMBBggrBgEFBQcDAjBLBgNVHSAERDBCMDYGCysGAQQBsjEBAgIaMCcw
JQYIKwYBBQUHAgEWGWh0dHBzOi8vY3BzLnVzZXJ0cnVzdC5jb20wCAYGZ4EMAQIB
MEEGA1UdHwQ6MDgwNqA0oDKGMGh0dHA6Ly9jcmwudXNlcnRydXN0LmNvbS9HYW5k
aVN0YW5kYXJkU1NMQ0EyLmNybDBzBggrBgEFBQcBAQRnMGUwPAYIKwYBBQUHMAKG
MGh0dHA6Ly9jcnQudXNlcnRydXN0LmNvbS9HYW5kaVN0YW5kYXJkU1NMQ0EyLmNy
dDAlBggrBgEFBQcwAYYZaHR0cDovL29jc3AudXNlcnRydXN0LmNvbTBHBgNVHREE
QDA+ghtzZWN1cml0eS10cmFja2VyLmRlYmlhbi5vcmeCH3d3dy5zZWN1cml0eS10
cmFja2VyLmRlYmlhbi5vcmcwDQYJKoZIhvcNAQELBQADggEBADlm+cgsB1oJ9hYI
Z6RdBQC6nbrAQA6wewKrdmrCWB0mfxRJ8IfTsE7AEFut3a1e8gzXvgqZqGTwqse6
tX7sgovZYOt2XNu4xrBqoMQyYxMCJmD63fyVZCgVZR/c+pwFPrU8FF+Yiofc65W6
u9Xw8oam1S+FP6oRtrS+bFPY5Q6Pk3wjfzirET9nfayyQFsh4DsHqAupW5Ng/PQA
DA2lqEVGOvYEEE9tI7pzfbWBhsEcD72XhqC9qMcz7G6QTJSq2V53ZJaGCgKoo7+Z
v3pZMBFOzOEUwcSCVsscPQKyUsDBUXS/sxRuE8Q+U7Sl+K3Dxvf9GFwxIJNfmWlW
2hXgeNM=
-----END CERTIFICATE-----
