Certificate:
    Data:
        Version: 3 (0x2)
        Serial Number: 92 (0x5c)
        Signature Algorithm: sha1WithRSAEncryption
        Issuer: O=Debian, CN=ca.debian.org/emailAddress=debian-admin@debian.org
        Validity
            Not Before: Jan 21 21:22:17 2013 GMT
            Not After : Jan 21 21:22:17 2014 GMT
        Subject: O=Debian, CN=security-master.debian.org/emailAddress=debian-admin@debian.org
        Subject Public Key Info:
            Public Key Algorithm: rsaEncryption
            RSA Public Key: (2048 bit)
                Modulus (2048 bit):
                    00:d6:45:52:4b:38:a9:50:e2:3c:b1:85:85:1e:f2:
                    76:f1:a0:6c:60:2b:72:f1:6a:c5:e9:a4:2f:ac:7f:
                    22:ae:4d:98:9b:9f:cd:8b:98:7c:4e:17:07:f4:0e:
                    88:19:00:dc:b3:41:88:f7:0e:9a:81:f9:4e:8d:fb:
                    5c:6f:eb:e3:8e:6e:04:5d:d8:87:3f:88:5e:cf:4d:
                    22:b6:f0:a7:4a:73:25:46:93:0a:79:b5:b7:51:96:
                    bf:c7:83:e7:7b:b3:bf:b4:1a:76:23:7b:08:6e:c4:
                    27:f9:ed:0a:04:f8:52:0f:ce:2e:2b:e2:d0:f2:43:
                    ce:57:e0:a9:07:1a:d8:40:b0:33:0d:49:33:5f:1c:
                    c7:d8:f6:fd:31:db:88:76:d5:b3:e7:ec:ed:ea:a2:
                    4e:dd:91:a9:0e:47:71:fa:83:1c:d0:87:1d:0b:54:
                    a0:67:66:1b:c8:25:6a:57:73:c3:aa:aa:1b:df:ad:
                    f3:c1:f5:fd:37:be:d0:29:82:86:39:fa:09:ce:9f:
                    f0:8c:f5:cc:8c:fe:45:f0:9e:fc:61:51:f4:31:9a:
                    96:b9:45:86:db:5e:f1:58:92:af:1d:f4:d1:4c:68:
                    27:11:14:13:dc:48:54:74:be:c7:cf:2d:ae:ea:a2:
                    f9:10:b1:41:3c:79:a1:bd:05:ea:1a:15:0b:d1:13:
                    f9:bb
                Exponent: 65537 (0x10001)
        X509v3 extensions:
            X509v3 Basic Constraints: 
                CA:FALSE
            X509v3 Subject Key Identifier: 
                EC:6C:76:3B:BD:08:73:62:C7:60:7B:ED:EA:B4:05:26:BE:84:C7:FD
            X509v3 Authority Key Identifier: 
                keyid:A7:CF:4B:FA:5F:12:C6:23:74:2E:9E:A3:95:90:75:8C:CC:26:76:96
                DirName:/C=US/ST=Indiana/L=Indianapolis/O=Software in the Public Interest/OU=hostmaster/CN=Certificate Authority/emailAddress=hostmaster@spi-inc.org
                serial:03

    Signature Algorithm: sha1WithRSAEncryption
        3c:90:bf:10:d6:f0:ab:1b:72:d1:14:2e:39:46:38:68:6d:cd:
        82:8d:f8:85:44:b4:0e:5a:2b:63:b4:82:a4:42:96:ef:04:83:
        8f:38:34:9d:4a:27:ea:ba:92:94:dd:50:6b:0d:21:e4:ea:c2:
        30:8a:e4:4c:96:b3:14:af:db:19:75:aa:cd:7f:20:68:5d:b1:
        ee:89:9a:c1:ca:aa:97:52:bb:5a:69:10:b5:6a:7b:8e:a2:36:
        00:fb:4c:ed:08:6d:bf:fd:bc:82:da:81:15:99:66:63:1a:51:
        b2:c7:46:69:5a:d6:21:4a:fe:e4:f5:6d:35:bb:98:9d:fc:13:
        d3:0f:4e:43:29:cc:a7:dd:92:a0:d4:8d:6f:e5:14:52:31:ca:
        5b:3d:f1:31:4f:c0:23:08:79:4d:9c:05:90:25:19:ca:d1:ce:
        eb:81:32:24:67:5d:37:ef:06:61:a3:46:ad:1e:92:48:52:d1:
        db:98:f8:dd:33:d8:3c:c1:7f:23:92:02:78:ba:38:71:03:4f:
        8b:c2:fa:fe:ed:b0:ab:24:5e:43:49:84:1c:48:d0:36:19:bf:
        39:c6:ef:a3:2b:43:65:f9:c3:68:e0:7c:ed:4e:03:d2:99:68:
        8b:f6:ae:b7:f9:03:dd:f5:59:68:fb:72:86:a4:30:28:3e:c5:
        79:d4:71:41:65:3b:7d:3e:0e:c7:40:d6:8e:b2:b9:0a:5b:30:
        44:53:fe:18:45:86:be:c2:fe:fb:01:53:ea:99:f1:59:92:0b:
        0d:f8:8a:95:2e:e1:f4:fa:f8:91:fa:f7:80:66:2a:99:ce:32:
        91:b8:86:d6:2a:3b:9a:d0:2d:a3:97:6e:d6:d4:e9:a0:0a:e9:
        8c:1b:45:75:e9:a8:07:8f:13:90:7f:76:89:3f:b5:c2:fd:51:
        bb:11:25:cd:fe:40:38:b0:4e:59:26:ec:67:63:ee:d7:d3:1d:
        1c:d9:90:24:a6:86:2b:8b:c5:3c:ec:a4:60:9d:78:95:48:cc:
        81:06:3c:8f:d9:6b:e7:96:4f:30:2e:f5:34:93:ab:81:bd:d7:
        c2:3b:d1:61:9a:0b:65:35:2e:c8:88:42:da:8a:12:fd:29:a8:
        6a:ea:f8:44:fa:78:38:56:2b:c5:58:a6:53:53:c6:5a:11:bb:
        bc:f5:a5:b3:d3:96:b3:d6:f3:fc:aa:fd:30:d9:c1:67:a6:50:
        83:19:72:2f:56:34:ae:a6:1c:6b:c6:38:1f:6b:44:a9:3c:0a:
        62:be:af:25:6c:3c:c5:b2:31:09:d9:0a:f0:41:38:61:62:72:
        1d:67:46:0e:ef:d4:bb:3c:43:5b:d1:e1:20:e7:68:24:82:f7:
        7f:7a:37:c1:71:a0:47:7d
-----BEGIN CERTIFICATE-----
MIIFRjCCAy6gAwIBAgIBXDANBgkqhkiG9w0BAQUFADBRMQ8wDQYDVQQKEwZEZWJp
YW4xFjAUBgNVBAMTDWNhLmRlYmlhbi5vcmcxJjAkBgkqhkiG9w0BCQEWF2RlYmlh
bi1hZG1pbkBkZWJpYW4ub3JnMB4XDTEzMDEyMTIxMjIxN1oXDTE0MDEyMTIxMjIx
N1owXjEPMA0GA1UEChMGRGViaWFuMSMwIQYDVQQDExpzZWN1cml0eS1tYXN0ZXIu
ZGViaWFuLm9yZzEmMCQGCSqGSIb3DQEJARYXZGViaWFuLWFkbWluQGRlYmlhbi5v
cmcwggEiMA0GCSqGSIb3DQEBAQUAA4IBDwAwggEKAoIBAQDWRVJLOKlQ4jyxhYUe
8nbxoGxgK3LxasXppC+sfyKuTZibn82LmHxOFwf0DogZANyzQYj3DpqB+U6N+1xv
6+OObgRd2Ic/iF7PTSK28KdKcyVGkwp5tbdRlr/Hg+d7s7+0GnYjewhuxCf57QoE
+FIPzi4r4tDyQ85X4KkHGthAsDMNSTNfHMfY9v0x24h21bPn7O3qok7dkakOR3H6
gxzQhx0LVKBnZhvIJWpXc8OqqhvfrfPB9f03vtApgoY5+gnOn/CM9cyM/kXwnvxh
UfQxmpa5RYbbXvFYkq8d9NFMaCcRFBPcSFR0vsfPLa7qovkQsUE8eaG9BeoaFQvR
E/m7AgMBAAGjggEaMIIBFjAJBgNVHRMEAjAAMB0GA1UdDgQWBBTsbHY7vQhzYsdg
e+3qtAUmvoTH/TCB6QYDVR0jBIHhMIHegBSnz0v6XxLGI3QunqOVkHWMzCZ2lqGB
wqSBvzCBvDELMAkGA1UEBhMCVVMxEDAOBgNVBAgTB0luZGlhbmExFTATBgNVBAcT
DEluZGlhbmFwb2xpczEoMCYGA1UEChMfU29mdHdhcmUgaW4gdGhlIFB1YmxpYyBJ
bnRlcmVzdDETMBEGA1UECxMKaG9zdG1hc3RlcjEeMBwGA1UEAxMVQ2VydGlmaWNh
dGUgQXV0aG9yaXR5MSUwIwYJKoZIhvcNAQkBFhZob3N0bWFzdGVyQHNwaS1pbmMu
b3JnggEDMA0GCSqGSIb3DQEBBQUAA4ICAQA8kL8Q1vCrG3LRFC45Rjhobc2CjfiF
RLQOWitjtIKkQpbvBIOPODSdSifqupKU3VBrDSHk6sIwiuRMlrMUr9sZdarNfyBo
XbHuiZrByqqXUrtaaRC1anuOojYA+0ztCG2//byC2oEVmWZjGlGyx0ZpWtYhSv7k
9W01u5id/BPTD05DKcyn3ZKg1I1v5RRSMcpbPfExT8AjCHlNnAWQJRnK0c7rgTIk
Z1037wZho0atHpJIUtHbmPjdM9g8wX8jkgJ4ujhxA0+Lwvr+7bCrJF5DSYQcSNA2
Gb85xu+jK0Nl+cNo4HztTgPSmWiL9q63+QPd9Vlo+3KGpDAoPsV51HFBZTt9Pg7H
QNaOsrkKWzBEU/4YRYa+wv77AVPqmfFZkgsN+IqVLuH0+viR+veAZiqZzjKRuIbW
Kjua0C2jl27W1OmgCumMG0V16agHjxOQf3aJP7XC/VG7ESXN/kA4sE5ZJuxnY+7X
0x0c2ZAkpoYri8U87KRgnXiVSMyBBjyP2Wvnlk8wLvU0k6uBvdfCO9FhmgtlNS7I
iELaihL9Kahq6vhE+ng4VivFWKZTU8ZaEbu89aWz05az1vP8qv0w2cFnplCDGXIv
VjSuphxrxjgfa0SpPApivq8lbDzFsjEJ2QrwQThhYnIdZ0YO79S7PENb0eEg52gk
gvd/ejfBcaBHfQ==
-----END CERTIFICATE-----
