Certificate:
    Data:
        Version: 3 (0x2)
        Serial Number:
            2d:71:6f:44:fa:dc:f1:c9:08:26:1a:ab:8f:29:16:f8
    Signature Algorithm: sha1WithRSAEncryption
        Issuer: C=FR, O=GANDI SAS, CN=Gandi Standard SSL CA
        Validity
            Not Before: Dec 31 00:00:00 2013 GMT
            Not After : Dec 31 23:59:59 2014 GMT
        Subject: OU=Domain Control Validated, OU=Gandi Standard SSL, CN=security-tracker.debian.org
        Subject Public Key Info:
            Public Key Algorithm: rsaEncryption
                Public-Key: (3072 bit)
                Modulus:
                    00:cf:fd:ef:f2:c5:2a:7a:da:d2:07:2c:21:c9:89:
                    e4:21:0e:f6:c8:72:b2:15:90:fe:5c:d9:b7:1a:5b:
                    83:f4:84:e7:a3:d6:95:cf:c5:d1:57:dd:a9:ac:67:
                    23:27:c8:a6:1a:73:20:f4:c9:a2:23:67:50:e7:df:
                    49:20:3f:01:3d:2c:3a:95:50:a3:98:80:e8:c5:81:
                    54:de:74:e9:99:24:0a:33:63:e2:5f:13:16:63:27:
                    45:bc:e8:2a:5a:2e:40:d2:85:99:dd:54:ff:07:53:
                    90:f6:02:83:e1:5d:23:79:14:1c:14:7f:64:09:be:
                    92:66:8c:7f:4c:3d:a9:c6:57:b9:70:a0:83:b3:e8:
                    f3:ec:cc:2a:e3:7b:4d:7c:fd:c5:c5:ca:7b:c5:99:
                    0d:39:b2:a1:05:49:6e:38:57:4c:4b:9b:e0:36:a4:
                    bf:cb:2e:b5:76:bd:c5:c3:11:48:a0:06:38:e2:a4:
                    ed:47:92:2c:72:4c:ce:c9:12:39:94:c7:bc:7e:7f:
                    82:bb:72:e8:f4:50:57:8f:a7:5a:ab:40:b0:7b:79:
                    b9:50:28:7a:ce:be:96:38:79:e3:ce:25:6e:c9:dd:
                    c4:15:22:cd:9b:77:97:cb:54:9d:46:9c:50:a8:c2:
                    4b:c9:62:c1:42:d4:b2:7f:0d:54:31:85:51:e3:ca:
                    5d:f1:9a:1f:68:ef:12:08:94:40:40:b0:1b:05:35:
                    75:f3:e2:d5:ff:c3:46:3c:54:4e:2b:c3:2c:8e:e6:
                    5b:78:de:36:ee:4c:83:c1:75:5d:06:0b:ff:8c:80:
                    ac:a7:fe:f6:21:9c:94:ca:f9:13:02:cb:31:4a:2b:
                    49:26:fd:f1:3c:ad:bd:c6:b6:93:c5:6a:e6:6f:bb:
                    e4:88:5e:8c:0d:bf:4f:2a:12:59:9b:ae:2d:36:f1:
                    31:db:e5:0f:25:05:99:2e:ad:ba:76:19:2b:49:e3:
                    76:81:b8:91:f8:89:b8:92:db:7c:8f:3f:15:d3:eb:
                    b8:e3:19:58:6b:c5:8f:a8:51:d1
                Exponent: 65537 (0x10001)
        X509v3 extensions:
            X509v3 Authority Key Identifier: 
                keyid:B6:A8:FF:A2:A8:2F:D0:A6:CD:4B:B1:68:F3:E7:50:10:31:A7:79:21

            X509v3 Subject Key Identifier: 
                EE:8D:2D:52:28:5E:D4:85:53:F2:6C:13:2A:72:6D:21:07:4D:B7:F5
            X509v3 Key Usage: critical
                Digital Signature, Key Encipherment
            X509v3 Basic Constraints: critical
                CA:FALSE
            X509v3 Extended Key Usage: 
                TLS Web Server Authentication, TLS Web Client Authentication
            X509v3 Certificate Policies: 
                Policy: 1.3.6.1.4.1.6449.1.2.2.26
                  CPS: http://www.gandi.net/contracts/fr/ssl/cps/pdf/
                Policy: 2.23.140.1.2.1

            X509v3 CRL Distribution Points: 

                Full Name:
                  URI:http://crl.gandi.net/GandiStandardSSLCA.crl

            Authority Information Access: 
                CA Issuers - URI:http://crt.gandi.net/GandiStandardSSLCA.crt
                OCSP - URI:http://ocsp.gandi.net

            X509v3 Subject Alternative Name: 
                DNS:security-tracker.debian.org, DNS:www.security-tracker.debian.org
    Signature Algorithm: sha1WithRSAEncryption
         83:c5:3d:47:b8:af:9a:70:6c:c4:30:a4:e4:6a:85:c1:f2:ce:
         ba:40:a5:34:99:9a:35:93:2a:8b:c0:26:dd:56:eb:e4:6b:35:
         3b:f2:9e:1d:3c:39:d5:88:ce:f9:89:a8:7b:68:1a:71:f0:66:
         8c:54:1e:b5:37:80:8b:fa:8b:45:17:a6:7c:15:8a:7e:37:a9:
         29:fd:85:cd:4c:fe:ed:f3:ad:25:c1:5d:67:a1:96:02:d6:d0:
         0e:a9:e2:29:81:8d:20:8a:f6:d7:ab:c1:fb:a4:45:0c:d3:bb:
         99:7a:11:43:c4:e1:b4:9c:2e:0c:3f:f6:e0:53:2a:07:b7:3c:
         9a:76:57:65:a9:07:4c:a0:16:56:45:b7:69:cb:97:83:bf:bf:
         49:13:8a:db:ae:32:61:49:1a:ed:5a:9c:b1:50:a0:37:c2:82:
         6e:5f:5a:2e:31:1f:29:6c:7b:20:34:41:9f:69:83:45:c4:0c:
         2b:39:fa:dd:9c:22:69:2d:a0:eb:ab:ae:2a:c2:c5:57:a8:a4:
         b8:fa:ea:b0:27:77:38:9c:45:ee:3c:77:e1:0e:bf:30:e3:24:
         8a:6a:c6:c7:dc:58:cc:93:a3:c4:3f:54:b7:c9:2e:89:49:a5:
         43:1d:8e:f4:06:c9:c3:ef:04:d3:50:ff:8d:e7:58:4f:25:17:
         f9:10:b5:c9
-----BEGIN CERTIFICATE-----
MIIFiTCCBHGgAwIBAgIQLXFvRPrc8ckIJhqrjykW+DANBgkqhkiG9w0BAQUFADBB
MQswCQYDVQQGEwJGUjESMBAGA1UEChMJR0FOREkgU0FTMR4wHAYDVQQDExVHYW5k
aSBTdGFuZGFyZCBTU0wgQ0EwHhcNMTMxMjMxMDAwMDAwWhcNMTQxMjMxMjM1OTU5
WjBmMSEwHwYDVQQLExhEb21haW4gQ29udHJvbCBWYWxpZGF0ZWQxGzAZBgNVBAsT
EkdhbmRpIFN0YW5kYXJkIFNTTDEkMCIGA1UEAxMbc2VjdXJpdHktdHJhY2tlci5k
ZWJpYW4ub3JnMIIBojANBgkqhkiG9w0BAQEFAAOCAY8AMIIBigKCAYEAz/3v8sUq
etrSBywhyYnkIQ72yHKyFZD+XNm3GluD9ITno9aVz8XRV92prGcjJ8imGnMg9Mmi
I2dQ599JID8BPSw6lVCjmIDoxYFU3nTpmSQKM2PiXxMWYydFvOgqWi5A0oWZ3VT/
B1OQ9gKD4V0jeRQcFH9kCb6SZox/TD2pxle5cKCDs+jz7Mwq43tNfP3Fxcp7xZkN
ObKhBUluOFdMS5vgNqS/yy61dr3FwxFIoAY44qTtR5IsckzOyRI5lMe8fn+Cu3Lo
9FBXj6daq0Cwe3m5UCh6zr6WOHnjziVuyd3EFSLNm3eXy1SdRpxQqMJLyWLBQtSy
fw1UMYVR48pd8ZofaO8SCJRAQLAbBTV18+LV/8NGPFROK8MsjuZbeN427kyDwXVd
Bgv/jICsp/72IZyUyvkTAssxSitJJv3xPK29xraTxWrmb7vkiF6MDb9PKhJZm64t
NvEx2+UPJQWZLq26dhkrSeN2gbiR+Im4ktt8jz8V0+u44xlYa8WPqFHRAgMBAAGj
ggHWMIIB0jAfBgNVHSMEGDAWgBS2qP+iqC/Qps1LsWjz51AQMad5ITAdBgNVHQ4E
FgQU7o0tUihe1IVT8mwTKnJtIQdNt/UwDgYDVR0PAQH/BAQDAgWgMAwGA1UdEwEB
/wQCMAAwHQYDVR0lBBYwFAYIKwYBBQUHAwEGCCsGAQUFBwMCMGAGA1UdIARZMFcw
SwYLKwYBBAGyMQECAhowPDA6BggrBgEFBQcCARYuaHR0cDovL3d3dy5nYW5kaS5u
ZXQvY29udHJhY3RzL2ZyL3NzbC9jcHMvcGRmLzAIBgZngQwBAgEwPAYDVR0fBDUw
MzAxoC+gLYYraHR0cDovL2NybC5nYW5kaS5uZXQvR2FuZGlTdGFuZGFyZFNTTENB
LmNybDBqBggrBgEFBQcBAQReMFwwNwYIKwYBBQUHMAKGK2h0dHA6Ly9jcnQuZ2Fu
ZGkubmV0L0dhbmRpU3RhbmRhcmRTU0xDQS5jcnQwIQYIKwYBBQUHMAGGFWh0dHA6
Ly9vY3NwLmdhbmRpLm5ldDBHBgNVHREEQDA+ghtzZWN1cml0eS10cmFja2VyLmRl
Ymlhbi5vcmeCH3d3dy5zZWN1cml0eS10cmFja2VyLmRlYmlhbi5vcmcwDQYJKoZI
hvcNAQEFBQADggEBAIPFPUe4r5pwbMQwpORqhcHyzrpApTSZmjWTKovAJt1W6+Rr
NTvynh08OdWIzvmJqHtoGnHwZoxUHrU3gIv6i0UXpnwVin43qSn9hc1M/u3zrSXB
XWehlgLW0A6p4imBjSCK9terwfukRQzTu5l6EUPE4bScLgw/9uBTKge3PJp2V2Wp
B0ygFlZFt2nLl4O/v0kTituuMmFJGu1anLFQoDfCgm5fWi4xHylseyA0QZ9pg0XE
DCs5+t2cImktoOurrirCxVeopLj66rAndzicRe48d+EOvzDjJIpqxsfcWMyTo8Q/
VLfJLolJpUMdjvQGycPvBNNQ/43nWE8lF/kQtck=
-----END CERTIFICATE-----
