Certificate:
    Data:
        Version: 3 (0x2)
        Serial Number:
            17:7b:22:03:8b:ad:72:5a:55:62:c2:26:33:88:0c:d8
    Signature Algorithm: sha256WithRSAEncryption
        Issuer: C=FR, ST=Paris, L=Paris, O=Gandi, CN=Gandi Standard SSL CA 2
        Validity
            Not Before: Dec 20 00:00:00 2014 GMT
            Not After : Jan 13 23:59:59 2016 GMT
        Subject: OU=Domain Control Validated, OU=Gandi Standard SSL, CN=sip-ws.debian.org
        Subject Public Key Info:
            Public Key Algorithm: rsaEncryption
                Public-Key: (3072 bit)
                Modulus:
                    00:ba:a6:d2:26:06:bc:41:7e:32:0d:ba:e4:0a:66:
                    6e:3a:60:9f:d5:f8:53:3b:fe:44:9e:14:32:4b:b9:
                    5b:a9:6c:68:c3:a8:ff:10:a8:39:be:a0:74:dd:45:
                    18:d2:e6:26:04:52:c3:bc:47:d4:7e:85:ea:64:e6:
                    dd:aa:eb:ef:8c:fa:02:6a:86:6f:2b:c3:67:98:a9:
                    01:16:2d:f1:9a:b7:99:32:08:a5:2c:c0:4a:71:9b:
                    7d:8a:3f:b0:52:62:32:8f:5f:51:fb:2d:3d:9a:b3:
                    43:b5:ed:ee:13:ab:5a:7b:b1:aa:d9:63:ca:a7:25:
                    79:b8:d1:1b:e6:9f:7f:9d:ac:27:2b:d4:f2:b9:7e:
                    56:ac:c0:e0:dd:a0:2f:a6:06:67:51:d6:b7:65:11:
                    7c:0f:09:c2:16:cb:7f:78:c2:f4:7d:d8:8f:c0:c5:
                    98:74:7b:d8:af:f6:b7:19:ec:19:fb:47:5a:d3:86:
                    5b:20:4d:e2:da:1c:77:6d:61:2d:65:8e:64:ae:0d:
                    00:ba:8c:c3:49:57:5f:95:6f:5c:21:c6:ed:67:40:
                    67:39:c8:43:0c:bc:61:f6:c1:f9:27:bf:5d:d9:47:
                    9a:05:a0:ff:ad:d3:e5:0a:48:09:68:d5:d1:92:b9:
                    26:50:b8:1b:a4:7b:a9:3b:f0:0f:b3:ff:f8:02:74:
                    47:f0:3b:6f:80:d4:57:e4:93:7e:81:04:14:29:1e:
                    84:63:d8:70:0d:3f:5c:53:d3:e7:b0:36:b2:21:2a:
                    2a:2f:bc:ad:a1:c9:71:b6:c2:43:d3:dd:23:70:65:
                    ce:c9:a4:55:58:95:f0:66:81:3d:5f:65:b3:35:67:
                    b1:0c:82:86:84:4b:f9:0a:fa:75:7f:99:8b:8c:da:
                    91:7a:db:85:53:1d:e4:12:81:74:be:6b:c0:d0:3c:
                    fa:88:35:74:55:6a:d7:85:26:fa:6a:d8:c2:a6:ce:
                    75:17:a2:0c:23:b8:a0:a1:c3:9d:ab:8b:51:67:4a:
                    1e:a3:21:58:06:1f:de:37:bd:4f
                Exponent: 65537 (0x10001)
        X509v3 extensions:
            X509v3 Authority Key Identifier: 
                keyid:B3:90:A7:D8:C9:AF:4E:CD:61:3C:9F:7C:AD:5D:7F:41:FD:69:30:EA

            X509v3 Subject Key Identifier: 
                E9:DC:7B:40:D6:C8:59:1D:4D:65:BE:00:B4:96:8F:DF:6B:F9:F4:FE
            X509v3 Key Usage: critical
                Digital Signature, Key Encipherment
            X509v3 Basic Constraints: critical
                CA:FALSE
            X509v3 Extended Key Usage: 
                TLS Web Server Authentication, TLS Web Client Authentication
            X509v3 Certificate Policies: 
                Policy: 1.3.6.1.4.1.6449.1.2.2.26
                  CPS: https://cps.usertrust.com
                Policy: 2.23.140.1.2.1

            X509v3 CRL Distribution Points: 

                Full Name:
                  URI:http://crl.usertrust.com/GandiStandardSSLCA2.crl

            Authority Information Access: 
                CA Issuers - URI:http://crt.usertrust.com/GandiStandardSSLCA2.crt
                OCSP - URI:http://ocsp.usertrust.com

            X509v3 Subject Alternative Name: 
                DNS:sip-ws.debian.org, DNS:www.sip-ws.debian.org
    Signature Algorithm: sha256WithRSAEncryption
         44:6d:e2:68:fc:b2:f6:dc:f8:ec:3c:8c:4b:74:90:01:56:0a:
         58:95:c1:31:11:8a:99:f7:92:b8:08:dd:e9:e1:ab:98:49:13:
         0d:8a:4a:5e:8c:24:d6:37:3a:e3:db:59:91:0f:90:dd:fc:b6:
         9a:13:13:64:2f:fa:4c:11:38:6a:64:60:53:4f:35:6f:3a:d0:
         7b:c6:01:ee:21:0e:4c:03:86:5a:fa:44:80:4c:91:db:45:04:
         09:f7:f1:e3:f7:4c:71:82:10:2b:9f:8a:da:4d:a4:38:74:22:
         16:02:60:00:a1:7e:ac:a7:84:12:e8:79:e1:8c:10:2c:18:ff:
         88:9a:92:4b:8a:f5:7a:05:02:18:2f:9f:de:18:c9:63:0b:ee:
         b1:45:42:a4:d1:8d:75:54:e9:9c:16:1d:5b:57:b4:36:92:8c:
         9b:63:c6:a8:4b:56:7d:dd:54:db:23:a9:a2:b1:76:61:59:ef:
         bb:e6:a4:2c:b3:b7:78:91:73:8e:27:8e:b9:11:e7:52:c4:80:
         bf:e2:21:f5:fa:ca:a7:2b:7a:f9:81:6c:eb:a0:b3:3d:a6:a2:
         cf:a8:cc:2b:63:ac:52:14:6b:41:f4:7e:cf:53:28:e1:a8:db:
         6d:e4:d6:0d:3c:e6:2a:3e:eb:4a:d0:fb:e0:d7:a1:6e:d1:67:
         94:70:30:76
-----BEGIN CERTIFICATE-----
MIIFgjCCBGqgAwIBAgIQF3siA4utclpVYsImM4gM2DANBgkqhkiG9w0BAQsFADBf
MQswCQYDVQQGEwJGUjEOMAwGA1UECBMFUGFyaXMxDjAMBgNVBAcTBVBhcmlzMQ4w
DAYDVQQKEwVHYW5kaTEgMB4GA1UEAxMXR2FuZGkgU3RhbmRhcmQgU1NMIENBIDIw
HhcNMTQxMjIwMDAwMDAwWhcNMTYwMTEzMjM1OTU5WjBcMSEwHwYDVQQLExhEb21h
aW4gQ29udHJvbCBWYWxpZGF0ZWQxGzAZBgNVBAsTEkdhbmRpIFN0YW5kYXJkIFNT
TDEaMBgGA1UEAxMRc2lwLXdzLmRlYmlhbi5vcmcwggGiMA0GCSqGSIb3DQEBAQUA
A4IBjwAwggGKAoIBgQC6ptImBrxBfjINuuQKZm46YJ/V+FM7/kSeFDJLuVupbGjD
qP8QqDm+oHTdRRjS5iYEUsO8R9R+hepk5t2q6++M+gJqhm8rw2eYqQEWLfGat5ky
CKUswEpxm32KP7BSYjKPX1H7LT2as0O17e4Tq1p7sarZY8qnJXm40Rvmn3+drCcr
1PK5flaswODdoC+mBmdR1rdlEXwPCcIWy394wvR92I/AxZh0e9iv9rcZ7Bn7R1rT
hlsgTeLaHHdtYS1ljmSuDQC6jMNJV1+Vb1whxu1nQGc5yEMMvGH2wfknv13ZR5oF
oP+t0+UKSAlo1dGSuSZQuBuke6k78A+z//gCdEfwO2+A1Ffkk36BBBQpHoRj2HAN
P1xT0+ewNrIhKiovvK2hyXG2wkPT3SNwZc7JpFVYlfBmgT1fZbM1Z7EMgoaES/kK
+nV/mYuM2pF624VTHeQSgXS+a8DQPPqINXRVateFJvpq2MKmznUXogwjuKChw52r
i1FnSh6jIVgGH943vU8CAwEAAaOCAbswggG3MB8GA1UdIwQYMBaAFLOQp9jJr07N
YTyffK1df0H9aTDqMB0GA1UdDgQWBBTp3HtA1shZHU1lvgC0lo/fa/n0/jAOBgNV
HQ8BAf8EBAMCBaAwDAYDVR0TAQH/BAIwADAdBgNVHSUEFjAUBggrBgEFBQcDAQYI
KwYBBQUHAwIwSwYDVR0gBEQwQjA2BgsrBgEEAbIxAQICGjAnMCUGCCsGAQUFBwIB
FhlodHRwczovL2Nwcy51c2VydHJ1c3QuY29tMAgGBmeBDAECATBBBgNVHR8EOjA4
MDagNKAyhjBodHRwOi8vY3JsLnVzZXJ0cnVzdC5jb20vR2FuZGlTdGFuZGFyZFNT
TENBMi5jcmwwcwYIKwYBBQUHAQEEZzBlMDwGCCsGAQUFBzAChjBodHRwOi8vY3J0
LnVzZXJ0cnVzdC5jb20vR2FuZGlTdGFuZGFyZFNTTENBMi5jcnQwJQYIKwYBBQUH
MAGGGWh0dHA6Ly9vY3NwLnVzZXJ0cnVzdC5jb20wMwYDVR0RBCwwKoIRc2lwLXdz
LmRlYmlhbi5vcmeCFXd3dy5zaXAtd3MuZGViaWFuLm9yZzANBgkqhkiG9w0BAQsF
AAOCAQEARG3iaPyy9tz47DyMS3SQAVYKWJXBMRGKmfeSuAjd6eGrmEkTDYpKXowk
1jc649tZkQ+Q3fy2mhMTZC/6TBE4amRgU081bzrQe8YB7iEOTAOGWvpEgEyR20UE
Cffx4/dMcYIQK5+K2k2kOHQiFgJgAKF+rKeEEuh54YwQLBj/iJqSS4r1egUCGC+f
3hjJYwvusUVCpNGNdVTpnBYdW1e0NpKMm2PGqEtWfd1U2yOporF2YVnvu+akLLO3
eJFzjieOuRHnUsSAv+Ih9frKpyt6+YFs66CzPaaiz6jMK2OsUhRrQfR+z1Mo4ajb
beTWDTzmKj7rStD74NehbtFnlHAwdg==
-----END CERTIFICATE-----
