Certificate:
    Data:
        Version: 3 (0x2)
        Serial Number:
            f8:a1:1f:86:3c:00:85:63:a7:d7:17:35:26:92:a1:e6
    Signature Algorithm: sha1WithRSAEncryption
        Issuer: C=FR, O=GANDI SAS, CN=Gandi Standard SSL CA
        Validity
            Not Before: Dec 31 00:00:00 2013 GMT
            Not After : Dec 31 23:59:59 2014 GMT
        Subject: OU=Domain Control Validated, OU=Gandi Standard SSL, CN=sso.debian.org
        Subject Public Key Info:
            Public Key Algorithm: rsaEncryption
                Public-Key: (3072 bit)
                Modulus:
                    00:d0:5e:97:e4:17:d9:42:32:91:b8:e7:33:32:fd:
                    23:60:e3:95:60:fb:f8:f4:bd:20:47:81:65:18:95:
                    d6:42:98:b8:ba:3f:2d:be:ab:b9:df:fb:91:51:fc:
                    50:67:7a:a8:00:f9:97:bc:6e:d4:0d:36:05:12:b6:
                    54:48:f1:14:71:54:9d:92:71:27:7b:ad:2f:70:4e:
                    44:0a:e3:96:7f:60:b8:78:90:d7:9c:15:48:c5:ce:
                    ce:8c:49:3d:9c:f9:8b:5c:3f:47:74:a7:3d:14:4b:
                    c9:7f:ca:f5:be:17:1c:c5:f7:63:a1:5c:47:b8:d6:
                    04:1b:dc:e8:55:f5:ce:7c:f7:9f:40:b5:4c:be:f9:
                    a3:a7:c7:01:7d:b4:b2:20:c6:f1:5a:bc:98:04:2b:
                    07:bf:37:20:0f:c7:7d:26:5f:7b:38:1f:f0:fd:b0:
                    4d:00:5d:4d:4b:c0:03:1e:a2:4b:bb:db:fa:de:35:
                    68:7c:c8:7f:4b:6a:5a:0e:1b:bf:23:ac:eb:f4:60:
                    35:27:04:f7:97:3d:e5:c0:e5:c3:1a:d8:c5:47:8d:
                    2b:df:5f:f0:e7:9b:53:9f:8a:2f:3f:a7:74:9d:4b:
                    06:14:4d:d8:c7:e0:81:a8:4f:40:3a:78:fe:6e:3b:
                    3a:a3:dd:23:48:fe:c8:87:9f:eb:a5:12:79:e9:b2:
                    a7:a9:4f:63:37:44:7f:1a:90:55:38:02:eb:85:1e:
                    2e:c7:a7:f9:02:a7:c7:7f:40:fd:72:bc:b3:79:50:
                    39:0f:03:a6:5c:9a:d2:1a:3d:1d:56:80:61:54:9e:
                    c9:a3:f9:9e:cb:49:d1:0e:f2:31:21:a9:79:0a:24:
                    63:e7:6e:69:31:a6:6a:5f:1c:7c:77:67:e5:69:a1:
                    d9:3f:65:9f:8f:66:9f:54:8a:e4:1c:1b:6e:01:aa:
                    8c:e1:74:31:4d:90:92:67:ff:0e:1a:32:18:05:0c:
                    8c:2a:92:f5:44:0f:a6:72:2c:6d:2f:ec:8d:77:ca:
                    43:40:ce:75:2f:ab:76:43:cc:89
                Exponent: 65537 (0x10001)
        X509v3 extensions:
            X509v3 Authority Key Identifier: 
                keyid:B6:A8:FF:A2:A8:2F:D0:A6:CD:4B:B1:68:F3:E7:50:10:31:A7:79:21

            X509v3 Subject Key Identifier: 
                5B:38:D5:BA:26:5F:C3:DE:B2:10:57:54:E7:B0:4F:1C:39:FD:12:9B
            X509v3 Key Usage: critical
                Digital Signature, Key Encipherment
            X509v3 Basic Constraints: critical
                CA:FALSE
            X509v3 Extended Key Usage: 
                TLS Web Server Authentication, TLS Web Client Authentication
            X509v3 Certificate Policies: 
                Policy: 1.3.6.1.4.1.6449.1.2.2.26
                  CPS: http://www.gandi.net/contracts/fr/ssl/cps/pdf/
                Policy: 2.23.140.1.2.1

            X509v3 CRL Distribution Points: 

                Full Name:
                  URI:http://crl.gandi.net/GandiStandardSSLCA.crl

            Authority Information Access: 
                CA Issuers - URI:http://crt.gandi.net/GandiStandardSSLCA.crt
                OCSP - URI:http://ocsp.gandi.net

            X509v3 Subject Alternative Name: 
                DNS:sso.debian.org, DNS:www.sso.debian.org
    Signature Algorithm: sha1WithRSAEncryption
         ad:cd:63:32:e7:0c:f4:1c:16:2d:84:ec:66:68:d9:23:14:aa:
         a3:e6:7e:8b:e5:85:ec:78:2a:ee:0a:c6:b4:3d:dc:15:24:fc:
         e8:14:67:1a:79:f7:cf:b3:43:e4:12:75:80:61:80:f8:c0:09:
         6b:7e:5f:d9:95:f5:cc:6e:e4:4d:c7:f4:67:44:a1:83:fe:58:
         8a:89:7c:35:92:fe:48:36:8d:90:98:7b:89:98:41:f8:20:14:
         d9:d5:27:87:40:9e:54:be:1c:98:b1:5f:24:91:b3:b8:ec:8c:
         0b:31:17:59:e1:4e:be:b9:28:4c:ed:8c:6b:56:34:4e:8b:0d:
         50:17:19:e7:74:d2:83:4e:2c:c4:4b:40:b7:5b:45:f0:f4:f0:
         5e:9b:79:85:f5:6f:f4:df:65:e2:18:98:68:55:60:27:59:7e:
         c0:84:e0:3e:b2:44:42:b6:6c:bb:08:bf:88:12:e5:48:3e:40:
         60:3e:db:19:bc:bd:94:33:b7:be:1f:cc:60:c1:76:6e:cb:62:
         52:33:34:10:cf:2a:58:7d:5e:39:9c:ac:e2:1b:27:d4:dc:5b:
         10:f7:6c:c2:d8:13:d4:ad:bf:80:09:53:1e:05:35:94:2d:fb:
         98:4b:e2:f0:0d:42:8c:8c:1c:3e:c3:71:b2:d5:76:63:5e:87:
         93:12:c8:14
-----BEGIN CERTIFICATE-----
MIIFYzCCBEugAwIBAgIRAPihH4Y8AIVjp9cXNSaSoeYwDQYJKoZIhvcNAQEFBQAw
QTELMAkGA1UEBhMCRlIxEjAQBgNVBAoTCUdBTkRJIFNBUzEeMBwGA1UEAxMVR2Fu
ZGkgU3RhbmRhcmQgU1NMIENBMB4XDTEzMTIzMTAwMDAwMFoXDTE0MTIzMTIzNTk1
OVowWTEhMB8GA1UECxMYRG9tYWluIENvbnRyb2wgVmFsaWRhdGVkMRswGQYDVQQL
ExJHYW5kaSBTdGFuZGFyZCBTU0wxFzAVBgNVBAMTDnNzby5kZWJpYW4ub3JnMIIB
ojANBgkqhkiG9w0BAQEFAAOCAY8AMIIBigKCAYEA0F6X5BfZQjKRuOczMv0jYOOV
YPv49L0gR4FlGJXWQpi4uj8tvqu53/uRUfxQZ3qoAPmXvG7UDTYFErZUSPEUcVSd
knEne60vcE5ECuOWf2C4eJDXnBVIxc7OjEk9nPmLXD9HdKc9FEvJf8r1vhccxfdj
oVxHuNYEG9zoVfXOfPefQLVMvvmjp8cBfbSyIMbxWryYBCsHvzcgD8d9Jl97OB/w
/bBNAF1NS8ADHqJLu9v63jVofMh/S2paDhu/I6zr9GA1JwT3lz3lwOXDGtjFR40r
31/w55tTn4ovP6d0nUsGFE3Yx+CBqE9AOnj+bjs6o90jSP7Ih5/rpRJ56bKnqU9j
N0R/GpBVOALrhR4ux6f5AqfHf0D9cryzeVA5DwOmXJrSGj0dVoBhVJ7Jo/mey0nR
DvIxIal5CiRj525pMaZqXxx8d2flaaHZP2Wfj2afVIrkHBtuAaqM4XQxTZCSZ/8O
GjIYBQyMKpL1RA+mcixtL+yNd8pDQM51L6t2Q8yJAgMBAAGjggG8MIIBuDAfBgNV
HSMEGDAWgBS2qP+iqC/Qps1LsWjz51AQMad5ITAdBgNVHQ4EFgQUWzjVuiZfw96y
EFdU57BPHDn9EpswDgYDVR0PAQH/BAQDAgWgMAwGA1UdEwEB/wQCMAAwHQYDVR0l
BBYwFAYIKwYBBQUHAwEGCCsGAQUFBwMCMGAGA1UdIARZMFcwSwYLKwYBBAGyMQEC
AhowPDA6BggrBgEFBQcCARYuaHR0cDovL3d3dy5nYW5kaS5uZXQvY29udHJhY3Rz
L2ZyL3NzbC9jcHMvcGRmLzAIBgZngQwBAgEwPAYDVR0fBDUwMzAxoC+gLYYraHR0
cDovL2NybC5nYW5kaS5uZXQvR2FuZGlTdGFuZGFyZFNTTENBLmNybDBqBggrBgEF
BQcBAQReMFwwNwYIKwYBBQUHMAKGK2h0dHA6Ly9jcnQuZ2FuZGkubmV0L0dhbmRp
U3RhbmRhcmRTU0xDQS5jcnQwIQYIKwYBBQUHMAGGFWh0dHA6Ly9vY3NwLmdhbmRp
Lm5ldDAtBgNVHREEJjAkgg5zc28uZGViaWFuLm9yZ4ISd3d3LnNzby5kZWJpYW4u
b3JnMA0GCSqGSIb3DQEBBQUAA4IBAQCtzWMy5wz0HBYthOxmaNkjFKqj5n6L5YXs
eCruCsa0PdwVJPzoFGcaeffPs0PkEnWAYYD4wAlrfl/ZlfXMbuRNx/RnRKGD/liK
iXw1kv5INo2QmHuJmEH4IBTZ1SeHQJ5UvhyYsV8kkbO47IwLMRdZ4U6+uShM7Yxr
VjROiw1QFxnndNKDTizES0C3W0Xw9PBem3mF9W/032XiGJhoVWAnWX7AhOA+skRC
tmy7CL+IEuVIPkBgPtsZvL2UM7e+H8xgwXZuy2JSMzQQzypYfV45nKziGyfU3FsQ
92zC2BPUrb+ACVMeBTWULfuYS+LwDUKMjBw+w3Gy1XZjXoeTEsgU
-----END CERTIFICATE-----
