Certificate:
    Data:
        Version: 3 (0x2)
        Serial Number:
            69:cf:43:dd:53:e9:99:5c:81:d8:6c:93:8f:79:c6:3b
    Signature Algorithm: sha256WithRSAEncryption
        Issuer: C=FR, ST=Paris, L=Paris, O=Gandi, CN=Gandi Standard SSL CA 2
        Validity
            Not Before: Dec 17 00:00:00 2014 GMT
            Not After : Dec 31 23:59:59 2015 GMT
        Subject: OU=Domain Control Validated, OU=Gandi Standard SSL, CN=sso.debian.org
        Subject Public Key Info:
            Public Key Algorithm: rsaEncryption
                Public-Key: (3072 bit)
                Modulus:
                    00:d0:5e:97:e4:17:d9:42:32:91:b8:e7:33:32:fd:
                    23:60:e3:95:60:fb:f8:f4:bd:20:47:81:65:18:95:
                    d6:42:98:b8:ba:3f:2d:be:ab:b9:df:fb:91:51:fc:
                    50:67:7a:a8:00:f9:97:bc:6e:d4:0d:36:05:12:b6:
                    54:48:f1:14:71:54:9d:92:71:27:7b:ad:2f:70:4e:
                    44:0a:e3:96:7f:60:b8:78:90:d7:9c:15:48:c5:ce:
                    ce:8c:49:3d:9c:f9:8b:5c:3f:47:74:a7:3d:14:4b:
                    c9:7f:ca:f5:be:17:1c:c5:f7:63:a1:5c:47:b8:d6:
                    04:1b:dc:e8:55:f5:ce:7c:f7:9f:40:b5:4c:be:f9:
                    a3:a7:c7:01:7d:b4:b2:20:c6:f1:5a:bc:98:04:2b:
                    07:bf:37:20:0f:c7:7d:26:5f:7b:38:1f:f0:fd:b0:
                    4d:00:5d:4d:4b:c0:03:1e:a2:4b:bb:db:fa:de:35:
                    68:7c:c8:7f:4b:6a:5a:0e:1b:bf:23:ac:eb:f4:60:
                    35:27:04:f7:97:3d:e5:c0:e5:c3:1a:d8:c5:47:8d:
                    2b:df:5f:f0:e7:9b:53:9f:8a:2f:3f:a7:74:9d:4b:
                    06:14:4d:d8:c7:e0:81:a8:4f:40:3a:78:fe:6e:3b:
                    3a:a3:dd:23:48:fe:c8:87:9f:eb:a5:12:79:e9:b2:
                    a7:a9:4f:63:37:44:7f:1a:90:55:38:02:eb:85:1e:
                    2e:c7:a7:f9:02:a7:c7:7f:40:fd:72:bc:b3:79:50:
                    39:0f:03:a6:5c:9a:d2:1a:3d:1d:56:80:61:54:9e:
                    c9:a3:f9:9e:cb:49:d1:0e:f2:31:21:a9:79:0a:24:
                    63:e7:6e:69:31:a6:6a:5f:1c:7c:77:67:e5:69:a1:
                    d9:3f:65:9f:8f:66:9f:54:8a:e4:1c:1b:6e:01:aa:
                    8c:e1:74:31:4d:90:92:67:ff:0e:1a:32:18:05:0c:
                    8c:2a:92:f5:44:0f:a6:72:2c:6d:2f:ec:8d:77:ca:
                    43:40:ce:75:2f:ab:76:43:cc:89
                Exponent: 65537 (0x10001)
        X509v3 extensions:
            X509v3 Authority Key Identifier: 
                keyid:B3:90:A7:D8:C9:AF:4E:CD:61:3C:9F:7C:AD:5D:7F:41:FD:69:30:EA

            X509v3 Subject Key Identifier: 
                5B:38:D5:BA:26:5F:C3:DE:B2:10:57:54:E7:B0:4F:1C:39:FD:12:9B
            X509v3 Key Usage: critical
                Digital Signature, Key Encipherment
            X509v3 Basic Constraints: critical
                CA:FALSE
            X509v3 Extended Key Usage: 
                TLS Web Server Authentication, TLS Web Client Authentication
            X509v3 Certificate Policies: 
                Policy: 1.3.6.1.4.1.6449.1.2.2.26
                  CPS: https://cps.usertrust.com
                Policy: 2.23.140.1.2.1

            X509v3 CRL Distribution Points: 

                Full Name:
                  URI:http://crl.usertrust.com/GandiStandardSSLCA2.crl

            Authority Information Access: 
                CA Issuers - URI:http://crt.usertrust.com/GandiStandardSSLCA2.crt
                OCSP - URI:http://ocsp.usertrust.com

            X509v3 Subject Alternative Name: 
                DNS:sso.debian.org, DNS:www.sso.debian.org
    Signature Algorithm: sha256WithRSAEncryption
         8e:cb:09:c6:4c:3a:a1:c9:e3:f9:37:02:9e:6d:0d:49:d9:61:
         cc:5f:3a:7f:8e:7f:b8:75:d5:5f:8f:73:ea:e0:3e:38:b6:3b:
         bd:1e:fa:64:00:e0:6b:bb:be:2b:23:cf:01:4f:34:48:6f:0b:
         e9:53:30:dc:23:cf:99:75:07:1b:a5:62:69:ba:a3:6d:79:f0:
         38:2f:4a:8f:0b:ff:cd:ff:c9:0a:58:9f:91:a2:1f:d9:45:9a:
         15:12:e9:0d:a0:3a:d8:55:68:08:cd:22:79:22:6b:d1:4f:a4:
         3e:c3:d0:53:0b:44:5a:a8:b4:29:24:e0:56:20:4e:96:d4:02:
         f9:4f:31:a9:d5:ac:65:19:73:04:7e:98:da:75:17:d5:e0:0c:
         21:37:fd:5c:60:46:08:28:cb:c7:de:9b:ae:a3:73:9e:93:d4:
         ed:d7:f9:a6:13:81:52:a5:83:62:e7:ad:fb:44:a4:da:37:93:
         55:05:0e:d6:84:63:88:02:55:48:8f:88:db:b4:02:2b:d5:87:
         6e:e7:e1:b1:0e:95:47:27:de:09:b9:bd:0f:c6:ed:34:1e:ce:
         0a:bd:ba:b2:a4:a3:a3:4c:5f:c4:a2:1e:36:db:f0:d9:33:95:
         fd:c2:92:cb:4a:b3:43:0b:8e:fc:5a:eb:a7:b0:83:02:b5:68:
         1d:b2:e5:77
-----BEGIN CERTIFICATE-----
MIIFeTCCBGGgAwIBAgIQac9D3VPpmVyB2GyTj3nGOzANBgkqhkiG9w0BAQsFADBf
MQswCQYDVQQGEwJGUjEOMAwGA1UECBMFUGFyaXMxDjAMBgNVBAcTBVBhcmlzMQ4w
DAYDVQQKEwVHYW5kaTEgMB4GA1UEAxMXR2FuZGkgU3RhbmRhcmQgU1NMIENBIDIw
HhcNMTQxMjE3MDAwMDAwWhcNMTUxMjMxMjM1OTU5WjBZMSEwHwYDVQQLExhEb21h
aW4gQ29udHJvbCBWYWxpZGF0ZWQxGzAZBgNVBAsTEkdhbmRpIFN0YW5kYXJkIFNT
TDEXMBUGA1UEAxMOc3NvLmRlYmlhbi5vcmcwggGiMA0GCSqGSIb3DQEBAQUAA4IB
jwAwggGKAoIBgQDQXpfkF9lCMpG45zMy/SNg45Vg+/j0vSBHgWUYldZCmLi6Py2+
q7nf+5FR/FBneqgA+Ze8btQNNgUStlRI8RRxVJ2ScSd7rS9wTkQK45Z/YLh4kNec
FUjFzs6MST2c+YtcP0d0pz0US8l/yvW+FxzF92OhXEe41gQb3OhV9c58959AtUy+
+aOnxwF9tLIgxvFavJgEKwe/NyAPx30mX3s4H/D9sE0AXU1LwAMeoku72/reNWh8
yH9LaloOG78jrOv0YDUnBPeXPeXA5cMa2MVHjSvfX/Dnm1Ofii8/p3SdSwYUTdjH
4IGoT0A6eP5uOzqj3SNI/siHn+ulEnnpsqepT2M3RH8akFU4AuuFHi7Hp/kCp8d/
QP1yvLN5UDkPA6ZcmtIaPR1WgGFUnsmj+Z7LSdEO8jEhqXkKJGPnbmkxpmpfHHx3
Z+Vpodk/ZZ+PZp9UiuQcG24BqozhdDFNkJJn/w4aMhgFDIwqkvVED6ZyLG0v7I13
ykNAznUvq3ZDzIkCAwEAAaOCAbUwggGxMB8GA1UdIwQYMBaAFLOQp9jJr07NYTyf
fK1df0H9aTDqMB0GA1UdDgQWBBRbONW6Jl/D3rIQV1TnsE8cOf0SmzAOBgNVHQ8B
Af8EBAMCBaAwDAYDVR0TAQH/BAIwADAdBgNVHSUEFjAUBggrBgEFBQcDAQYIKwYB
BQUHAwIwSwYDVR0gBEQwQjA2BgsrBgEEAbIxAQICGjAnMCUGCCsGAQUFBwIBFhlo
dHRwczovL2Nwcy51c2VydHJ1c3QuY29tMAgGBmeBDAECATBBBgNVHR8EOjA4MDag
NKAyhjBodHRwOi8vY3JsLnVzZXJ0cnVzdC5jb20vR2FuZGlTdGFuZGFyZFNTTENB
Mi5jcmwwcwYIKwYBBQUHAQEEZzBlMDwGCCsGAQUFBzAChjBodHRwOi8vY3J0LnVz
ZXJ0cnVzdC5jb20vR2FuZGlTdGFuZGFyZFNTTENBMi5jcnQwJQYIKwYBBQUHMAGG
GWh0dHA6Ly9vY3NwLnVzZXJ0cnVzdC5jb20wLQYDVR0RBCYwJIIOc3NvLmRlYmlh
bi5vcmeCEnd3dy5zc28uZGViaWFuLm9yZzANBgkqhkiG9w0BAQsFAAOCAQEAjssJ
xkw6ocnj+TcCnm0NSdlhzF86f45/uHXVX49z6uA+OLY7vR76ZADga7u+KyPPAU80
SG8L6VMw3CPPmXUHG6ViabqjbXnwOC9Kjwv/zf/JClifkaIf2UWaFRLpDaA62FVo
CM0ieSJr0U+kPsPQUwtEWqi0KSTgViBOltQC+U8xqdWsZRlzBH6Y2nUX1eAMITf9
XGBGCCjLx96brqNznpPU7df5phOBUqWDYuet+0Sk2jeTVQUO1oRjiAJVSI+I27QC
K9WHbufhsQ6VRyfeCbm9D8btNB7OCr26sqSjo0xfxKIeNtvw2TOV/cKSy0qzQwuO
/Frrp7CDArVoHbLldw==
-----END CERTIFICATE-----
