Certificate:
    Data:
        Version: 3 (0x2)
        Serial Number:
            74:4a:e1:1b:54:04:16:ad:bd:28:09:1d:39:1b:7b:4a
    Signature Algorithm: sha256WithRSAEncryption
        Issuer: C=FR, ST=Paris, L=Paris, O=Gandi, CN=Gandi Standard SSL CA 2
        Validity
            Not Before: Mar 28 00:00:00 2015 GMT
            Not After : Apr 26 23:59:59 2016 GMT
        Subject: OU=Domain Control Validated, OU=Gandi Standard Wildcard SSL, CN=*.alioth.debian.org
        Subject Public Key Info:
            Public Key Algorithm: rsaEncryption
                Public-Key: (2048 bit)
                Modulus:
                    00:f1:86:fa:35:d6:ce:e5:de:28:89:91:5a:44:c5:
                    cb:39:be:50:12:d0:9d:0e:64:c9:2e:d7:f7:a0:4d:
                    b1:d5:17:41:6e:03:c5:0d:ff:fc:2d:90:b3:f4:29:
                    ad:17:8f:06:e4:fd:6c:06:85:3e:fb:6f:33:e5:a9:
                    b3:ed:da:f0:49:83:18:a9:74:1f:5d:97:a7:b9:63:
                    43:61:72:8d:26:c2:78:48:b6:e7:20:4d:13:d2:d6:
                    0e:f3:a0:12:bc:87:8d:6c:e4:c9:0a:07:01:d0:7c:
                    65:83:36:de:cb:d9:a6:f6:3d:57:2a:dc:47:e4:46:
                    db:00:14:e9:f9:7f:34:78:9f:fc:68:e1:e1:8b:02:
                    c9:ef:69:c8:0b:0d:88:e1:63:72:aa:95:16:ed:27:
                    c7:46:e8:32:47:ea:31:4a:d7:0c:91:25:29:71:f0:
                    9b:1a:fe:e6:ef:f3:43:49:07:11:81:9e:51:f7:82:
                    a0:3c:63:a5:de:04:bf:02:81:18:0d:a2:b7:ed:5d:
                    93:ab:9e:27:78:9d:b2:4b:e6:d5:be:5a:c5:78:61:
                    a0:6f:f2:9c:c2:5e:60:00:83:ef:1e:16:3c:08:3d:
                    54:ae:af:0f:6d:77:aa:d3:d1:4e:2b:d5:99:6a:59:
                    0b:9e:20:de:a5:d4:1f:f9:cc:3c:31:29:c5:e2:e5:
                    06:91
                Exponent: 65537 (0x10001)
        X509v3 extensions:
            X509v3 Authority Key Identifier: 
                keyid:B3:90:A7:D8:C9:AF:4E:CD:61:3C:9F:7C:AD:5D:7F:41:FD:69:30:EA

            X509v3 Subject Key Identifier: 
                DD:63:45:F1:50:22:68:E9:D9:D3:4D:83:F7:A5:EC:02:81:53:A4:E3
            X509v3 Key Usage: critical
                Digital Signature, Key Encipherment
            X509v3 Basic Constraints: critical
                CA:FALSE
            X509v3 Extended Key Usage: 
                TLS Web Server Authentication, TLS Web Client Authentication
            X509v3 Certificate Policies: 
                Policy: 1.3.6.1.4.1.6449.1.2.2.26
                  CPS: https://cps.usertrust.com
                Policy: 2.23.140.1.2.1

            X509v3 CRL Distribution Points: 

                Full Name:
                  URI:http://crl.usertrust.com/GandiStandardSSLCA2.crl

            Authority Information Access: 
                CA Issuers - URI:http://crt.usertrust.com/GandiStandardSSLCA2.crt
                OCSP - URI:http://ocsp.usertrust.com

            X509v3 Subject Alternative Name: 
                DNS:*.alioth.debian.org, DNS:alioth.debian.org
    Signature Algorithm: sha256WithRSAEncryption
         2f:52:46:c9:67:0a:70:a2:80:fc:7d:2f:bd:ac:c4:6b:8d:8c:
         d8:48:b1:bc:19:d4:f4:d2:45:43:6d:4a:81:c6:0a:55:2c:c8:
         15:6c:c3:bd:9e:ee:82:04:44:ee:f5:89:bd:c0:1e:bd:0e:39:
         c2:0c:6d:49:36:64:d4:4c:b1:59:d8:b0:d9:1a:05:25:a3:14:
         1c:54:92:f9:ce:3e:d3:71:47:fc:86:ce:ef:d6:89:96:23:72:
         bb:dd:d2:75:35:12:bf:f5:95:cc:bf:3c:e7:65:8a:70:de:31:
         f9:62:1b:8d:96:e1:1b:f4:73:96:35:0a:fc:9f:1a:2e:55:04:
         05:76:2f:2d:af:9d:68:31:0a:09:41:e7:e4:09:ef:b2:ae:09:
         6d:4c:4e:7b:ef:61:42:c6:f2:22:13:2b:a6:9d:8f:8a:74:47:
         b0:f8:94:f3:59:6b:bc:bc:40:73:f6:37:00:82:11:2e:83:41:
         97:37:9c:8f:e7:27:e1:1f:5f:2c:85:17:d2:3f:b6:8b:7d:0a:
         61:56:66:0c:09:2c:03:dc:5a:64:07:42:db:79:2a:fc:07:e5:
         fc:8c:0d:33:29:cf:f1:2f:93:a5:ae:dc:5e:20:a6:c4:d3:9b:
         a9:02:cb:b4:e6:68:ec:00:20:02:2a:62:da:a6:3f:db:57:94:
         49:bb:87:d7
-----BEGIN CERTIFICATE-----
MIIFCzCCA/OgAwIBAgIQdErhG1QEFq29KAkdORt7SjANBgkqhkiG9w0BAQsFADBf
MQswCQYDVQQGEwJGUjEOMAwGA1UECBMFUGFyaXMxDjAMBgNVBAcTBVBhcmlzMQ4w
DAYDVQQKEwVHYW5kaTEgMB4GA1UEAxMXR2FuZGkgU3RhbmRhcmQgU1NMIENBIDIw
HhcNMTUwMzI4MDAwMDAwWhcNMTYwNDI2MjM1OTU5WjBnMSEwHwYDVQQLExhEb21h
aW4gQ29udHJvbCBWYWxpZGF0ZWQxJDAiBgNVBAsTG0dhbmRpIFN0YW5kYXJkIFdp
bGRjYXJkIFNTTDEcMBoGA1UEAxQTKi5hbGlvdGguZGViaWFuLm9yZzCCASIwDQYJ
KoZIhvcNAQEBBQADggEPADCCAQoCggEBAPGG+jXWzuXeKImRWkTFyzm+UBLQnQ5k
yS7X96BNsdUXQW4DxQ3//C2Qs/QprRePBuT9bAaFPvtvM+Wps+3a8EmDGKl0H12X
p7ljQ2FyjSbCeEi25yBNE9LWDvOgEryHjWzkyQoHAdB8ZYM23svZpvY9VyrcR+RG
2wAU6fl/NHif/Gjh4YsCye9pyAsNiOFjcqqVFu0nx0boMkfqMUrXDJElKXHwmxr+
5u/zQ0kHEYGeUfeCoDxjpd4EvwKBGA2it+1dk6ueJ3idskvm1b5axXhhoG/ynMJe
YACD7x4WPAg9VK6vD213qtPRTivVmWpZC54g3qXUH/nMPDEpxeLlBpECAwEAAaOC
AbkwggG1MB8GA1UdIwQYMBaAFLOQp9jJr07NYTyffK1df0H9aTDqMB0GA1UdDgQW
BBTdY0XxUCJo6dnTTYP3pewCgVOk4zAOBgNVHQ8BAf8EBAMCBaAwDAYDVR0TAQH/
BAIwADAdBgNVHSUEFjAUBggrBgEFBQcDAQYIKwYBBQUHAwIwSwYDVR0gBEQwQjA2
BgsrBgEEAbIxAQICGjAnMCUGCCsGAQUFBwIBFhlodHRwczovL2Nwcy51c2VydHJ1
c3QuY29tMAgGBmeBDAECATBBBgNVHR8EOjA4MDagNKAyhjBodHRwOi8vY3JsLnVz
ZXJ0cnVzdC5jb20vR2FuZGlTdGFuZGFyZFNTTENBMi5jcmwwcwYIKwYBBQUHAQEE
ZzBlMDwGCCsGAQUFBzAChjBodHRwOi8vY3J0LnVzZXJ0cnVzdC5jb20vR2FuZGlT
dGFuZGFyZFNTTENBMi5jcnQwJQYIKwYBBQUHMAGGGWh0dHA6Ly9vY3NwLnVzZXJ0
cnVzdC5jb20wMQYDVR0RBCowKIITKi5hbGlvdGguZGViaWFuLm9yZ4IRYWxpb3Ro
LmRlYmlhbi5vcmcwDQYJKoZIhvcNAQELBQADggEBAC9SRslnCnCigPx9L72sxGuN
jNhIsbwZ1PTSRUNtSoHGClUsyBVsw72e7oIERO71ib3AHr0OOcIMbUk2ZNRMsVnY
sNkaBSWjFBxUkvnOPtNxR/yGzu/WiZYjcrvd0nU1Er/1lcy/POdlinDeMfliG42W
4Rv0c5Y1CvyfGi5VBAV2Ly2vnWgxCglB5+QJ77KuCW1MTnvvYULG8iITK6adj4p0
R7D4lPNZa7y8QHP2NwCCES6DQZc3nI/nJ+EfXyyFF9I/tot9CmFWZgwJLAPcWmQH
Qtt5KvwH5fyMDTMpz/Evk6Wu3F4gpsTTm6kCy7TmaOwAIAIqYtqmP9tXlEm7h9c=
-----END CERTIFICATE-----
