Certificate:
    Data:
        Version: 3 (0x2)
        Serial Number:
            44:db:31:b8:fa:4b:3d:3f:09:aa:20:bd:f5:1d:c7:ab
    Signature Algorithm: sha256WithRSAEncryption
        Issuer: C=FR, ST=Paris, L=Paris, O=Gandi, CN=Gandi Standard SSL CA 2
        Validity
            Not Before: Jun 20 00:00:00 2015 GMT
            Not After : Jun 27 23:59:59 2016 GMT
        Subject: OU=Domain Control Validated, OU=Gandi Standard SSL, CN=tracker.debian.org
        Subject Public Key Info:
            Public Key Algorithm: rsaEncryption
                Public-Key: (2048 bit)
                Modulus:
                    00:bc:a7:26:cb:d9:5b:5a:59:13:87:42:a0:1f:aa:
                    cb:97:a7:b1:41:ca:1a:e0:88:2f:9b:55:21:79:c1:
                    9f:db:93:28:f1:2a:a2:15:c4:73:d8:aa:79:a7:73:
                    75:7e:34:8b:09:83:13:6a:de:2b:21:71:a4:ba:bd:
                    f9:0f:fe:72:f2:5c:08:45:64:a7:0e:dc:a4:c7:f8:
                    0c:d4:6c:b3:be:40:7e:e8:11:61:aa:e2:31:b4:c8:
                    62:e6:c1:e3:53:83:fb:b7:3f:ea:8b:dc:2b:26:37:
                    85:a9:00:87:7b:d3:b7:6d:ee:92:9d:c8:2c:30:a2:
                    d4:5a:c0:48:0e:4f:5d:f0:90:00:78:94:b2:e5:a1:
                    df:32:9c:ed:f2:08:89:af:f6:30:4a:85:e2:c3:83:
                    c9:ae:3d:5c:e4:46:14:ae:01:ef:7f:f8:7d:be:33:
                    2d:2b:a9:c4:f7:25:1a:86:bb:77:03:7c:39:51:77:
                    b6:6c:33:c3:e7:b0:69:ad:09:d6:32:e1:97:c2:01:
                    58:4b:9d:21:4b:50:25:f8:79:ef:1f:b0:40:11:1d:
                    10:5a:19:f7:44:3d:24:7b:f2:27:8a:12:74:88:cf:
                    53:df:82:d7:97:37:6d:51:51:7f:8f:4b:40:29:2e:
                    d3:4e:9d:6a:06:28:2d:7e:0b:86:56:53:fb:61:4b:
                    91:71
                Exponent: 65537 (0x10001)
        X509v3 extensions:
            X509v3 Authority Key Identifier: 
                keyid:B3:90:A7:D8:C9:AF:4E:CD:61:3C:9F:7C:AD:5D:7F:41:FD:69:30:EA

            X509v3 Subject Key Identifier: 
                BA:25:20:3A:D9:13:AE:CE:FB:E6:31:E9:74:AD:58:6F:7E:86:2F:D7
            X509v3 Key Usage: critical
                Digital Signature, Key Encipherment
            X509v3 Basic Constraints: critical
                CA:FALSE
            X509v3 Extended Key Usage: 
                TLS Web Server Authentication, TLS Web Client Authentication
            X509v3 Certificate Policies: 
                Policy: 1.3.6.1.4.1.6449.1.2.2.26
                  CPS: https://cps.usertrust.com
                Policy: 2.23.140.1.2.1

            X509v3 CRL Distribution Points: 

                Full Name:
                  URI:http://crl.usertrust.com/GandiStandardSSLCA2.crl

            Authority Information Access: 
                CA Issuers - URI:http://crt.usertrust.com/GandiStandardSSLCA2.crt
                OCSP - URI:http://ocsp.usertrust.com

            X509v3 Subject Alternative Name: 
                DNS:tracker.debian.org, DNS:www.tracker.debian.org
    Signature Algorithm: sha256WithRSAEncryption
         5b:10:bb:97:97:03:5e:7f:e0:c6:00:e0:be:0f:48:fb:7f:d9:
         d7:59:0f:4d:5c:ab:0d:7d:3f:7c:5c:11:4b:4a:20:4f:cf:c5:
         bf:34:64:90:0d:78:8e:0a:26:7a:0d:04:3e:94:69:dc:01:37:
         a5:7c:3f:94:b3:76:cd:46:fb:b2:4d:55:b3:ed:51:cb:03:58:
         a8:e5:fe:59:d7:a9:24:c6:56:a8:27:e8:01:88:1c:4c:60:b1:
         c3:e8:26:0d:9f:c3:e2:6e:a5:e6:23:03:3d:a5:6a:70:c8:cd:
         50:3b:75:ec:f1:5b:bf:86:69:b7:f9:56:9b:76:ae:10:89:a0:
         37:17:72:b7:34:b2:16:40:e4:90:91:f0:bc:8b:92:af:1f:69:
         f3:85:fe:8a:f6:f7:d1:50:9b:ab:f6:31:6c:e8:cd:23:4c:68:
         51:5e:d2:52:44:84:a4:fa:6b:30:83:c3:ae:d0:33:09:73:80:
         c8:b7:f0:ce:21:2f:ee:ad:ad:56:85:34:b6:d2:1c:35:76:67:
         83:a8:37:9d:13:43:d1:84:8b:c1:15:8a:c2:5b:f3:65:5f:2e:
         00:88:da:7f:6e:2d:04:c1:11:58:02:2c:25:70:c4:19:2a:fb:
         69:5f:00:c0:93:4a:89:16:00:e6:06:c5:60:42:bf:6a:f8:b9:
         aa:c5:78:c3
-----BEGIN CERTIFICATE-----
MIIFBTCCA+2gAwIBAgIQRNsxuPpLPT8JqiC99R3HqzANBgkqhkiG9w0BAQsFADBf
MQswCQYDVQQGEwJGUjEOMAwGA1UECBMFUGFyaXMxDjAMBgNVBAcTBVBhcmlzMQ4w
DAYDVQQKEwVHYW5kaTEgMB4GA1UEAxMXR2FuZGkgU3RhbmRhcmQgU1NMIENBIDIw
HhcNMTUwNjIwMDAwMDAwWhcNMTYwNjI3MjM1OTU5WjBdMSEwHwYDVQQLExhEb21h
aW4gQ29udHJvbCBWYWxpZGF0ZWQxGzAZBgNVBAsTEkdhbmRpIFN0YW5kYXJkIFNT
TDEbMBkGA1UEAxMSdHJhY2tlci5kZWJpYW4ub3JnMIIBIjANBgkqhkiG9w0BAQEF
AAOCAQ8AMIIBCgKCAQEAvKcmy9lbWlkTh0KgH6rLl6exQcoa4Igvm1UhecGf25Mo
8SqiFcRz2Kp5p3N1fjSLCYMTat4rIXGkur35D/5y8lwIRWSnDtykx/gM1GyzvkB+
6BFhquIxtMhi5sHjU4P7tz/qi9wrJjeFqQCHe9O3be6SncgsMKLUWsBIDk9d8JAA
eJSy5aHfMpzt8giJr/YwSoXiw4PJrj1c5EYUrgHvf/h9vjMtK6nE9yUahrt3A3w5
UXe2bDPD57BprQnWMuGXwgFYS50hS1Al+HnvH7BAER0QWhn3RD0ke/InihJ0iM9T
34LXlzdtUVF/j0tAKS7TTp1qBigtfguGVlP7YUuRcQIDAQABo4IBvTCCAbkwHwYD
VR0jBBgwFoAUs5Cn2MmvTs1hPJ98rV1/Qf1pMOowHQYDVR0OBBYEFLolIDrZE67O
++Yx6XStWG9+hi/XMA4GA1UdDwEB/wQEAwIFoDAMBgNVHRMBAf8EAjAAMB0GA1Ud
JQQWMBQGCCsGAQUFBwMBBggrBgEFBQcDAjBLBgNVHSAERDBCMDYGCysGAQQBsjEB
AgIaMCcwJQYIKwYBBQUHAgEWGWh0dHBzOi8vY3BzLnVzZXJ0cnVzdC5jb20wCAYG
Z4EMAQIBMEEGA1UdHwQ6MDgwNqA0oDKGMGh0dHA6Ly9jcmwudXNlcnRydXN0LmNv
bS9HYW5kaVN0YW5kYXJkU1NMQ0EyLmNybDBzBggrBgEFBQcBAQRnMGUwPAYIKwYB
BQUHMAKGMGh0dHA6Ly9jcnQudXNlcnRydXN0LmNvbS9HYW5kaVN0YW5kYXJkU1NM
Q0EyLmNydDAlBggrBgEFBQcwAYYZaHR0cDovL29jc3AudXNlcnRydXN0LmNvbTA1
BgNVHREELjAsghJ0cmFja2VyLmRlYmlhbi5vcmeCFnd3dy50cmFja2VyLmRlYmlh
bi5vcmcwDQYJKoZIhvcNAQELBQADggEBAFsQu5eXA15/4MYA4L4PSPt/2ddZD01c
qw19P3xcEUtKIE/Pxb80ZJANeI4KJnoNBD6UadwBN6V8P5Szds1G+7JNVbPtUcsD
WKjl/lnXqSTGVqgn6AGIHExgscPoJg2fw+JupeYjAz2lanDIzVA7dezxW7+Gabf5
Vpt2rhCJoDcXcrc0shZA5JCR8LyLkq8fafOF/or299FQm6v2MWzozSNMaFFe0lJE
hKT6azCDw67QMwlzgMi38M4hL+6trVaFNLbSHDV2Z4OoN50TQ9GEi8EVisJb82Vf
LgCI2n9uLQTBEVgCLCVwxBkq+2lfAMCTSokWAOYGxWBCv2r4uarFeMM=
-----END CERTIFICATE-----
