Certificate:
    Data:
        Version: 3 (0x2)
        Serial Number:
            06:97:99:a5:04:7a:f9:d2:38:1f:8b:1c:bb:c7:43:46
    Signature Algorithm: sha1WithRSAEncryption
        Issuer: C=FR, O=GANDI SAS, CN=Gandi Standard SSL CA
        Validity
            Not Before: Dec 16 00:00:00 2014 GMT
            Not After : Dec 30 23:59:59 2015 GMT
        Subject: OU=Domain Control Validated, OU=Gandi Standard SSL, CN=udd.debian.org
        Subject Public Key Info:
            Public Key Algorithm: rsaEncryption
                Public-Key: (3072 bit)
                Modulus:
                    00:c1:eb:19:ed:92:6f:75:c5:03:29:c5:44:91:6c:
                    a8:89:34:02:54:1a:70:ce:ea:3d:db:ee:dd:aa:4f:
                    04:03:e7:eb:46:54:92:92:a6:70:03:1d:48:9b:c1:
                    0d:b6:77:d3:98:4e:c9:51:e5:6d:a3:9e:62:71:50:
                    53:65:70:ea:7b:84:3f:97:2e:37:74:f5:fe:78:0d:
                    1d:3a:27:b0:7a:32:ba:23:95:d4:07:31:2d:5e:5c:
                    4c:3f:12:29:bf:f3:22:72:e7:d0:8d:8b:dc:ec:6c:
                    bc:cf:ca:c9:d3:5a:9b:07:6f:d7:9b:cb:66:33:e8:
                    fd:de:62:92:f2:f7:54:7c:49:0c:b3:4b:f5:da:e3:
                    28:7d:38:48:34:80:b9:52:b8:24:03:a4:cb:ee:17:
                    d8:88:43:55:7c:e3:9c:34:e1:eb:a5:07:85:b4:d3:
                    91:75:1f:6c:ea:c2:07:f0:4e:3d:8b:af:8d:4b:f8:
                    72:ca:6f:34:e5:0e:c4:d7:0b:e0:86:da:cc:1b:4f:
                    d7:f6:7b:59:2f:be:84:53:cd:04:15:a5:1f:ab:45:
                    ac:fd:90:21:9a:26:f4:4b:d2:ac:c4:69:d8:5a:f4:
                    2c:74:31:ad:70:44:2a:b0:d8:57:20:17:0b:70:e4:
                    ca:a5:c9:5a:bb:d5:6c:2f:8e:8c:cf:b0:37:57:17:
                    8d:e6:0f:c4:94:45:6c:1a:b4:1a:34:7d:4e:35:de:
                    16:d7:22:5d:49:f5:49:78:3b:fa:cc:04:f9:d9:c5:
                    dd:b5:8a:a0:d1:ec:e4:d3:0d:5b:8f:57:65:a2:31:
                    4f:6f:8c:98:cc:59:eb:25:74:d8:19:e0:43:10:f3:
                    80:0c:8e:74:0f:3f:31:24:17:c9:91:ff:59:1b:9a:
                    57:4e:9b:87:92:8b:91:68:a2:a5:a2:95:63:7f:2d:
                    d7:66:4c:9d:f7:74:6d:00:3b:a4:3c:d3:71:c9:30:
                    b7:f5:84:ee:0f:1c:22:1a:bf:92:b5:31:ab:09:dc:
                    b2:f6:25:2d:bc:46:67:1c:d8:33
                Exponent: 65537 (0x10001)
        X509v3 extensions:
            X509v3 Authority Key Identifier: 
                keyid:B6:A8:FF:A2:A8:2F:D0:A6:CD:4B:B1:68:F3:E7:50:10:31:A7:79:21

            X509v3 Subject Key Identifier: 
                C9:00:B8:C3:DE:B0:10:B5:9B:9E:7C:EF:32:20:81:65:89:50:15:10
            X509v3 Key Usage: critical
                Digital Signature, Key Encipherment
            X509v3 Basic Constraints: critical
                CA:FALSE
            X509v3 Extended Key Usage: 
                TLS Web Server Authentication, TLS Web Client Authentication
            X509v3 Certificate Policies: 
                Policy: 1.3.6.1.4.1.6449.1.2.2.26
                  CPS: http://www.gandi.net/contracts/fr/ssl/cps/pdf/
                Policy: 2.23.140.1.2.1

            X509v3 CRL Distribution Points: 

                Full Name:
                  URI:http://crl.gandi.net/GandiStandardSSLCA.crl

            Authority Information Access: 
                CA Issuers - URI:http://crt.gandi.net/GandiStandardSSLCA.crt
                OCSP - URI:http://ocsp.gandi.net

            X509v3 Subject Alternative Name: 
                DNS:udd.debian.org, DNS:www.udd.debian.org
    Signature Algorithm: sha1WithRSAEncryption
         29:36:c0:e8:d1:7a:25:f5:54:33:d4:f1:77:bc:e2:48:11:1c:
         21:b2:4c:06:eb:70:e5:8e:5d:06:8e:e7:86:17:70:88:47:02:
         b1:9e:0c:03:a6:cd:07:da:6d:79:da:13:4b:4c:18:1d:03:54:
         c0:ff:27:40:cf:a4:66:06:be:6c:74:fe:76:7b:33:ad:be:15:
         0f:8e:af:b5:c9:ee:cd:34:32:7c:e2:74:19:ec:73:0e:a8:c6:
         ab:f9:b2:f5:e3:11:c7:54:1f:04:f3:f1:38:fc:c5:8d:ea:3e:
         ef:e9:31:20:cf:a6:b1:9a:62:da:33:75:12:40:2e:f0:9b:34:
         0c:4d:9c:4b:6f:be:d7:91:7b:4d:26:21:4e:0a:c7:ab:bc:aa:
         a1:12:62:7c:ef:88:5d:c6:09:a2:5b:65:12:a7:87:2b:82:06:
         f2:e7:ed:2a:42:25:1e:15:b4:fe:b0:34:a8:70:ec:cf:da:35:
         7c:fe:9e:e3:7c:2f:46:86:97:fa:84:3c:5f:9b:c9:e5:1d:35:
         44:3f:93:a7:e8:fe:43:92:8c:f3:59:d3:57:01:b1:23:e8:e9:
         1c:7a:86:92:5d:63:55:f8:42:83:45:65:21:80:48:69:55:91:
         b2:1c:e7:c5:e0:18:cf:e6:8e:e1:aa:5f:56:21:79:db:58:c6:
         7a:11:6e:1a
-----BEGIN CERTIFICATE-----
MIIFYjCCBEqgAwIBAgIQBpeZpQR6+dI4H4scu8dDRjANBgkqhkiG9w0BAQUFADBB
MQswCQYDVQQGEwJGUjESMBAGA1UEChMJR0FOREkgU0FTMR4wHAYDVQQDExVHYW5k
aSBTdGFuZGFyZCBTU0wgQ0EwHhcNMTQxMjE2MDAwMDAwWhcNMTUxMjMwMjM1OTU5
WjBZMSEwHwYDVQQLExhEb21haW4gQ29udHJvbCBWYWxpZGF0ZWQxGzAZBgNVBAsT
EkdhbmRpIFN0YW5kYXJkIFNTTDEXMBUGA1UEAxMOdWRkLmRlYmlhbi5vcmcwggGi
MA0GCSqGSIb3DQEBAQUAA4IBjwAwggGKAoIBgQDB6xntkm91xQMpxUSRbKiJNAJU
GnDO6j3b7t2qTwQD5+tGVJKSpnADHUibwQ22d9OYTslR5W2jnmJxUFNlcOp7hD+X
Ljd09f54DR06J7B6MrojldQHMS1eXEw/Eim/8yJy59CNi9zsbLzPysnTWpsHb9eb
y2Yz6P3eYpLy91R8SQyzS/Xa4yh9OEg0gLlSuCQDpMvuF9iIQ1V845w04eulB4W0
05F1H2zqwgfwTj2Lr41L+HLKbzTlDsTXC+CG2swbT9f2e1kvvoRTzQQVpR+rRaz9
kCGaJvRL0qzEadha9Cx0Ma1wRCqw2FcgFwtw5MqlyVq71WwvjozPsDdXF43mD8SU
RWwatBo0fU413hbXIl1J9Ul4O/rMBPnZxd21iqDR7OTTDVuPV2WiMU9vjJjMWesl
dNgZ4EMQ84AMjnQPPzEkF8mR/1kbmldOm4eSi5FooqWilWN/LddmTJ33dG0AO6Q8
03HJMLf1hO4PHCIav5K1MasJ3LL2JS28Rmcc2DMCAwEAAaOCAbwwggG4MB8GA1Ud
IwQYMBaAFLao/6KoL9CmzUuxaPPnUBAxp3khMB0GA1UdDgQWBBTJALjD3rAQtZue
fO8yIIFliVAVEDAOBgNVHQ8BAf8EBAMCBaAwDAYDVR0TAQH/BAIwADAdBgNVHSUE
FjAUBggrBgEFBQcDAQYIKwYBBQUHAwIwYAYDVR0gBFkwVzBLBgsrBgEEAbIxAQIC
GjA8MDoGCCsGAQUFBwIBFi5odHRwOi8vd3d3LmdhbmRpLm5ldC9jb250cmFjdHMv
ZnIvc3NsL2Nwcy9wZGYvMAgGBmeBDAECATA8BgNVHR8ENTAzMDGgL6AthitodHRw
Oi8vY3JsLmdhbmRpLm5ldC9HYW5kaVN0YW5kYXJkU1NMQ0EuY3JsMGoGCCsGAQUF
BwEBBF4wXDA3BggrBgEFBQcwAoYraHR0cDovL2NydC5nYW5kaS5uZXQvR2FuZGlT
dGFuZGFyZFNTTENBLmNydDAhBggrBgEFBQcwAYYVaHR0cDovL29jc3AuZ2FuZGku
bmV0MC0GA1UdEQQmMCSCDnVkZC5kZWJpYW4ub3JnghJ3d3cudWRkLmRlYmlhbi5v
cmcwDQYJKoZIhvcNAQEFBQADggEBACk2wOjReiX1VDPU8Xe84kgRHCGyTAbrcOWO
XQaO54YXcIhHArGeDAOmzQfabXnaE0tMGB0DVMD/J0DPpGYGvmx0/nZ7M62+FQ+O
r7XJ7s00MnzidBnscw6oxqv5svXjEcdUHwTz8Tj8xY3qPu/pMSDPprGaYtozdRJA
LvCbNAxNnEtvvteRe00mIU4Kx6u8qqESYnzviF3GCaJbZRKnhyuCBvLn7SpCJR4V
tP6wNKhw7M/aNXz+nuN8L0aGl/qEPF+byeUdNUQ/k6fo/kOSjPNZ01cBsSPo6Rx6
hpJdY1X4QoNFZSGASGlVkbIc58XgGM/mjuGqX1YhedtYxnoRbho=
-----END CERTIFICATE-----
