Certificate:
    Data:
        Version: 3 (0x2)
        Serial Number:
            69:f5:01:3d:88:04:c3:dd:99:29:bf:be:a3:8c:a7:a0
    Signature Algorithm: sha256WithRSAEncryption
        Issuer: C=FR, ST=Paris, L=Paris, O=Gandi, CN=Gandi Standard SSL CA 2
        Validity
            Not Before: Dec 16 00:00:00 2014 GMT
            Not After : Dec 30 23:59:59 2015 GMT
        Subject: OU=Domain Control Validated, OU=Gandi Standard SSL, CN=udd.debian.org
        Subject Public Key Info:
            Public Key Algorithm: rsaEncryption
                Public-Key: (3072 bit)
                Modulus:
                    00:c1:eb:19:ed:92:6f:75:c5:03:29:c5:44:91:6c:
                    a8:89:34:02:54:1a:70:ce:ea:3d:db:ee:dd:aa:4f:
                    04:03:e7:eb:46:54:92:92:a6:70:03:1d:48:9b:c1:
                    0d:b6:77:d3:98:4e:c9:51:e5:6d:a3:9e:62:71:50:
                    53:65:70:ea:7b:84:3f:97:2e:37:74:f5:fe:78:0d:
                    1d:3a:27:b0:7a:32:ba:23:95:d4:07:31:2d:5e:5c:
                    4c:3f:12:29:bf:f3:22:72:e7:d0:8d:8b:dc:ec:6c:
                    bc:cf:ca:c9:d3:5a:9b:07:6f:d7:9b:cb:66:33:e8:
                    fd:de:62:92:f2:f7:54:7c:49:0c:b3:4b:f5:da:e3:
                    28:7d:38:48:34:80:b9:52:b8:24:03:a4:cb:ee:17:
                    d8:88:43:55:7c:e3:9c:34:e1:eb:a5:07:85:b4:d3:
                    91:75:1f:6c:ea:c2:07:f0:4e:3d:8b:af:8d:4b:f8:
                    72:ca:6f:34:e5:0e:c4:d7:0b:e0:86:da:cc:1b:4f:
                    d7:f6:7b:59:2f:be:84:53:cd:04:15:a5:1f:ab:45:
                    ac:fd:90:21:9a:26:f4:4b:d2:ac:c4:69:d8:5a:f4:
                    2c:74:31:ad:70:44:2a:b0:d8:57:20:17:0b:70:e4:
                    ca:a5:c9:5a:bb:d5:6c:2f:8e:8c:cf:b0:37:57:17:
                    8d:e6:0f:c4:94:45:6c:1a:b4:1a:34:7d:4e:35:de:
                    16:d7:22:5d:49:f5:49:78:3b:fa:cc:04:f9:d9:c5:
                    dd:b5:8a:a0:d1:ec:e4:d3:0d:5b:8f:57:65:a2:31:
                    4f:6f:8c:98:cc:59:eb:25:74:d8:19:e0:43:10:f3:
                    80:0c:8e:74:0f:3f:31:24:17:c9:91:ff:59:1b:9a:
                    57:4e:9b:87:92:8b:91:68:a2:a5:a2:95:63:7f:2d:
                    d7:66:4c:9d:f7:74:6d:00:3b:a4:3c:d3:71:c9:30:
                    b7:f5:84:ee:0f:1c:22:1a:bf:92:b5:31:ab:09:dc:
                    b2:f6:25:2d:bc:46:67:1c:d8:33
                Exponent: 65537 (0x10001)
        X509v3 extensions:
            X509v3 Authority Key Identifier: 
                keyid:B3:90:A7:D8:C9:AF:4E:CD:61:3C:9F:7C:AD:5D:7F:41:FD:69:30:EA

            X509v3 Subject Key Identifier: 
                C9:00:B8:C3:DE:B0:10:B5:9B:9E:7C:EF:32:20:81:65:89:50:15:10
            X509v3 Key Usage: critical
                Digital Signature, Key Encipherment
            X509v3 Basic Constraints: critical
                CA:FALSE
            X509v3 Extended Key Usage: 
                TLS Web Server Authentication, TLS Web Client Authentication
            X509v3 Certificate Policies: 
                Policy: 1.3.6.1.4.1.6449.1.2.2.26
                  CPS: https://cps.usertrust.com
                Policy: 2.23.140.1.2.1

            X509v3 CRL Distribution Points: 

                Full Name:
                  URI:http://crl.usertrust.com/GandiStandardSSLCA2.crl

            Authority Information Access: 
                CA Issuers - URI:http://crt.usertrust.com/GandiStandardSSLCA2.crt
                OCSP - URI:http://ocsp.usertrust.com

            X509v3 Subject Alternative Name: 
                DNS:udd.debian.org, DNS:www.udd.debian.org
    Signature Algorithm: sha256WithRSAEncryption
         43:7b:b2:bd:4d:57:23:b9:a4:34:9a:eb:61:46:f9:07:fe:e0:
         20:b5:c1:3a:7f:5b:15:bf:fb:11:31:fc:87:84:6f:e3:f7:f4:
         ba:5e:84:80:0e:0e:90:c4:35:9a:af:f9:64:95:fa:b0:18:c1:
         e1:4f:d4:4a:95:8b:7b:52:98:72:aa:ef:8e:d4:28:47:01:46:
         2a:bd:91:f6:4c:bf:16:75:48:ad:c4:28:36:65:4e:37:bd:54:
         34:db:c3:85:4d:ae:00:fe:fc:5c:e7:85:74:e8:6b:0f:57:28:
         88:de:21:73:11:ca:0e:a0:c7:c9:1a:d2:92:4f:bc:23:ab:f6:
         a1:72:26:ab:b6:2a:ea:3f:22:13:88:59:06:7a:54:70:00:ce:
         16:b6:68:ae:16:38:9f:e5:55:ba:91:f0:4c:54:4a:6b:36:f8:
         e6:be:c3:87:1d:a7:d9:3e:51:c1:dd:0f:2d:98:ba:56:17:cf:
         5b:ce:e1:84:44:18:35:8e:f8:e0:df:34:9a:ed:d9:78:58:dc:
         fe:46:9a:f9:4e:67:5b:fc:06:0d:96:8d:8d:87:5f:55:42:72:
         4e:3b:8a:aa:6d:2e:29:93:79:66:4a:8c:ef:85:ed:9e:db:64:
         10:bf:86:db:e0:45:aa:94:46:a6:c1:b1:c4:8d:6f:88:57:8b:
         fb:44:03:6c
-----BEGIN CERTIFICATE-----
MIIFeTCCBGGgAwIBAgIQafUBPYgEw92ZKb++o4ynoDANBgkqhkiG9w0BAQsFADBf
MQswCQYDVQQGEwJGUjEOMAwGA1UECBMFUGFyaXMxDjAMBgNVBAcTBVBhcmlzMQ4w
DAYDVQQKEwVHYW5kaTEgMB4GA1UEAxMXR2FuZGkgU3RhbmRhcmQgU1NMIENBIDIw
HhcNMTQxMjE2MDAwMDAwWhcNMTUxMjMwMjM1OTU5WjBZMSEwHwYDVQQLExhEb21h
aW4gQ29udHJvbCBWYWxpZGF0ZWQxGzAZBgNVBAsTEkdhbmRpIFN0YW5kYXJkIFNT
TDEXMBUGA1UEAxMOdWRkLmRlYmlhbi5vcmcwggGiMA0GCSqGSIb3DQEBAQUAA4IB
jwAwggGKAoIBgQDB6xntkm91xQMpxUSRbKiJNAJUGnDO6j3b7t2qTwQD5+tGVJKS
pnADHUibwQ22d9OYTslR5W2jnmJxUFNlcOp7hD+XLjd09f54DR06J7B6MrojldQH
MS1eXEw/Eim/8yJy59CNi9zsbLzPysnTWpsHb9eby2Yz6P3eYpLy91R8SQyzS/Xa
4yh9OEg0gLlSuCQDpMvuF9iIQ1V845w04eulB4W005F1H2zqwgfwTj2Lr41L+HLK
bzTlDsTXC+CG2swbT9f2e1kvvoRTzQQVpR+rRaz9kCGaJvRL0qzEadha9Cx0Ma1w
RCqw2FcgFwtw5MqlyVq71WwvjozPsDdXF43mD8SURWwatBo0fU413hbXIl1J9Ul4
O/rMBPnZxd21iqDR7OTTDVuPV2WiMU9vjJjMWesldNgZ4EMQ84AMjnQPPzEkF8mR
/1kbmldOm4eSi5FooqWilWN/LddmTJ33dG0AO6Q803HJMLf1hO4PHCIav5K1MasJ
3LL2JS28Rmcc2DMCAwEAAaOCAbUwggGxMB8GA1UdIwQYMBaAFLOQp9jJr07NYTyf
fK1df0H9aTDqMB0GA1UdDgQWBBTJALjD3rAQtZuefO8yIIFliVAVEDAOBgNVHQ8B
Af8EBAMCBaAwDAYDVR0TAQH/BAIwADAdBgNVHSUEFjAUBggrBgEFBQcDAQYIKwYB
BQUHAwIwSwYDVR0gBEQwQjA2BgsrBgEEAbIxAQICGjAnMCUGCCsGAQUFBwIBFhlo
dHRwczovL2Nwcy51c2VydHJ1c3QuY29tMAgGBmeBDAECATBBBgNVHR8EOjA4MDag
NKAyhjBodHRwOi8vY3JsLnVzZXJ0cnVzdC5jb20vR2FuZGlTdGFuZGFyZFNTTENB
Mi5jcmwwcwYIKwYBBQUHAQEEZzBlMDwGCCsGAQUFBzAChjBodHRwOi8vY3J0LnVz
ZXJ0cnVzdC5jb20vR2FuZGlTdGFuZGFyZFNTTENBMi5jcnQwJQYIKwYBBQUHMAGG
GWh0dHA6Ly9vY3NwLnVzZXJ0cnVzdC5jb20wLQYDVR0RBCYwJIIOdWRkLmRlYmlh
bi5vcmeCEnd3dy51ZGQuZGViaWFuLm9yZzANBgkqhkiG9w0BAQsFAAOCAQEAQ3uy
vU1XI7mkNJrrYUb5B/7gILXBOn9bFb/7ETH8h4Rv4/f0ul6EgA4OkMQ1mq/5ZJX6
sBjB4U/USpWLe1KYcqrvjtQoRwFGKr2R9ky/FnVIrcQoNmVON71UNNvDhU2uAP78
XOeFdOhrD1coiN4hcxHKDqDHyRrSkk+8I6v2oXImq7Yq6j8iE4hZBnpUcADOFrZo
rhY4n+VVupHwTFRKazb45r7Dhx2n2T5Rwd0PLZi6VhfPW87hhEQYNY744N80mu3Z
eFjc/kaa+U5nW/wGDZaNjYdfVUJyTjuKqm0uKZN5ZkqM74XtnttkEL+G2+BFqpRG
psGxxI1viFeL+0QDbA==
-----END CERTIFICATE-----
