Certificate:
    Data:
        Version: 3 (0x2)
        Serial Number:
            bb:27:08:0a:32:ae:fa:2d:b2:9d:f5:db:ee:88:fa:94
    Signature Algorithm: sha1WithRSAEncryption
        Issuer: C=FR, O=GANDI SAS, CN=Gandi Standard SSL CA
        Validity
            Not Before: Dec 30 00:00:00 2013 GMT
            Not After : Dec 30 23:59:59 2014 GMT
        Subject: OU=Domain Control Validated, OU=Gandi Standard SSL, CN=udd.debian.org
        Subject Public Key Info:
            Public Key Algorithm: rsaEncryption
                Public-Key: (3072 bit)
                Modulus:
                    00:c1:eb:19:ed:92:6f:75:c5:03:29:c5:44:91:6c:
                    a8:89:34:02:54:1a:70:ce:ea:3d:db:ee:dd:aa:4f:
                    04:03:e7:eb:46:54:92:92:a6:70:03:1d:48:9b:c1:
                    0d:b6:77:d3:98:4e:c9:51:e5:6d:a3:9e:62:71:50:
                    53:65:70:ea:7b:84:3f:97:2e:37:74:f5:fe:78:0d:
                    1d:3a:27:b0:7a:32:ba:23:95:d4:07:31:2d:5e:5c:
                    4c:3f:12:29:bf:f3:22:72:e7:d0:8d:8b:dc:ec:6c:
                    bc:cf:ca:c9:d3:5a:9b:07:6f:d7:9b:cb:66:33:e8:
                    fd:de:62:92:f2:f7:54:7c:49:0c:b3:4b:f5:da:e3:
                    28:7d:38:48:34:80:b9:52:b8:24:03:a4:cb:ee:17:
                    d8:88:43:55:7c:e3:9c:34:e1:eb:a5:07:85:b4:d3:
                    91:75:1f:6c:ea:c2:07:f0:4e:3d:8b:af:8d:4b:f8:
                    72:ca:6f:34:e5:0e:c4:d7:0b:e0:86:da:cc:1b:4f:
                    d7:f6:7b:59:2f:be:84:53:cd:04:15:a5:1f:ab:45:
                    ac:fd:90:21:9a:26:f4:4b:d2:ac:c4:69:d8:5a:f4:
                    2c:74:31:ad:70:44:2a:b0:d8:57:20:17:0b:70:e4:
                    ca:a5:c9:5a:bb:d5:6c:2f:8e:8c:cf:b0:37:57:17:
                    8d:e6:0f:c4:94:45:6c:1a:b4:1a:34:7d:4e:35:de:
                    16:d7:22:5d:49:f5:49:78:3b:fa:cc:04:f9:d9:c5:
                    dd:b5:8a:a0:d1:ec:e4:d3:0d:5b:8f:57:65:a2:31:
                    4f:6f:8c:98:cc:59:eb:25:74:d8:19:e0:43:10:f3:
                    80:0c:8e:74:0f:3f:31:24:17:c9:91:ff:59:1b:9a:
                    57:4e:9b:87:92:8b:91:68:a2:a5:a2:95:63:7f:2d:
                    d7:66:4c:9d:f7:74:6d:00:3b:a4:3c:d3:71:c9:30:
                    b7:f5:84:ee:0f:1c:22:1a:bf:92:b5:31:ab:09:dc:
                    b2:f6:25:2d:bc:46:67:1c:d8:33
                Exponent: 65537 (0x10001)
        X509v3 extensions:
            X509v3 Authority Key Identifier: 
                keyid:B6:A8:FF:A2:A8:2F:D0:A6:CD:4B:B1:68:F3:E7:50:10:31:A7:79:21

            X509v3 Subject Key Identifier: 
                C9:00:B8:C3:DE:B0:10:B5:9B:9E:7C:EF:32:20:81:65:89:50:15:10
            X509v3 Key Usage: critical
                Digital Signature, Key Encipherment
            X509v3 Basic Constraints: critical
                CA:FALSE
            X509v3 Extended Key Usage: 
                TLS Web Server Authentication, TLS Web Client Authentication
            X509v3 Certificate Policies: 
                Policy: 1.3.6.1.4.1.6449.1.2.2.26
                  CPS: http://www.gandi.net/contracts/fr/ssl/cps/pdf/
                Policy: 2.23.140.1.2.1

            X509v3 CRL Distribution Points: 

                Full Name:
                  URI:http://crl.gandi.net/GandiStandardSSLCA.crl

            Authority Information Access: 
                CA Issuers - URI:http://crt.gandi.net/GandiStandardSSLCA.crt
                OCSP - URI:http://ocsp.gandi.net

            X509v3 Subject Alternative Name: 
                DNS:udd.debian.org, DNS:www.udd.debian.org
    Signature Algorithm: sha1WithRSAEncryption
         a3:db:73:4a:b0:b4:57:60:10:82:45:c6:ad:79:93:9f:84:b3:
         be:50:d7:cf:df:d0:1c:35:bc:f7:b6:11:c8:44:9b:e1:ee:6e:
         d6:ea:22:b1:bb:7c:f1:dd:96:f3:8b:a7:0f:b4:cc:e1:33:8a:
         88:c2:4c:cc:72:53:4a:d2:2f:e4:7f:af:07:3e:d7:8e:14:70:
         ea:75:b8:10:a5:bb:c2:af:81:27:5f:10:68:ff:21:6e:fc:97:
         ac:98:31:15:ad:c0:71:d5:7c:4b:fb:e8:45:e3:fb:c8:94:f4:
         b5:6d:81:4c:e4:9e:1e:14:c0:a1:72:d8:f2:f8:cd:02:b4:ea:
         56:d0:d6:df:e8:37:56:dd:59:99:9c:31:fd:5d:f4:72:64:66:
         e8:49:90:15:ed:b4:fa:e4:f1:3a:97:94:aa:79:6a:81:37:5b:
         04:4e:7d:ac:c7:66:47:90:b2:54:1f:e4:2a:c5:9c:72:8e:2b:
         ce:76:64:82:41:eb:7e:2f:d4:2a:81:d7:8c:b2:9f:65:0d:0a:
         a5:22:a5:59:9c:99:3e:25:3b:38:5a:21:91:b3:4c:d4:39:23:
         c6:2a:c4:a9:19:bc:fe:3a:a3:3d:9c:21:12:b6:b1:0c:52:b8:
         27:f5:3e:42:5e:19:fd:20:da:c7:c6:e6:f0:d8:6d:ef:f3:27:
         a6:4e:fd:49
-----BEGIN CERTIFICATE-----
MIIFYzCCBEugAwIBAgIRALsnCAoyrvotsp312+6I+pQwDQYJKoZIhvcNAQEFBQAw
QTELMAkGA1UEBhMCRlIxEjAQBgNVBAoTCUdBTkRJIFNBUzEeMBwGA1UEAxMVR2Fu
ZGkgU3RhbmRhcmQgU1NMIENBMB4XDTEzMTIzMDAwMDAwMFoXDTE0MTIzMDIzNTk1
OVowWTEhMB8GA1UECxMYRG9tYWluIENvbnRyb2wgVmFsaWRhdGVkMRswGQYDVQQL
ExJHYW5kaSBTdGFuZGFyZCBTU0wxFzAVBgNVBAMTDnVkZC5kZWJpYW4ub3JnMIIB
ojANBgkqhkiG9w0BAQEFAAOCAY8AMIIBigKCAYEAwesZ7ZJvdcUDKcVEkWyoiTQC
VBpwzuo92+7dqk8EA+frRlSSkqZwAx1Im8ENtnfTmE7JUeVto55icVBTZXDqe4Q/
ly43dPX+eA0dOiewejK6I5XUBzEtXlxMPxIpv/MicufQjYvc7Gy8z8rJ01qbB2/X
m8tmM+j93mKS8vdUfEkMs0v12uMofThINIC5UrgkA6TL7hfYiENVfOOcNOHrpQeF
tNORdR9s6sIH8E49i6+NS/hyym805Q7E1wvghtrMG0/X9ntZL76EU80EFaUfq0Ws
/ZAhmib0S9KsxGnYWvQsdDGtcEQqsNhXIBcLcOTKpclau9VsL46Mz7A3VxeN5g/E
lEVsGrQaNH1ONd4W1yJdSfVJeDv6zAT52cXdtYqg0ezk0w1bj1dlojFPb4yYzFnr
JXTYGeBDEPOADI50Dz8xJBfJkf9ZG5pXTpuHkouRaKKlopVjfy3XZkyd93RtADuk
PNNxyTC39YTuDxwiGr+StTGrCdyy9iUtvEZnHNgzAgMBAAGjggG8MIIBuDAfBgNV
HSMEGDAWgBS2qP+iqC/Qps1LsWjz51AQMad5ITAdBgNVHQ4EFgQUyQC4w96wELWb
nnzvMiCBZYlQFRAwDgYDVR0PAQH/BAQDAgWgMAwGA1UdEwEB/wQCMAAwHQYDVR0l
BBYwFAYIKwYBBQUHAwEGCCsGAQUFBwMCMGAGA1UdIARZMFcwSwYLKwYBBAGyMQEC
AhowPDA6BggrBgEFBQcCARYuaHR0cDovL3d3dy5nYW5kaS5uZXQvY29udHJhY3Rz
L2ZyL3NzbC9jcHMvcGRmLzAIBgZngQwBAgEwPAYDVR0fBDUwMzAxoC+gLYYraHR0
cDovL2NybC5nYW5kaS5uZXQvR2FuZGlTdGFuZGFyZFNTTENBLmNybDBqBggrBgEF
BQcBAQReMFwwNwYIKwYBBQUHMAKGK2h0dHA6Ly9jcnQuZ2FuZGkubmV0L0dhbmRp
U3RhbmRhcmRTU0xDQS5jcnQwIQYIKwYBBQUHMAGGFWh0dHA6Ly9vY3NwLmdhbmRp
Lm5ldDAtBgNVHREEJjAkgg51ZGQuZGViaWFuLm9yZ4ISd3d3LnVkZC5kZWJpYW4u
b3JnMA0GCSqGSIb3DQEBBQUAA4IBAQCj23NKsLRXYBCCRcateZOfhLO+UNfP39Ac
Nbz3thHIRJvh7m7W6iKxu3zx3Zbzi6cPtMzhM4qIwkzMclNK0i/kf68HPteOFHDq
dbgQpbvCr4EnXxBo/yFu/JesmDEVrcBx1XxL++hF4/vIlPS1bYFM5J4eFMChctjy
+M0CtOpW0Nbf6DdW3VmZnDH9XfRyZGboSZAV7bT65PE6l5SqeWqBN1sETn2sx2ZH
kLJUH+QqxZxyjivOdmSCQet+L9QqgdeMsp9lDQqlIqVZnJk+JTs4WiGRs0zUOSPG
KsSpGbz+OqM9nCEStrEMUrgn9T5CXhn9INrHxubw2G3v8yemTv1J
-----END CERTIFICATE-----
