Certificate:
    Data:
        Version: 3 (0x2)
        Serial Number:
            dd:12:54:36:8b:fb:66:41:c1:33:23:72:7a:29:af:46
    Signature Algorithm: sha256WithRSAEncryption
        Issuer: C=FR, ST=Paris, L=Paris, O=Gandi, CN=Gandi Standard SSL CA 2
        Validity
            Not Before: Dec 17 00:00:00 2014 GMT
            Not After : Jan  1 23:59:59 2016 GMT
        Subject: OU=Domain Control Validated, OU=Gandi Standard SSL, CN=vote.debian.org
        Subject Public Key Info:
            Public Key Algorithm: rsaEncryption
                Public-Key: (3072 bit)
                Modulus:
                    00:c4:13:2e:18:48:aa:5b:3a:25:20:a4:12:9f:bc:
                    3b:0b:08:c5:5d:8e:df:c5:b4:f5:b9:9e:a2:48:5a:
                    7b:47:18:26:d9:1a:47:6c:17:ff:9a:63:f8:1c:2b:
                    95:a7:5a:cf:e2:d7:e3:8a:a0:d8:b0:ab:d1:96:4d:
                    d6:2c:90:fa:85:04:0f:a5:a4:39:39:12:22:a0:10:
                    0f:bf:c0:75:5f:36:70:89:e3:c3:02:09:e8:31:3e:
                    61:e4:08:98:61:18:d2:82:ef:10:1f:27:7d:ae:c8:
                    77:12:fb:b3:cd:70:7d:66:d7:a6:28:4c:c6:52:a4:
                    92:b1:de:91:5b:b0:f1:28:33:7a:6a:29:8a:02:ff:
                    d7:01:5d:a8:e8:60:de:72:bd:51:af:03:e8:39:ae:
                    a7:dc:17:e3:c8:a5:a4:aa:2a:6e:54:19:aa:1a:14:
                    b6:cd:28:9d:3e:0a:a9:46:76:0e:32:ee:d7:6a:2d:
                    31:75:33:bc:b7:c0:67:b9:83:e0:f1:d6:de:34:51:
                    14:ba:56:6e:b9:b9:fc:ee:a7:7b:a6:cf:a9:52:0a:
                    3f:63:96:b1:6e:42:55:56:7d:c9:7c:49:fc:09:af:
                    84:62:0d:22:b7:e9:b4:38:a4:7e:5b:81:63:36:e2:
                    b5:bb:86:7a:97:62:2c:fc:1c:64:9c:3e:4c:b9:9f:
                    84:ea:99:db:ee:ed:ef:38:ef:29:1f:1c:54:c1:a1:
                    49:90:ba:64:2a:b6:ad:aa:05:ea:fe:f6:ff:60:b4:
                    66:fa:8a:27:4d:ba:9b:57:25:0d:a3:38:08:90:08:
                    a4:a7:0a:87:2c:f4:6e:66:9b:ff:20:40:f9:c1:55:
                    0d:8a:dc:69:35:d0:39:7b:14:21:dd:a8:00:6f:02:
                    14:91:d4:36:61:d9:5b:b1:6f:8c:1e:ef:c4:bc:2b:
                    e0:1c:d7:a7:6d:d0:2b:43:5f:d0:65:78:76:30:4a:
                    22:f5:0d:41:fd:19:61:2f:c3:36:b3:0a:06:98:f7:
                    89:5e:b7:c7:2f:bc:65:03:5a:c9
                Exponent: 65537 (0x10001)
        X509v3 extensions:
            X509v3 Authority Key Identifier: 
                keyid:B3:90:A7:D8:C9:AF:4E:CD:61:3C:9F:7C:AD:5D:7F:41:FD:69:30:EA

            X509v3 Subject Key Identifier: 
                E4:58:4E:FF:D0:C7:CF:B7:09:40:B0:0E:5C:AF:E4:28:6D:EB:1D:95
            X509v3 Key Usage: critical
                Digital Signature, Key Encipherment
            X509v3 Basic Constraints: critical
                CA:FALSE
            X509v3 Extended Key Usage: 
                TLS Web Server Authentication, TLS Web Client Authentication
            X509v3 Certificate Policies: 
                Policy: 1.3.6.1.4.1.6449.1.2.2.26
                  CPS: https://cps.usertrust.com
                Policy: 2.23.140.1.2.1

            X509v3 CRL Distribution Points: 

                Full Name:
                  URI:http://crl.usertrust.com/GandiStandardSSLCA2.crl

            Authority Information Access: 
                CA Issuers - URI:http://crt.usertrust.com/GandiStandardSSLCA2.crt
                OCSP - URI:http://ocsp.usertrust.com

            X509v3 Subject Alternative Name: 
                DNS:vote.debian.org, DNS:www.vote.debian.org
    Signature Algorithm: sha256WithRSAEncryption
         59:91:8f:60:fc:d7:16:36:34:c3:be:89:80:cb:ad:aa:83:61:
         60:81:d7:c7:1f:76:39:0f:12:67:f5:a6:85:4f:ff:d3:49:9e:
         36:a2:93:1b:6f:fc:c0:22:2a:f5:58:a5:13:b0:f6:c5:77:aa:
         1c:2a:4a:5d:79:e8:77:fb:7b:8e:a3:2e:b6:db:33:5f:e4:b0:
         7c:7a:93:0a:a3:d9:22:82:c4:67:d0:a0:bb:44:35:0c:a5:44:
         74:45:23:21:b7:e5:ce:d4:57:61:d8:6c:f0:de:c0:53:90:ac:
         ee:8d:65:8b:35:3b:10:64:c1:56:92:6f:8f:6a:6a:48:c2:4d:
         ec:a1:2e:d7:24:b0:dd:ea:a0:24:44:b5:18:f5:2e:e6:ab:8b:
         99:55:00:bc:35:08:87:c0:df:64:cf:d3:8d:49:0c:d2:44:4f:
         f2:e7:4d:8b:36:e2:84:d9:23:df:31:9d:34:a1:70:dc:d3:5f:
         00:af:cc:3e:f9:5d:a7:6d:98:05:fa:92:6b:6b:a7:00:e3:99:
         80:f1:e2:63:ab:7c:30:04:38:4e:1e:11:6f:f8:9c:f0:c2:ac:
         20:a4:a7:fd:b7:0d:97:0c:e8:22:3b:21:c7:fb:01:e2:67:64:
         38:af:96:54:af:9d:1e:cd:7e:5a:27:7b:55:6c:31:dd:a4:57:
         3f:b2:33:e6
-----BEGIN CERTIFICATE-----
MIIFfTCCBGWgAwIBAgIRAN0SVDaL+2ZBwTMjcnopr0YwDQYJKoZIhvcNAQELBQAw
XzELMAkGA1UEBhMCRlIxDjAMBgNVBAgTBVBhcmlzMQ4wDAYDVQQHEwVQYXJpczEO
MAwGA1UEChMFR2FuZGkxIDAeBgNVBAMTF0dhbmRpIFN0YW5kYXJkIFNTTCBDQSAy
MB4XDTE0MTIxNzAwMDAwMFoXDTE2MDEwMTIzNTk1OVowWjEhMB8GA1UECxMYRG9t
YWluIENvbnRyb2wgVmFsaWRhdGVkMRswGQYDVQQLExJHYW5kaSBTdGFuZGFyZCBT
U0wxGDAWBgNVBAMTD3ZvdGUuZGViaWFuLm9yZzCCAaIwDQYJKoZIhvcNAQEBBQAD
ggGPADCCAYoCggGBAMQTLhhIqls6JSCkEp+8OwsIxV2O38W09bmeokhae0cYJtka
R2wX/5pj+Bwrladaz+LX44qg2LCr0ZZN1iyQ+oUED6WkOTkSIqAQD7/AdV82cInj
wwIJ6DE+YeQImGEY0oLvEB8nfa7IdxL7s81wfWbXpihMxlKkkrHekVuw8Sgzemop
igL/1wFdqOhg3nK9Ua8D6Dmup9wX48ilpKoqblQZqhoUts0onT4KqUZ2DjLu12ot
MXUzvLfAZ7mD4PHW3jRRFLpWbrm5/O6ne6bPqVIKP2OWsW5CVVZ9yXxJ/AmvhGIN
IrfptDikfluBYzbitbuGepdiLPwcZJw+TLmfhOqZ2+7t7zjvKR8cVMGhSZC6ZCq2
raoF6v72/2C0ZvqKJ026m1clDaM4CJAIpKcKhyz0bmab/yBA+cFVDYrcaTXQOXsU
Id2oAG8CFJHUNmHZW7FvjB7vxLwr4BzXp23QK0Nf0GV4djBKIvUNQf0ZYS/DNrMK
Bpj3iV63xy+8ZQNayQIDAQABo4IBtzCCAbMwHwYDVR0jBBgwFoAUs5Cn2MmvTs1h
PJ98rV1/Qf1pMOowHQYDVR0OBBYEFORYTv/Qx8+3CUCwDlyv5Cht6x2VMA4GA1Ud
DwEB/wQEAwIFoDAMBgNVHRMBAf8EAjAAMB0GA1UdJQQWMBQGCCsGAQUFBwMBBggr
BgEFBQcDAjBLBgNVHSAERDBCMDYGCysGAQQBsjEBAgIaMCcwJQYIKwYBBQUHAgEW
GWh0dHBzOi8vY3BzLnVzZXJ0cnVzdC5jb20wCAYGZ4EMAQIBMEEGA1UdHwQ6MDgw
NqA0oDKGMGh0dHA6Ly9jcmwudXNlcnRydXN0LmNvbS9HYW5kaVN0YW5kYXJkU1NM
Q0EyLmNybDBzBggrBgEFBQcBAQRnMGUwPAYIKwYBBQUHMAKGMGh0dHA6Ly9jcnQu
dXNlcnRydXN0LmNvbS9HYW5kaVN0YW5kYXJkU1NMQ0EyLmNydDAlBggrBgEFBQcw
AYYZaHR0cDovL29jc3AudXNlcnRydXN0LmNvbTAvBgNVHREEKDAmgg92b3RlLmRl
Ymlhbi5vcmeCE3d3dy52b3RlLmRlYmlhbi5vcmcwDQYJKoZIhvcNAQELBQADggEB
AFmRj2D81xY2NMO+iYDLraqDYWCB18cfdjkPEmf1poVP/9NJnjaikxtv/MAiKvVY
pROw9sV3qhwqSl156Hf7e46jLrbbM1/ksHx6kwqj2SKCxGfQoLtENQylRHRFIyG3
5c7UV2HYbPDewFOQrO6NZYs1OxBkwVaSb49qakjCTeyhLtcksN3qoCREtRj1Luar
i5lVALw1CIfA32TP041JDNJET/LnTYs24oTZI98xnTShcNzTXwCvzD75XadtmAX6
kmtrpwDjmYDx4mOrfDAEOE4eEW/4nPDCrCCkp/23DZcM6CI7Icf7AeJnZDivllSv
nR7Nflone1VsMd2kVz+yM+Y=
-----END CERTIFICATE-----
