Certificate:
    Data:
        Version: 3 (0x2)
        Serial Number:
            50:0a:b9:84:b9:1b:4f:7e:90:cc:74:97:ef:71:e5:3c
    Signature Algorithm: sha1WithRSAEncryption
        Issuer: C=FR, O=GANDI SAS, CN=Gandi Standard SSL CA
        Validity
            Not Before: Jan  1 00:00:00 2014 GMT
            Not After : Jan  1 23:59:59 2015 GMT
        Subject: OU=Domain Control Validated, OU=Gandi Standard SSL, CN=vote.debian.org
        Subject Public Key Info:
            Public Key Algorithm: rsaEncryption
                Public-Key: (3072 bit)
                Modulus:
                    00:c4:13:2e:18:48:aa:5b:3a:25:20:a4:12:9f:bc:
                    3b:0b:08:c5:5d:8e:df:c5:b4:f5:b9:9e:a2:48:5a:
                    7b:47:18:26:d9:1a:47:6c:17:ff:9a:63:f8:1c:2b:
                    95:a7:5a:cf:e2:d7:e3:8a:a0:d8:b0:ab:d1:96:4d:
                    d6:2c:90:fa:85:04:0f:a5:a4:39:39:12:22:a0:10:
                    0f:bf:c0:75:5f:36:70:89:e3:c3:02:09:e8:31:3e:
                    61:e4:08:98:61:18:d2:82:ef:10:1f:27:7d:ae:c8:
                    77:12:fb:b3:cd:70:7d:66:d7:a6:28:4c:c6:52:a4:
                    92:b1:de:91:5b:b0:f1:28:33:7a:6a:29:8a:02:ff:
                    d7:01:5d:a8:e8:60:de:72:bd:51:af:03:e8:39:ae:
                    a7:dc:17:e3:c8:a5:a4:aa:2a:6e:54:19:aa:1a:14:
                    b6:cd:28:9d:3e:0a:a9:46:76:0e:32:ee:d7:6a:2d:
                    31:75:33:bc:b7:c0:67:b9:83:e0:f1:d6:de:34:51:
                    14:ba:56:6e:b9:b9:fc:ee:a7:7b:a6:cf:a9:52:0a:
                    3f:63:96:b1:6e:42:55:56:7d:c9:7c:49:fc:09:af:
                    84:62:0d:22:b7:e9:b4:38:a4:7e:5b:81:63:36:e2:
                    b5:bb:86:7a:97:62:2c:fc:1c:64:9c:3e:4c:b9:9f:
                    84:ea:99:db:ee:ed:ef:38:ef:29:1f:1c:54:c1:a1:
                    49:90:ba:64:2a:b6:ad:aa:05:ea:fe:f6:ff:60:b4:
                    66:fa:8a:27:4d:ba:9b:57:25:0d:a3:38:08:90:08:
                    a4:a7:0a:87:2c:f4:6e:66:9b:ff:20:40:f9:c1:55:
                    0d:8a:dc:69:35:d0:39:7b:14:21:dd:a8:00:6f:02:
                    14:91:d4:36:61:d9:5b:b1:6f:8c:1e:ef:c4:bc:2b:
                    e0:1c:d7:a7:6d:d0:2b:43:5f:d0:65:78:76:30:4a:
                    22:f5:0d:41:fd:19:61:2f:c3:36:b3:0a:06:98:f7:
                    89:5e:b7:c7:2f:bc:65:03:5a:c9
                Exponent: 65537 (0x10001)
        X509v3 extensions:
            X509v3 Authority Key Identifier: 
                keyid:B6:A8:FF:A2:A8:2F:D0:A6:CD:4B:B1:68:F3:E7:50:10:31:A7:79:21

            X509v3 Subject Key Identifier: 
                E4:58:4E:FF:D0:C7:CF:B7:09:40:B0:0E:5C:AF:E4:28:6D:EB:1D:95
            X509v3 Key Usage: critical
                Digital Signature, Key Encipherment
            X509v3 Basic Constraints: critical
                CA:FALSE
            X509v3 Extended Key Usage: 
                TLS Web Server Authentication, TLS Web Client Authentication
            X509v3 Certificate Policies: 
                Policy: 1.3.6.1.4.1.6449.1.2.2.26
                  CPS: http://www.gandi.net/contracts/fr/ssl/cps/pdf/
                Policy: 2.23.140.1.2.1

            X509v3 CRL Distribution Points: 

                Full Name:
                  URI:http://crl.gandi.net/GandiStandardSSLCA.crl

            Authority Information Access: 
                CA Issuers - URI:http://crt.gandi.net/GandiStandardSSLCA.crt
                OCSP - URI:http://ocsp.gandi.net

            X509v3 Subject Alternative Name: 
                DNS:vote.debian.org, DNS:www.vote.debian.org
    Signature Algorithm: sha1WithRSAEncryption
         a2:d1:4e:8e:f0:cf:bf:91:2f:3e:cf:91:c0:34:e4:70:cb:34:
         a5:5d:a9:af:75:6c:e4:5f:a2:98:b6:24:1d:78:2c:01:d9:ad:
         43:b3:f4:ce:36:ad:1a:38:cc:07:55:44:f4:8d:a3:89:3a:4e:
         a7:1f:9a:08:4d:66:cb:2d:b6:37:9b:24:42:f7:2d:72:88:00:
         d9:72:65:84:e4:36:d5:3d:4f:5e:ea:07:a3:75:4a:c7:7d:ef:
         e2:29:c9:e8:fd:26:39:22:80:8a:ba:3e:8d:21:7e:84:3f:58:
         9a:69:90:e9:64:84:b0:23:fd:91:d6:84:d5:af:ad:3a:11:e1:
         18:51:a1:f1:49:ac:43:bf:1d:f8:c8:b6:64:4d:36:bd:1a:14:
         0a:93:6e:df:4e:81:40:54:12:3d:1f:19:f7:fe:ba:a8:98:c1:
         6a:9a:ab:0b:3a:7d:86:99:8f:ae:87:c4:09:ad:3d:77:b0:70:
         f2:83:b0:54:c9:95:a2:0e:62:ac:38:0a:df:0b:ea:ea:4e:50:
         a0:6c:7c:0a:b3:cd:02:bd:84:b3:71:1b:c5:6a:c2:cd:63:70:
         31:a6:e2:57:47:d5:4d:29:04:69:a1:a1:87:8a:23:c1:22:7e:
         da:91:f6:bf:b4:b6:84:f9:73:b4:83:14:c2:89:3c:7c:82:43:
         34:7e:9b:01
-----BEGIN CERTIFICATE-----
MIIFZTCCBE2gAwIBAgIQUAq5hLkbT36QzHSX73HlPDANBgkqhkiG9w0BAQUFADBB
MQswCQYDVQQGEwJGUjESMBAGA1UEChMJR0FOREkgU0FTMR4wHAYDVQQDExVHYW5k
aSBTdGFuZGFyZCBTU0wgQ0EwHhcNMTQwMTAxMDAwMDAwWhcNMTUwMTAxMjM1OTU5
WjBaMSEwHwYDVQQLExhEb21haW4gQ29udHJvbCBWYWxpZGF0ZWQxGzAZBgNVBAsT
EkdhbmRpIFN0YW5kYXJkIFNTTDEYMBYGA1UEAxMPdm90ZS5kZWJpYW4ub3JnMIIB
ojANBgkqhkiG9w0BAQEFAAOCAY8AMIIBigKCAYEAxBMuGEiqWzolIKQSn7w7CwjF
XY7fxbT1uZ6iSFp7Rxgm2RpHbBf/mmP4HCuVp1rP4tfjiqDYsKvRlk3WLJD6hQQP
paQ5ORIioBAPv8B1XzZwiePDAgnoMT5h5AiYYRjSgu8QHyd9rsh3EvuzzXB9Ztem
KEzGUqSSsd6RW7DxKDN6aimKAv/XAV2o6GDecr1RrwPoOa6n3BfjyKWkqipuVBmq
GhS2zSidPgqpRnYOMu7Xai0xdTO8t8BnuYPg8dbeNFEUulZuubn87qd7ps+pUgo/
Y5axbkJVVn3JfEn8Ca+EYg0it+m0OKR+W4FjNuK1u4Z6l2Is/BxknD5MuZ+E6pnb
7u3vOO8pHxxUwaFJkLpkKratqgXq/vb/YLRm+oonTbqbVyUNozgIkAikpwqHLPRu
Zpv/IED5wVUNitxpNdA5exQh3agAbwIUkdQ2YdlbsW+MHu/EvCvgHNenbdArQ1/Q
ZXh2MEoi9Q1B/RlhL8M2swoGmPeJXrfHL7xlA1rJAgMBAAGjggG+MIIBujAfBgNV
HSMEGDAWgBS2qP+iqC/Qps1LsWjz51AQMad5ITAdBgNVHQ4EFgQU5FhO/9DHz7cJ
QLAOXK/kKG3rHZUwDgYDVR0PAQH/BAQDAgWgMAwGA1UdEwEB/wQCMAAwHQYDVR0l
BBYwFAYIKwYBBQUHAwEGCCsGAQUFBwMCMGAGA1UdIARZMFcwSwYLKwYBBAGyMQEC
AhowPDA6BggrBgEFBQcCARYuaHR0cDovL3d3dy5nYW5kaS5uZXQvY29udHJhY3Rz
L2ZyL3NzbC9jcHMvcGRmLzAIBgZngQwBAgEwPAYDVR0fBDUwMzAxoC+gLYYraHR0
cDovL2NybC5nYW5kaS5uZXQvR2FuZGlTdGFuZGFyZFNTTENBLmNybDBqBggrBgEF
BQcBAQReMFwwNwYIKwYBBQUHMAKGK2h0dHA6Ly9jcnQuZ2FuZGkubmV0L0dhbmRp
U3RhbmRhcmRTU0xDQS5jcnQwIQYIKwYBBQUHMAGGFWh0dHA6Ly9vY3NwLmdhbmRp
Lm5ldDAvBgNVHREEKDAmgg92b3RlLmRlYmlhbi5vcmeCE3d3dy52b3RlLmRlYmlh
bi5vcmcwDQYJKoZIhvcNAQEFBQADggEBAKLRTo7wz7+RLz7PkcA05HDLNKVdqa91
bORfopi2JB14LAHZrUOz9M42rRo4zAdVRPSNo4k6TqcfmghNZssttjebJEL3LXKI
ANlyZYTkNtU9T17qB6N1Ssd97+Ipyej9JjkigIq6Po0hfoQ/WJppkOlkhLAj/ZHW
hNWvrToR4RhRofFJrEO/HfjItmRNNr0aFAqTbt9OgUBUEj0fGff+uqiYwWqaqws6
fYaZj66HxAmtPXewcPKDsFTJlaIOYqw4Ct8L6upOUKBsfAqzzQK9hLNxG8Vqws1j
cDGm4ldH1U0pBGmhoYeKI8EiftqR9r+0toT5c7SDFMKJPHyCQzR+mwE=
-----END CERTIFICATE-----
