Certificate:
    Data:
        Version: 3 (0x2)
        Serial Number:
            c3:be:17:23:f7:ce:cb:ad:70:8d:96:f6:83:92:35:cd
    Signature Algorithm: sha1WithRSAEncryption
        Issuer: C=FR, O=GANDI SAS, CN=Gandi Standard SSL CA
        Validity
            Not Before: Jul 29 00:00:00 2013 GMT
            Not After : Jul 29 23:59:59 2014 GMT
        Subject: OU=Domain Control Validated, OU=Gandi Standard SSL, CN=wiki.debian.org
        Subject Public Key Info:
            Public Key Algorithm: rsaEncryption
                Public-Key: (2048 bit)
                Modulus:
                    00:b6:50:fd:8d:79:b4:ee:5d:36:b8:5f:60:80:8b:
                    8b:d7:cc:41:67:b7:57:43:8b:69:21:de:c7:08:21:
                    2d:3e:aa:46:68:10:c9:cf:e8:a3:58:fb:b2:ba:63:
                    e0:f6:c5:7c:12:58:94:d6:e9:58:2c:41:b9:77:74:
                    b9:67:6a:45:24:7d:9b:d5:5e:1b:b8:12:53:2c:82:
                    97:4f:bb:4b:0e:4b:b6:1d:b6:77:3d:62:f0:99:69:
                    97:c0:63:6c:44:c8:62:16:43:63:79:12:43:38:09:
                    9b:e2:9e:04:49:17:f2:af:04:f8:c1:94:63:7b:36:
                    94:eb:fc:59:82:53:ef:04:f5:0b:82:91:eb:d7:74:
                    6f:dd:88:16:c2:63:a3:a2:1c:75:2c:d8:83:f7:82:
                    f7:b3:06:94:b2:71:b6:0e:18:02:9c:bb:70:e9:c7:
                    7b:b2:42:32:04:de:ac:80:23:40:ad:09:42:13:79:
                    a8:98:ad:62:d4:54:a6:7b:54:09:35:5b:34:d1:c3:
                    18:7f:67:40:a5:a5:be:01:99:ec:31:7c:58:06:4e:
                    a5:35:dd:ac:69:b2:8a:82:4d:32:2f:29:a6:fd:af:
                    e4:0c:23:24:ec:35:60:c5:9f:58:f5:fc:4a:aa:f5:
                    57:59:7e:81:6c:08:11:95:20:4d:30:a5:ff:3b:96:
                    a8:73
                Exponent: 65537 (0x10001)
        X509v3 extensions:
            X509v3 Authority Key Identifier: 
                keyid:B6:A8:FF:A2:A8:2F:D0:A6:CD:4B:B1:68:F3:E7:50:10:31:A7:79:21

            X509v3 Subject Key Identifier: 
                A3:8E:7D:CD:44:EA:0D:2E:82:19:F0:0F:C9:B8:2F:C7:8E:3F:AD:F3
            X509v3 Key Usage: critical
                Digital Signature, Key Encipherment
            X509v3 Basic Constraints: critical
                CA:FALSE
            X509v3 Extended Key Usage: 
                TLS Web Server Authentication, TLS Web Client Authentication
            X509v3 Certificate Policies: 
                Policy: 1.3.6.1.4.1.6449.1.2.2.26
                  CPS: http://www.gandi.net/contracts/fr/ssl/cps/pdf/
                Policy: 2.23.140.1.2.1

            X509v3 CRL Distribution Points: 

                Full Name:
                  URI:http://crl.gandi.net/GandiStandardSSLCA.crl

            Authority Information Access: 
                CA Issuers - URI:http://crt.gandi.net/GandiStandardSSLCA.crt
                OCSP - URI:http://ocsp.gandi.net

            X509v3 Subject Alternative Name: 
                DNS:wiki.debian.org, DNS:www.wiki.debian.org
    Signature Algorithm: sha1WithRSAEncryption
         4e:5f:04:04:4e:77:2f:4c:47:a8:aa:39:cd:80:aa:a6:7a:be:
         0c:06:cf:80:e2:c6:54:eb:7a:9b:a9:22:7c:f8:85:eb:c5:c8:
         ac:93:62:3f:00:a8:0a:51:70:3d:9d:67:cf:56:47:a5:dc:5d:
         d8:7d:9d:00:52:22:e7:eb:df:4b:6b:52:a3:f3:d2:00:07:03:
         28:63:90:bf:79:a8:67:fc:35:2a:e3:33:2a:5d:19:99:ab:8a:
         84:f5:81:55:e2:25:8f:5e:f3:d0:78:52:0f:f7:46:2b:81:d7:
         8a:8b:df:19:04:e8:72:ab:34:bc:a0:6d:d3:19:e4:d0:36:a0:
         75:58:62:e8:a2:2b:d2:29:c2:bc:cc:67:e9:6f:bf:d0:03:6e:
         38:85:2a:6b:67:7f:3e:6f:66:ee:52:09:65:dc:c8:1f:f7:80:
         7e:85:de:df:ae:3a:bc:72:f7:4b:bb:41:7c:d9:43:67:26:5c:
         9b:39:d7:1c:16:d0:18:a9:3f:d9:cd:42:ce:16:74:5a:e1:60:
         48:0d:9d:71:7b:1d:3c:ad:b8:ab:93:4e:93:a1:fa:fc:2d:48:
         41:30:cd:4c:31:12:b5:96:d4:07:18:55:39:da:96:a0:8a:ff:
         f9:2c:0a:05:b3:dd:0b:a8:3a:59:dd:ae:b4:ab:c1:2c:ce:89:
         a7:f4:24:78
-----BEGIN CERTIFICATE-----
MIIE5jCCA86gAwIBAgIRAMO+FyP3zsutcI2W9oOSNc0wDQYJKoZIhvcNAQEFBQAw
QTELMAkGA1UEBhMCRlIxEjAQBgNVBAoTCUdBTkRJIFNBUzEeMBwGA1UEAxMVR2Fu
ZGkgU3RhbmRhcmQgU1NMIENBMB4XDTEzMDcyOTAwMDAwMFoXDTE0MDcyOTIzNTk1
OVowWjEhMB8GA1UECxMYRG9tYWluIENvbnRyb2wgVmFsaWRhdGVkMRswGQYDVQQL
ExJHYW5kaSBTdGFuZGFyZCBTU0wxGDAWBgNVBAMTD3dpa2kuZGViaWFuLm9yZzCC
ASIwDQYJKoZIhvcNAQEBBQADggEPADCCAQoCggEBALZQ/Y15tO5dNrhfYICLi9fM
QWe3V0OLaSHexwghLT6qRmgQyc/oo1j7srpj4PbFfBJYlNbpWCxBuXd0uWdqRSR9
m9VeG7gSUyyCl0+7Sw5Lth22dz1i8Jlpl8BjbETIYhZDY3kSQzgJm+KeBEkX8q8E
+MGUY3s2lOv8WYJT7wT1C4KR69d0b92IFsJjo6IcdSzYg/eC97MGlLJxtg4YApy7
cOnHe7JCMgTerIAjQK0JQhN5qJitYtRUpntUCTVbNNHDGH9nQKWlvgGZ7DF8WAZO
pTXdrGmyioJNMi8ppv2v5AwjJOw1YMWfWPX8Sqr1V1l+gWwIEZUgTTCl/zuWqHMC
AwEAAaOCAb4wggG6MB8GA1UdIwQYMBaAFLao/6KoL9CmzUuxaPPnUBAxp3khMB0G
A1UdDgQWBBSjjn3NROoNLoIZ8A/JuC/Hjj+t8zAOBgNVHQ8BAf8EBAMCBaAwDAYD
VR0TAQH/BAIwADAdBgNVHSUEFjAUBggrBgEFBQcDAQYIKwYBBQUHAwIwYAYDVR0g
BFkwVzBLBgsrBgEEAbIxAQICGjA8MDoGCCsGAQUFBwIBFi5odHRwOi8vd3d3Lmdh
bmRpLm5ldC9jb250cmFjdHMvZnIvc3NsL2Nwcy9wZGYvMAgGBmeBDAECATA8BgNV
HR8ENTAzMDGgL6AthitodHRwOi8vY3JsLmdhbmRpLm5ldC9HYW5kaVN0YW5kYXJk
U1NMQ0EuY3JsMGoGCCsGAQUFBwEBBF4wXDA3BggrBgEFBQcwAoYraHR0cDovL2Ny
dC5nYW5kaS5uZXQvR2FuZGlTdGFuZGFyZFNTTENBLmNydDAhBggrBgEFBQcwAYYV
aHR0cDovL29jc3AuZ2FuZGkubmV0MC8GA1UdEQQoMCaCD3dpa2kuZGViaWFuLm9y
Z4ITd3d3Lndpa2kuZGViaWFuLm9yZzANBgkqhkiG9w0BAQUFAAOCAQEATl8EBE53
L0xHqKo5zYCqpnq+DAbPgOLGVOt6m6kifPiF68XIrJNiPwCoClFwPZ1nz1ZHpdxd
2H2dAFIi5+vfS2tSo/PSAAcDKGOQv3moZ/w1KuMzKl0ZmauKhPWBVeIlj17z0HhS
D/dGK4HXiovfGQTocqs0vKBt0xnk0DagdVhi6KIr0inCvMxn6W+/0ANuOIUqa2d/
Pm9m7lIJZdzIH/eAfoXe3646vHL3S7tBfNlDZyZcmznXHBbQGKk/2c1CzhZ0WuFg
SA2dcXsdPK24q5NOk6H6/C1IQTDNTDEStZbUBxhVOdqWoIr/+SwKBbPdC6g6Wd2u
tKvBLM6Jp/QkeA==
-----END CERTIFICATE-----
Certificate:
    Data:
        Version: 3 (0x2)
        Serial Number:
            5a:b6:1d:ac:1e:4d:a2:06:14:c7:55:3d:3d:a9:b2:dc
    Signature Algorithm: sha1WithRSAEncryption
        Issuer: C=US, ST=UT, L=Salt Lake City, O=The USERTRUST Network, OU=http://www.usertrust.com, CN=UTN-USERFirst-Hardware
        Validity
            Not Before: Oct 23 00:00:00 2008 GMT
            Not After : May 30 10:48:38 2020 GMT
        Subject: C=FR, O=GANDI SAS, CN=Gandi Standard SSL CA
        Subject Public Key Info:
            Public Key Algorithm: rsaEncryption
                Public-Key: (2048 bit)
                Modulus:
                    00:b6:54:3d:a5:db:0d:22:78:50:6a:5a:23:89:3f:
                    97:a1:d4:07:1a:a9:58:08:9b:a0:15:c3:32:b6:b7:
                    f1:e8:b9:a5:6f:ad:37:f6:6e:71:1b:b4:75:2d:48:
                    5e:9f:c6:15:aa:81:ef:e5:c4:88:95:8a:3a:6c:77:
                    cc:b5:cd:65:e4:67:e5:73:c9:50:52:94:c1:27:49:
                    3e:a0:6b:41:16:41:b6:94:99:41:ae:3e:cb:e2:06:
                    46:09:e9:4d:be:c9:4c:55:a9:18:7e:a6:df:6e:fd:
                    4a:b2:cc:6c:4e:d9:c8:50:15:93:b3:f2:e9:e3:c2:
                    6a:ad:3a:d5:fb:c3:79:50:9f:25:79:29:b2:47:64:
                    7c:20:3e:e2:08:4d:93:29:14:b6:34:6e:cf:71:46:
                    7e:76:10:f4:fd:6c:aa:01:d2:c2:06:de:92:83:cc:
                    58:90:2e:92:de:1e:65:b7:63:2f:3d:b2:eb:70:8c:
                    4c:e0:be:15:9d:de:c1:4d:56:f8:0b:c6:8e:07:b9:
                    5d:df:95:f0:7b:40:1f:1a:2c:d7:9c:2b:4b:76:f4:
                    59:f5:43:c1:2c:66:10:9e:9e:66:96:60:9d:1c:74:
                    1b:4e:18:5c:08:b0:6e:6c:ca:69:1a:02:e9:bb:ca:
                    78:ef:66:2e:e3:32:fd:41:5c:95:74:81:4d:f4:da:
                    fe:4b
                Exponent: 65537 (0x10001)
        X509v3 extensions:
            X509v3 Authority Key Identifier: 
                keyid:A1:72:5F:26:1B:28:98:43:95:5D:07:37:D5:85:96:9D:4B:D2:C3:45

            X509v3 Subject Key Identifier: 
                B6:A8:FF:A2:A8:2F:D0:A6:CD:4B:B1:68:F3:E7:50:10:31:A7:79:21
            X509v3 Key Usage: critical
                Certificate Sign, CRL Sign
            X509v3 Basic Constraints: critical
                CA:TRUE, pathlen:0
            X509v3 Certificate Policies: 
                Policy: 1.3.6.1.4.1.6449.1.2.2.26

            X509v3 CRL Distribution Points: 

                Full Name:
                  URI:http://crl.usertrust.com/UTN-USERFirst-Hardware.crl

            Authority Information Access: 
                CA Issuers - URI:http://crt.usertrust.com/UTNAddTrustServer_CA.crt
                OCSP - URI:http://ocsp.usertrust.com

    Signature Algorithm: sha1WithRSAEncryption
         19:53:bf:03:3d:9b:e2:6b:5a:fd:ba:49:1f:4f:ec:e1:c6:82:
         39:3c:d2:03:04:0f:ab:7b:3e:82:a9:85:10:1f:f4:de:32:af:
         58:3f:ff:70:f3:30:1d:97:2d:4c:9a:e2:ec:0c:3e:14:2d:2f:
         98:48:9d:ae:16:6a:ac:2d:42:aa:b5:64:a4:70:bb:eb:73:94:
         7b:46:4c:e7:7a:14:76:5b:4c:1d:84:a1:20:74:1f:2e:4b:5c:
         70:88:dc:bd:f7:19:3d:ed:59:0d:e2:3f:26:e2:9c:ac:a4:3c:
         95:1c:f8:be:8c:03:ae:f0:e5:9c:4d:bc:c7:9b:58:00:bf:af:
         ad:fa:37:6e:71:6d:18:34:0e:c1:ea:6a:f8:0d:df:69:54:56:
         15:f2:28:b3:fe:a4:63:ec:c5:04:64:60:bb:fe:2a:f0:f4:87:
         a1:b0:ae:bd:aa:e4:2f:e3:03:0b:2f:66:5f:85:a4:32:7b:46:
         ed:25:0c:e7:f1:b7:e7:19:fd:60:ba:5f:87:77:de:98:07:96:
         e4:5e:ea:63:7d:a8:de:55:da:61:5c:3c:90:83:43:04:07:3c:
         dd:f3:f8:9f:06:52:0a:de:c7:b6:7b:8f:e1:11:f7:04:7a:35:
         ff:6a:bc:5b:c7:50:49:08:70:6f:94:43:cd:9e:c7:70:f1:db:
         d0:6d:da:8f
-----BEGIN CERTIFICATE-----
MIIEozCCA4ugAwIBAgIQWrYdrB5NogYUx1U9Pamy3DANBgkqhkiG9w0BAQUFADCB
lzELMAkGA1UEBhMCVVMxCzAJBgNVBAgTAlVUMRcwFQYDVQQHEw5TYWx0IExha2Ug
Q2l0eTEeMBwGA1UEChMVVGhlIFVTRVJUUlVTVCBOZXR3b3JrMSEwHwYDVQQLExho
dHRwOi8vd3d3LnVzZXJ0cnVzdC5jb20xHzAdBgNVBAMTFlVUTi1VU0VSRmlyc3Qt
SGFyZHdhcmUwHhcNMDgxMDIzMDAwMDAwWhcNMjAwNTMwMTA0ODM4WjBBMQswCQYD
VQQGEwJGUjESMBAGA1UEChMJR0FOREkgU0FTMR4wHAYDVQQDExVHYW5kaSBTdGFu
ZGFyZCBTU0wgQ0EwggEiMA0GCSqGSIb3DQEBAQUAA4IBDwAwggEKAoIBAQC2VD2l
2w0ieFBqWiOJP5eh1AcaqVgIm6AVwzK2t/HouaVvrTf2bnEbtHUtSF6fxhWqge/l
xIiVijpsd8y1zWXkZ+VzyVBSlMEnST6ga0EWQbaUmUGuPsviBkYJ6U2+yUxVqRh+
pt9u/UqyzGxO2chQFZOz8unjwmqtOtX7w3lQnyV5KbJHZHwgPuIITZMpFLY0bs9x
Rn52EPT9bKoB0sIG3pKDzFiQLpLeHmW3Yy89sutwjEzgvhWd3sFNVvgLxo4HuV3f
lfB7QB8aLNecK0t29Fn1Q8EsZhCenmaWYJ0cdBtOGFwIsG5symkaAum7ynjvZi7j
Mv1BXJV0gU302v5LAgMBAAGjggE+MIIBOjAfBgNVHSMEGDAWgBShcl8mGyiYQ5Vd
BzfVhZadS9LDRTAdBgNVHQ4EFgQUtqj/oqgv0KbNS7Fo8+dQEDGneSEwDgYDVR0P
AQH/BAQDAgEGMBIGA1UdEwEB/wQIMAYBAf8CAQAwGAYDVR0gBBEwDzANBgsrBgEE
AbIxAQICGjBEBgNVHR8EPTA7MDmgN6A1hjNodHRwOi8vY3JsLnVzZXJ0cnVzdC5j
b20vVVROLVVTRVJGaXJzdC1IYXJkd2FyZS5jcmwwdAYIKwYBBQUHAQEEaDBmMD0G
CCsGAQUFBzAChjFodHRwOi8vY3J0LnVzZXJ0cnVzdC5jb20vVVROQWRkVHJ1c3RT
ZXJ2ZXJfQ0EuY3J0MCUGCCsGAQUFBzABhhlodHRwOi8vb2NzcC51c2VydHJ1c3Qu
Y29tMA0GCSqGSIb3DQEBBQUAA4IBAQAZU78DPZvia1r9ukkfT+zhxoI5PNIDBA+r
ez6CqYUQH/TeMq9YP/9w8zAdly1MmuLsDD4ULS+YSJ2uFmqsLUKqtWSkcLvrc5R7
RkznehR2W0wdhKEgdB8uS1xwiNy99xk97VkN4j8m4pyspDyVHPi+jAOu8OWcTbzH
m1gAv6+t+jducW0YNA7B6mr4Dd9pVFYV8iiz/qRj7MUEZGC7/irw9IehsK69quQv
4wMLL2ZfhaQye0btJQzn8bfnGf1gul+Hd96YB5bkXupjfajeVdphXDyQg0MEBzzd
8/ifBlIK3se2e4/hEfcEejX/arxbx1BJCHBvlEPNnsdw8dvQbdqP
-----END CERTIFICATE-----
