Certificate:
    Data:
        Version: 3 (0x2)
        Serial Number:
            e9:bd:1c:0b:a3:e1:c2:85:86:13:09:57:43:2b:4d:ae
    Signature Algorithm: sha1WithRSAEncryption
        Issuer: C=FR, O=GANDI SAS, CN=Gandi Standard SSL CA
        Validity
            Not Before: Jul 29 00:00:00 2013 GMT
            Not After : Jul 29 23:59:59 2014 GMT
        Subject: OU=Domain Control Validated, OU=Gandi Standard SSL, CN=wiki.debian.org
        Subject Public Key Info:
            Public Key Algorithm: rsaEncryption
                Public-Key: (3072 bit)
                Modulus:
                    00:d1:0d:ee:73:7a:54:33:34:d6:fe:41:c8:e6:0a:
                    57:08:3b:a6:41:0a:47:05:21:b4:80:a6:f7:e6:8e:
                    02:dd:d9:27:e5:65:30:2f:6e:bc:42:b5:2f:97:a5:
                    d1:17:a2:43:bb:fe:00:61:85:cc:52:d1:12:56:97:
                    ac:33:61:2b:8b:35:51:6e:da:90:e0:8e:c6:6f:63:
                    bc:be:ee:c7:a2:eb:e2:2b:0e:fe:bb:6a:00:7e:4d:
                    69:e7:a3:1f:5a:f2:4d:49:c6:28:3e:ec:f7:36:3a:
                    65:78:21:0c:65:c3:f0:28:1f:e1:96:f1:0b:72:62:
                    02:e9:95:53:13:50:eb:5b:4b:91:ae:9d:0f:79:74:
                    cb:ce:a2:a6:5e:f8:7c:1e:72:79:94:13:f1:c0:1e:
                    52:d3:1b:07:66:6b:72:e9:57:f6:b0:2f:12:4f:06:
                    af:12:7c:b6:0b:b6:87:a9:03:2c:7d:d6:ff:6c:a4:
                    df:e3:9c:ab:7b:cc:2b:8e:b9:ef:2c:13:c9:b4:34:
                    a7:59:5d:70:0a:40:2b:d8:6a:53:99:80:80:43:d4:
                    01:36:f7:22:2d:6c:9e:f8:34:b3:30:fa:c3:eb:5a:
                    f0:dd:6e:68:3a:94:ac:1e:9c:46:0d:60:dd:5f:36:
                    2f:7c:1b:00:df:de:26:95:57:91:52:3f:47:84:d5:
                    4d:c1:3c:92:f7:13:9e:69:3e:c9:52:ab:1e:f5:12:
                    0e:bf:b5:3f:f3:3f:5e:9b:74:14:c4:0e:31:6c:46:
                    e5:66:b0:03:c3:7a:e3:79:6e:8f:e7:b0:fb:7e:a2:
                    a0:b0:8a:3a:17:c4:62:ff:57:4a:d6:80:53:02:99:
                    da:7d:36:29:b1:43:0c:cb:3d:78:e0:e7:c6:0c:81:
                    5a:c8:1d:48:2a:f6:ce:c1:4c:8f:ad:6b:97:5a:32:
                    d2:f8:68:3a:17:fa:6e:1e:8f:f4:5c:fa:35:32:15:
                    da:8f:5a:d0:88:cc:07:ef:ab:0e:c0:96:36:b9:68:
                    b8:6a:f5:a1:5a:5c:62:95:ab:59
                Exponent: 65537 (0x10001)
        X509v3 extensions:
            X509v3 Authority Key Identifier: 
                keyid:B6:A8:FF:A2:A8:2F:D0:A6:CD:4B:B1:68:F3:E7:50:10:31:A7:79:21

            X509v3 Subject Key Identifier: 
                FA:AE:C6:F4:6E:42:7E:7C:95:04:0D:3A:AF:C6:55:3A:3F:B5:5B:19
            X509v3 Key Usage: critical
                Digital Signature, Key Encipherment
            X509v3 Basic Constraints: critical
                CA:FALSE
            X509v3 Extended Key Usage: 
                TLS Web Server Authentication, TLS Web Client Authentication
            X509v3 Certificate Policies: 
                Policy: 1.3.6.1.4.1.6449.1.2.2.26
                  CPS: http://www.gandi.net/contracts/fr/ssl/cps/pdf/
                Policy: 2.23.140.1.2.1

            X509v3 CRL Distribution Points: 

                Full Name:
                  URI:http://crl.gandi.net/GandiStandardSSLCA.crl

            Authority Information Access: 
                CA Issuers - URI:http://crt.gandi.net/GandiStandardSSLCA.crt
                OCSP - URI:http://ocsp.gandi.net

            X509v3 Subject Alternative Name: 
                DNS:wiki.debian.org, DNS:www.wiki.debian.org
    Signature Algorithm: sha1WithRSAEncryption
         50:26:93:4a:31:b3:42:17:ec:9e:06:27:e1:25:ce:82:e2:2a:
         e7:35:a1:fe:26:24:6d:84:77:2c:24:7c:6e:d2:a7:4f:ac:bd:
         fd:81:5d:10:b9:92:d1:e3:b9:26:0e:72:46:9a:70:6b:2f:c3:
         e9:7a:5c:cc:d0:9a:e5:8d:3b:b4:8e:64:47:ba:d1:24:59:55:
         7e:5b:9b:22:92:8d:9c:9e:cb:4d:1e:48:a8:14:db:94:97:bf:
         8c:05:17:37:39:ad:77:47:58:5f:95:d1:62:f4:47:4c:94:0b:
         34:39:b9:ac:e0:19:82:10:2b:6f:40:05:a2:83:e9:6c:bc:7d:
         e7:15:d0:4d:8f:f0:ea:56:47:50:15:40:4a:d8:88:4c:3e:43:
         88:08:6e:9f:6a:58:e6:bf:7d:62:f6:d9:ee:43:75:20:80:65:
         c8:2f:0b:62:68:42:80:46:66:8a:1f:be:be:7e:e3:7a:a7:ee:
         80:d6:1d:a3:ac:01:70:43:b8:72:4d:5f:24:39:3e:21:db:dd:
         73:e8:0b:0f:77:33:85:79:1b:f4:83:63:e9:f6:d4:26:45:84:
         c3:ef:c5:15:9c:ff:0f:fc:29:cd:14:a7:82:8a:ca:e5:c3:7b:
         d8:86:09:cf:20:32:ee:ba:9a:75:d1:97:8f:35:3f:a3:70:00:
         b4:be:f8:76
-----BEGIN CERTIFICATE-----
MIIFZjCCBE6gAwIBAgIRAOm9HAuj4cKFhhMJV0MrTa4wDQYJKoZIhvcNAQEFBQAw
QTELMAkGA1UEBhMCRlIxEjAQBgNVBAoTCUdBTkRJIFNBUzEeMBwGA1UEAxMVR2Fu
ZGkgU3RhbmRhcmQgU1NMIENBMB4XDTEzMDcyOTAwMDAwMFoXDTE0MDcyOTIzNTk1
OVowWjEhMB8GA1UECxMYRG9tYWluIENvbnRyb2wgVmFsaWRhdGVkMRswGQYDVQQL
ExJHYW5kaSBTdGFuZGFyZCBTU0wxGDAWBgNVBAMTD3dpa2kuZGViaWFuLm9yZzCC
AaIwDQYJKoZIhvcNAQEBBQADggGPADCCAYoCggGBANEN7nN6VDM01v5ByOYKVwg7
pkEKRwUhtICm9+aOAt3ZJ+VlMC9uvEK1L5el0ReiQ7v+AGGFzFLRElaXrDNhK4s1
UW7akOCOxm9jvL7ux6Lr4isO/rtqAH5NaeejH1ryTUnGKD7s9zY6ZXghDGXD8Cgf
4ZbxC3JiAumVUxNQ61tLka6dD3l0y86ipl74fB5yeZQT8cAeUtMbB2ZrculX9rAv
Ek8GrxJ8tgu2h6kDLH3W/2yk3+Ocq3vMK4657ywTybQ0p1ldcApAK9hqU5mAgEPU
ATb3Ii1snvg0szD6w+ta8N1uaDqUrB6cRg1g3V82L3wbAN/eJpVXkVI/R4TVTcE8
kvcTnmk+yVKrHvUSDr+1P/M/Xpt0FMQOMWxG5WawA8N643luj+ew+36ioLCKOhfE
Yv9XStaAUwKZ2n02KbFDDMs9eODnxgyBWsgdSCr2zsFMj61rl1oy0vhoOhf6bh6P
9Fz6NTIV2o9a0IjMB++rDsCWNrlouGr1oVpcYpWrWQIDAQABo4IBvjCCAbowHwYD
VR0jBBgwFoAUtqj/oqgv0KbNS7Fo8+dQEDGneSEwHQYDVR0OBBYEFPquxvRuQn58
lQQNOq/GVTo/tVsZMA4GA1UdDwEB/wQEAwIFoDAMBgNVHRMBAf8EAjAAMB0GA1Ud
JQQWMBQGCCsGAQUFBwMBBggrBgEFBQcDAjBgBgNVHSAEWTBXMEsGCysGAQQBsjEB
AgIaMDwwOgYIKwYBBQUHAgEWLmh0dHA6Ly93d3cuZ2FuZGkubmV0L2NvbnRyYWN0
cy9mci9zc2wvY3BzL3BkZi8wCAYGZ4EMAQIBMDwGA1UdHwQ1MDMwMaAvoC2GK2h0
dHA6Ly9jcmwuZ2FuZGkubmV0L0dhbmRpU3RhbmRhcmRTU0xDQS5jcmwwagYIKwYB
BQUHAQEEXjBcMDcGCCsGAQUFBzAChitodHRwOi8vY3J0LmdhbmRpLm5ldC9HYW5k
aVN0YW5kYXJkU1NMQ0EuY3J0MCEGCCsGAQUFBzABhhVodHRwOi8vb2NzcC5nYW5k
aS5uZXQwLwYDVR0RBCgwJoIPd2lraS5kZWJpYW4ub3JnghN3d3cud2lraS5kZWJp
YW4ub3JnMA0GCSqGSIb3DQEBBQUAA4IBAQBQJpNKMbNCF+yeBifhJc6C4irnNaH+
JiRthHcsJHxu0qdPrL39gV0QuZLR47kmDnJGmnBrL8PpelzM0JrljTu0jmRHutEk
WVV+W5siko2cnstNHkioFNuUl7+MBRc3Oa13R1hfldFi9EdMlAs0Obms4BmCECtv
QAWig+lsvH3nFdBNj/DqVkdQFUBK2IhMPkOICG6faljmv31i9tnuQ3UggGXILwti
aEKARmaKH76+fuN6p+6A1h2jrAFwQ7hyTV8kOT4h291z6AsPdzOFeRv0g2Pp9tQm
RYTD78UVnP8P/CnNFKeCisrlw3vYhgnPIDLuupp10ZePNT+jcAC0vvh2
-----END CERTIFICATE-----
