Certificate:
    Data:
        Version: 3 (0x2)
        Serial Number:
            37:67:dc:fd:0f:3a:69:88:b2:f0:f6:95:0a:2f:d0:c2
    Signature Algorithm: sha1WithRSAEncryption
        Issuer: C=FR, O=GANDI SAS, CN=Gandi Standard SSL CA
        Validity
            Not Before: Jul  8 00:00:00 2014 GMT
            Not After : Jul 29 23:59:59 2015 GMT
        Subject: OU=Domain Control Validated, OU=Gandi Standard SSL, CN=wiki.debian.org
        Subject Public Key Info:
            Public Key Algorithm: rsaEncryption
                Public-Key: (3072 bit)
                Modulus:
                    00:d1:0d:ee:73:7a:54:33:34:d6:fe:41:c8:e6:0a:
                    57:08:3b:a6:41:0a:47:05:21:b4:80:a6:f7:e6:8e:
                    02:dd:d9:27:e5:65:30:2f:6e:bc:42:b5:2f:97:a5:
                    d1:17:a2:43:bb:fe:00:61:85:cc:52:d1:12:56:97:
                    ac:33:61:2b:8b:35:51:6e:da:90:e0:8e:c6:6f:63:
                    bc:be:ee:c7:a2:eb:e2:2b:0e:fe:bb:6a:00:7e:4d:
                    69:e7:a3:1f:5a:f2:4d:49:c6:28:3e:ec:f7:36:3a:
                    65:78:21:0c:65:c3:f0:28:1f:e1:96:f1:0b:72:62:
                    02:e9:95:53:13:50:eb:5b:4b:91:ae:9d:0f:79:74:
                    cb:ce:a2:a6:5e:f8:7c:1e:72:79:94:13:f1:c0:1e:
                    52:d3:1b:07:66:6b:72:e9:57:f6:b0:2f:12:4f:06:
                    af:12:7c:b6:0b:b6:87:a9:03:2c:7d:d6:ff:6c:a4:
                    df:e3:9c:ab:7b:cc:2b:8e:b9:ef:2c:13:c9:b4:34:
                    a7:59:5d:70:0a:40:2b:d8:6a:53:99:80:80:43:d4:
                    01:36:f7:22:2d:6c:9e:f8:34:b3:30:fa:c3:eb:5a:
                    f0:dd:6e:68:3a:94:ac:1e:9c:46:0d:60:dd:5f:36:
                    2f:7c:1b:00:df:de:26:95:57:91:52:3f:47:84:d5:
                    4d:c1:3c:92:f7:13:9e:69:3e:c9:52:ab:1e:f5:12:
                    0e:bf:b5:3f:f3:3f:5e:9b:74:14:c4:0e:31:6c:46:
                    e5:66:b0:03:c3:7a:e3:79:6e:8f:e7:b0:fb:7e:a2:
                    a0:b0:8a:3a:17:c4:62:ff:57:4a:d6:80:53:02:99:
                    da:7d:36:29:b1:43:0c:cb:3d:78:e0:e7:c6:0c:81:
                    5a:c8:1d:48:2a:f6:ce:c1:4c:8f:ad:6b:97:5a:32:
                    d2:f8:68:3a:17:fa:6e:1e:8f:f4:5c:fa:35:32:15:
                    da:8f:5a:d0:88:cc:07:ef:ab:0e:c0:96:36:b9:68:
                    b8:6a:f5:a1:5a:5c:62:95:ab:59
                Exponent: 65537 (0x10001)
        X509v3 extensions:
            X509v3 Authority Key Identifier: 
                keyid:B6:A8:FF:A2:A8:2F:D0:A6:CD:4B:B1:68:F3:E7:50:10:31:A7:79:21

            X509v3 Subject Key Identifier: 
                FA:AE:C6:F4:6E:42:7E:7C:95:04:0D:3A:AF:C6:55:3A:3F:B5:5B:19
            X509v3 Key Usage: critical
                Digital Signature, Key Encipherment
            X509v3 Basic Constraints: critical
                CA:FALSE
            X509v3 Extended Key Usage: 
                TLS Web Server Authentication, TLS Web Client Authentication
            X509v3 Certificate Policies: 
                Policy: 1.3.6.1.4.1.6449.1.2.2.26
                  CPS: http://www.gandi.net/contracts/fr/ssl/cps/pdf/
                Policy: 2.23.140.1.2.1

            X509v3 CRL Distribution Points: 

                Full Name:
                  URI:http://crl.gandi.net/GandiStandardSSLCA.crl

            Authority Information Access: 
                CA Issuers - URI:http://crt.gandi.net/GandiStandardSSLCA.crt
                OCSP - URI:http://ocsp.gandi.net

            X509v3 Subject Alternative Name: 
                DNS:wiki.debian.org, DNS:www.wiki.debian.org
    Signature Algorithm: sha1WithRSAEncryption
         33:e7:31:1e:e9:15:08:98:2a:81:e9:16:1b:7f:63:c1:63:30:
         9b:2f:d7:63:c2:65:84:07:b6:fe:02:a9:35:1f:68:1b:97:2b:
         61:6a:ee:58:2b:4f:05:da:f8:fa:98:eb:30:fd:a4:81:ac:52:
         4a:10:fe:ef:7b:b6:a7:77:25:f6:00:b7:14:dd:af:3a:e3:42:
         a9:27:c9:8c:56:4e:e7:51:b9:75:49:68:28:18:b9:33:e7:59:
         2c:a0:0a:75:37:77:1d:b3:9b:c8:f2:02:8b:eb:87:a9:9d:3d:
         b6:74:9e:81:4e:25:f4:33:4a:90:3f:a1:80:dd:38:3f:02:ee:
         5b:f9:b5:40:b9:54:c7:39:77:f0:5d:44:4b:e9:c9:9a:38:86:
         63:ae:8a:a6:61:7d:9c:71:a9:71:08:7d:2b:c4:2c:6c:a0:8c:
         cd:f8:6d:66:1c:fe:55:fb:03:bc:34:91:18:62:e0:ba:cd:2a:
         c7:37:48:c1:05:eb:c9:40:fd:d5:9e:1f:61:74:bb:a0:f8:5d:
         8f:a4:b1:de:43:f3:18:81:6a:7b:1d:05:e5:91:f1:cc:8f:de:
         89:a4:35:6d:e5:25:19:cb:ca:5b:de:c3:63:f5:78:b1:aa:ea:
         40:91:3b:e6:69:33:01:1f:bc:c2:60:df:9b:de:16:e7:4f:74:
         7a:69:f3:59
-----BEGIN CERTIFICATE-----
MIIFZTCCBE2gAwIBAgIQN2fc/Q86aYiy8PaVCi/QwjANBgkqhkiG9w0BAQUFADBB
MQswCQYDVQQGEwJGUjESMBAGA1UEChMJR0FOREkgU0FTMR4wHAYDVQQDExVHYW5k
aSBTdGFuZGFyZCBTU0wgQ0EwHhcNMTQwNzA4MDAwMDAwWhcNMTUwNzI5MjM1OTU5
WjBaMSEwHwYDVQQLExhEb21haW4gQ29udHJvbCBWYWxpZGF0ZWQxGzAZBgNVBAsT
EkdhbmRpIFN0YW5kYXJkIFNTTDEYMBYGA1UEAxMPd2lraS5kZWJpYW4ub3JnMIIB
ojANBgkqhkiG9w0BAQEFAAOCAY8AMIIBigKCAYEA0Q3uc3pUMzTW/kHI5gpXCDum
QQpHBSG0gKb35o4C3dkn5WUwL268QrUvl6XRF6JDu/4AYYXMUtESVpesM2ErizVR
btqQ4I7Gb2O8vu7HouviKw7+u2oAfk1p56MfWvJNScYoPuz3NjpleCEMZcPwKB/h
lvELcmIC6ZVTE1DrW0uRrp0PeXTLzqKmXvh8HnJ5lBPxwB5S0xsHZmty6Vf2sC8S
TwavEny2C7aHqQMsfdb/bKTf45yre8wrjrnvLBPJtDSnWV1wCkAr2GpTmYCAQ9QB
NvciLWye+DSzMPrD61rw3W5oOpSsHpxGDWDdXzYvfBsA394mlVeRUj9HhNVNwTyS
9xOeaT7JUqse9RIOv7U/8z9em3QUxA4xbEblZrADw3rjeW6P57D7fqKgsIo6F8Ri
/1dK1oBTApnafTYpsUMMyz144OfGDIFayB1IKvbOwUyPrWuXWjLS+Gg6F/puHo/0
XPo1MhXaj1rQiMwH76sOwJY2uWi4avWhWlxilatZAgMBAAGjggG+MIIBujAfBgNV
HSMEGDAWgBS2qP+iqC/Qps1LsWjz51AQMad5ITAdBgNVHQ4EFgQU+q7G9G5CfnyV
BA06r8ZVOj+1WxkwDgYDVR0PAQH/BAQDAgWgMAwGA1UdEwEB/wQCMAAwHQYDVR0l
BBYwFAYIKwYBBQUHAwEGCCsGAQUFBwMCMGAGA1UdIARZMFcwSwYLKwYBBAGyMQEC
AhowPDA6BggrBgEFBQcCARYuaHR0cDovL3d3dy5nYW5kaS5uZXQvY29udHJhY3Rz
L2ZyL3NzbC9jcHMvcGRmLzAIBgZngQwBAgEwPAYDVR0fBDUwMzAxoC+gLYYraHR0
cDovL2NybC5nYW5kaS5uZXQvR2FuZGlTdGFuZGFyZFNTTENBLmNybDBqBggrBgEF
BQcBAQReMFwwNwYIKwYBBQUHMAKGK2h0dHA6Ly9jcnQuZ2FuZGkubmV0L0dhbmRp
U3RhbmRhcmRTU0xDQS5jcnQwIQYIKwYBBQUHMAGGFWh0dHA6Ly9vY3NwLmdhbmRp
Lm5ldDAvBgNVHREEKDAmgg93aWtpLmRlYmlhbi5vcmeCE3d3dy53aWtpLmRlYmlh
bi5vcmcwDQYJKoZIhvcNAQEFBQADggEBADPnMR7pFQiYKoHpFht/Y8FjMJsv12PC
ZYQHtv4CqTUfaBuXK2Fq7lgrTwXa+PqY6zD9pIGsUkoQ/u97tqd3JfYAtxTdrzrj
QqknyYxWTudRuXVJaCgYuTPnWSygCnU3dx2zm8jyAovrh6mdPbZ0noFOJfQzSpA/
oYDdOD8C7lv5tUC5VMc5d/BdREvpyZo4hmOuiqZhfZxxqXEIfSvELGygjM34bWYc
/lX7A7w0kRhi4LrNKsc3SMEF68lA/dWeH2F0u6D4XY+ksd5D8xiBansdBeWR8cyP
3omkNW3lJRnLylvew2P1eLGq6kCRO+ZpMwEfvMJg35veFudPdHpp81k=
-----END CERTIFICATE-----
