Certificate:
    Data:
        Version: 3 (0x2)
        Serial Number:
            1e:65:41:58:65:da:93:4f:0a:4c:b9:fc:d7:8b:65:4e
    Signature Algorithm: sha256WithRSAEncryption
        Issuer: C=FR, ST=Paris, L=Paris, O=Gandi, CN=Gandi Standard SSL CA 2
        Validity
            Not Before: Dec 17 00:00:00 2014 GMT
            Not After : Dec 31 23:59:59 2015 GMT
        Subject: OU=Domain Control Validated, OU=Gandi Standard SSL, CN=debian.org
        Subject Public Key Info:
            Public Key Algorithm: rsaEncryption
                Public-Key: (3072 bit)
                Modulus:
                    00:e6:64:e5:b7:99:14:a1:9d:07:2f:e9:1a:0e:da:
                    28:6e:13:8d:83:c2:87:e2:90:1b:bd:1f:12:4c:ca:
                    1c:b6:3d:08:0d:c5:81:6f:8d:e2:01:76:74:7d:2d:
                    04:6e:41:bf:f5:c5:8e:40:cf:c8:ed:46:b0:c8:ff:
                    56:8b:53:b2:50:cf:5b:07:0f:5a:4e:b4:89:cf:d5:
                    9e:de:db:a1:c9:b7:48:ff:1b:82:69:ef:97:64:93:
                    ab:9c:a0:57:03:4b:c7:e1:00:ca:db:5b:87:de:43:
                    7f:eb:b8:46:8f:52:87:23:10:17:6f:f0:2e:bc:5c:
                    3e:e6:7d:82:24:c7:1d:c0:d4:35:b6:bb:3b:74:6c:
                    de:f5:8d:07:a8:67:35:37:f3:a3:86:56:3c:bf:04:
                    ce:f9:09:28:04:4a:9d:a8:08:b1:77:81:7a:51:91:
                    90:24:7e:2f:2b:6b:11:b5:cf:c6:c7:a3:57:95:01:
                    00:25:4d:35:5a:c8:09:8a:67:c5:3d:0f:db:bd:06:
                    65:78:7a:45:ff:cb:b0:ac:15:d0:d4:b7:a0:5e:45:
                    09:da:71:39:4e:6c:a3:e7:1b:f7:55:1b:62:27:91:
                    31:30:02:3f:d1:9c:b5:53:86:c0:dd:1d:05:28:72:
                    c7:cc:be:d2:09:17:76:2b:85:35:18:f3:09:db:67:
                    9e:55:07:21:35:6a:f2:96:30:d2:8a:8f:6a:e4:78:
                    6a:c4:fe:4e:9d:03:c6:16:49:a5:e4:2c:22:15:54:
                    c0:4e:23:82:fe:36:96:88:7e:01:50:cb:bd:4f:e2:
                    50:1b:c5:fc:93:32:62:25:40:78:3f:ab:66:97:e8:
                    d7:51:96:87:23:fa:b6:20:fc:0a:ea:6b:8b:75:c7:
                    5a:0c:67:4b:32:e1:a7:74:af:ff:1d:a6:7f:7e:ae:
                    23:02:66:6c:8c:f0:7f:55:03:30:43:e8:85:cd:9f:
                    d0:00:9e:a5:4a:1c:7f:1f:52:06:2e:05:bc:0c:d3:
                    51:6a:0b:fb:5a:a6:a4:5d:c7:31
                Exponent: 65537 (0x10001)
        X509v3 extensions:
            X509v3 Authority Key Identifier: 
                keyid:B3:90:A7:D8:C9:AF:4E:CD:61:3C:9F:7C:AD:5D:7F:41:FD:69:30:EA

            X509v3 Subject Key Identifier: 
                FE:E1:00:FF:AA:4F:A0:36:54:84:72:5D:42:0C:F4:E7:6F:BE:9F:D5
            X509v3 Key Usage: critical
                Digital Signature, Key Encipherment
            X509v3 Basic Constraints: critical
                CA:FALSE
            X509v3 Extended Key Usage: 
                TLS Web Server Authentication, TLS Web Client Authentication
            X509v3 Certificate Policies: 
                Policy: 1.3.6.1.4.1.6449.1.2.2.26
                  CPS: https://cps.usertrust.com
                Policy: 2.23.140.1.2.1

            X509v3 CRL Distribution Points: 

                Full Name:
                  URI:http://crl.usertrust.com/GandiStandardSSLCA2.crl

            Authority Information Access: 
                CA Issuers - URI:http://crt.usertrust.com/GandiStandardSSLCA2.crt
                OCSP - URI:http://ocsp.usertrust.com

            X509v3 Subject Alternative Name: 
                DNS:debian.org, DNS:www.debian.org
    Signature Algorithm: sha256WithRSAEncryption
         8f:4a:e4:1c:c2:61:1b:45:b4:01:d1:3a:28:c2:e6:50:62:a0:
         1d:26:36:05:49:48:b6:c3:81:19:f0:95:8e:44:15:24:23:74:
         06:b2:5d:38:52:64:2e:cd:f5:12:3d:fb:34:75:2e:3a:10:a6:
         1a:d1:51:db:7f:2c:fb:ae:26:0b:11:de:76:14:3f:07:95:05:
         bd:62:e9:3f:12:e2:f5:02:3f:5b:7e:80:be:57:af:f5:e6:51:
         ac:7f:1a:98:c3:2c:87:b5:f3:f2:d8:4b:90:a3:1b:cc:2a:b1:
         1e:c7:92:00:70:18:eb:13:a1:36:03:39:8d:92:4d:c3:3b:0a:
         1c:46:c5:bb:7b:cc:96:0f:07:72:a0:3a:40:00:7e:13:7c:c3:
         56:85:fe:01:89:39:78:ce:80:c9:2d:35:2c:77:07:36:64:9f:
         6a:cb:0e:0b:32:4d:7d:87:92:c6:15:90:9b:e0:81:cf:6a:dc:
         ae:a6:5c:18:c7:fc:60:f2:6e:c1:56:51:b4:2e:ae:27:35:1e:
         38:99:06:e9:48:1b:fe:94:dc:a3:de:68:e0:2c:25:26:28:50:
         11:2a:68:56:82:d6:40:fd:8a:c7:fc:c0:cb:8c:80:82:14:42:
         a1:9b:0a:a2:ec:d4:2c:2e:d3:93:39:35:99:66:a3:83:b0:b6:
         18:3a:70:bf
-----BEGIN CERTIFICATE-----
MIIFbTCCBFWgAwIBAgIQHmVBWGXak08KTLn814tlTjANBgkqhkiG9w0BAQsFADBf
MQswCQYDVQQGEwJGUjEOMAwGA1UECBMFUGFyaXMxDjAMBgNVBAcTBVBhcmlzMQ4w
DAYDVQQKEwVHYW5kaTEgMB4GA1UEAxMXR2FuZGkgU3RhbmRhcmQgU1NMIENBIDIw
HhcNMTQxMjE3MDAwMDAwWhcNMTUxMjMxMjM1OTU5WjBVMSEwHwYDVQQLExhEb21h
aW4gQ29udHJvbCBWYWxpZGF0ZWQxGzAZBgNVBAsTEkdhbmRpIFN0YW5kYXJkIFNT
TDETMBEGA1UEAxMKZGViaWFuLm9yZzCCAaIwDQYJKoZIhvcNAQEBBQADggGPADCC
AYoCggGBAOZk5beZFKGdBy/pGg7aKG4TjYPCh+KQG70fEkzKHLY9CA3FgW+N4gF2
dH0tBG5Bv/XFjkDPyO1GsMj/VotTslDPWwcPWk60ic/Vnt7bocm3SP8bgmnvl2ST
q5ygVwNLx+EAyttbh95Df+u4Ro9ShyMQF2/wLrxcPuZ9giTHHcDUNba7O3Rs3vWN
B6hnNTfzo4ZWPL8EzvkJKARKnagIsXeBelGRkCR+LytrEbXPxsejV5UBACVNNVrI
CYpnxT0P270GZXh6Rf/LsKwV0NS3oF5FCdpxOU5so+cb91UbYieRMTACP9GctVOG
wN0dBShyx8y+0gkXdiuFNRjzCdtnnlUHITVq8pYw0oqPauR4asT+Tp0DxhZJpeQs
IhVUwE4jgv42loh+AVDLvU/iUBvF/JMyYiVAeD+rZpfo11GWhyP6tiD8Cupri3XH
WgxnSzLhp3Sv/x2mf36uIwJmbIzwf1UDMEPohc2f0ACepUocfx9SBi4FvAzTUWoL
+1qmpF3HMQIDAQABo4IBrTCCAakwHwYDVR0jBBgwFoAUs5Cn2MmvTs1hPJ98rV1/
Qf1pMOowHQYDVR0OBBYEFP7hAP+qT6A2VIRyXUIM9Odvvp/VMA4GA1UdDwEB/wQE
AwIFoDAMBgNVHRMBAf8EAjAAMB0GA1UdJQQWMBQGCCsGAQUFBwMBBggrBgEFBQcD
AjBLBgNVHSAERDBCMDYGCysGAQQBsjEBAgIaMCcwJQYIKwYBBQUHAgEWGWh0dHBz
Oi8vY3BzLnVzZXJ0cnVzdC5jb20wCAYGZ4EMAQIBMEEGA1UdHwQ6MDgwNqA0oDKG
MGh0dHA6Ly9jcmwudXNlcnRydXN0LmNvbS9HYW5kaVN0YW5kYXJkU1NMQ0EyLmNy
bDBzBggrBgEFBQcBAQRnMGUwPAYIKwYBBQUHMAKGMGh0dHA6Ly9jcnQudXNlcnRy
dXN0LmNvbS9HYW5kaVN0YW5kYXJkU1NMQ0EyLmNydDAlBggrBgEFBQcwAYYZaHR0
cDovL29jc3AudXNlcnRydXN0LmNvbTAlBgNVHREEHjAcggpkZWJpYW4ub3Jngg53
d3cuZGViaWFuLm9yZzANBgkqhkiG9w0BAQsFAAOCAQEAj0rkHMJhG0W0AdE6KMLm
UGKgHSY2BUlItsOBGfCVjkQVJCN0BrJdOFJkLs31Ej37NHUuOhCmGtFR238s+64m
CxHedhQ/B5UFvWLpPxLi9QI/W36Avlev9eZRrH8amMMsh7Xz8thLkKMbzCqxHseS
AHAY6xOhNgM5jZJNwzsKHEbFu3vMlg8HcqA6QAB+E3zDVoX+AYk5eM6AyS01LHcH
NmSfassOCzJNfYeSxhWQm+CBz2rcrqZcGMf8YPJuwVZRtC6uJzUeOJkG6Ugb/pTc
o95o4CwlJihQESpoVoLWQP2Kx/zAy4yAghRCoZsKouzULC7Tkzk1mWajg7C2GDpw
vw==
-----END CERTIFICATE-----
